ARM GAS  /tmp/ccwbSnYJ.s 			page 1


   1              		.syntax unified
   2              		.cpu cortex-m4
   3              		.fpu softvfp
   4              		.eabi_attribute 20, 1
   5              		.eabi_attribute 21, 1
   6              		.eabi_attribute 23, 3
   7              		.eabi_attribute 24, 1
   8              		.eabi_attribute 25, 1
   9              		.eabi_attribute 26, 1
  10              		.eabi_attribute 30, 2
  11              		.eabi_attribute 34, 1
  12              		.eabi_attribute 18, 4
  13              		.thumb
  14              		.syntax unified
  15              		.file	"adc_lld.c"
  16              		.text
  17              	.Ltext0:
  18              		.cfi_sections	.debug_frame
  19              		.section	.text.adc_lld_serve_rx_interrupt,"ax",%progbits
  20              		.align	2
  21              		.p2align 4,,15
  22              		.thumb
  23              		.thumb_func
  24              		.type	adc_lld_serve_rx_interrupt, %function
  25              	adc_lld_serve_rx_interrupt:
  26              	.LFB118:
  27              		.file 1 "../ChibiOS_2.6.9/os/hal/platforms/STM32F4xx/adc_lld.c"
  28              		.loc 1 76 0
  29              		.cfi_startproc
  30              		@ args = 0, pretend = 0, frame = 0
  31              		@ frame_needed = 0, uses_anonymous_args = 0
  32              	.LVL0:
  33              		.loc 1 79 0
  34 0000 11F00C0F 		tst	r1, #12
  35              		.loc 1 76 0
  36 0004 2DE9F041 		push	{r4, r5, r6, r7, r8, lr}
  37              		.cfi_def_cfa_offset 24
  38              		.cfi_offset 4, -24
  39              		.cfi_offset 5, -20
  40              		.cfi_offset 6, -16
  41              		.cfi_offset 7, -12
  42              		.cfi_offset 8, -8
  43              		.cfi_offset 14, -4
  44              		.loc 1 76 0
  45 0008 0446     		mov	r4, r0
  46              		.loc 1 79 0
  47 000a 32D0     		beq	.L2
  48              	.LVL1:
  49              	.LBB28:
  50              	.LBB29:
  51              		.loc 1 376 0
  52 000c C06A     		ldr	r0, [r0, #44]
  53              	.LVL2:
  54 000e 0368     		ldr	r3, [r0]
  55 0010 1A68     		ldr	r2, [r3]
  56 0012 22F01F02 		bic	r2, r2, #31
  57 0016 1A60     		str	r2, [r3]
ARM GAS  /tmp/ccwbSnYJ.s 			page 2


  58              	.LVL3:
  59              	.L3:
  60 0018 1968     		ldr	r1, [r3]
  61 001a 11F00101 		ands	r1, r1, #1
  62 001e FBD1     		bne	.L3
  63              	.LBE29:
  64              	.LBE28:
  65              		.loc 1 82 0
  66 0020 2269     		ldr	r2, [r4, #16]
  67              	.LBB32:
  68              	.LBB30:
  69              		.loc 1 376 0
  70 0022 077A     		ldrb	r7, [r0, #8]	@ zero_extendqisi2
  71 0024 4668     		ldr	r6, [r0, #4]
  72              	.LBE30:
  73              	.LBE32:
  74              		.loc 1 82 0
  75 0026 9568     		ldr	r5, [r2, #8]
  76              	.LBB33:
  77              	.LBB31:
  78              		.loc 1 377 0
  79 0028 A36A     		ldr	r3, [r4, #40]
  80              		.loc 1 376 0
  81 002a 3D22     		movs	r2, #61
  82 002c BA40     		lsls	r2, r2, r7
  83              		.loc 1 379 0
  84 002e 0120     		movs	r0, #1
  85              		.loc 1 376 0
  86 0030 3260     		str	r2, [r6]
  87              		.loc 1 377 0
  88 0032 5960     		str	r1, [r3, #4]
  89              		.loc 1 378 0
  90 0034 9960     		str	r1, [r3, #8]
  91              		.loc 1 379 0
  92 0036 9860     		str	r0, [r3, #8]
  93              	.LVL4:
  94              	.LBE31:
  95              	.LBE33:
  96              		.loc 1 82 0
  97 0038 45B1     		cbz	r5, .L5
  98              		.loc 1 82 0 is_stmt 0 discriminator 1
  99 003a 0523     		movs	r3, #5
 100 003c 2370     		strb	r3, [r4]
 101 003e 2046     		mov	r0, r4
 102 0040 A847     		blx	r5
 103              	.LVL5:
 104 0042 2378     		ldrb	r3, [r4]	@ zero_extendqisi2
 105 0044 052B     		cmp	r3, #5
 106 0046 04BF     		itt	eq
 107 0048 0223     		moveq	r3, #2
 108 004a 2370     		strbeq	r3, [r4]
 109              	.L5:
 110              		.loc 1 82 0 discriminator 5
 111 004c 0022     		movs	r2, #0
 112 004e 2261     		str	r2, [r4, #16]
 113              	.LBB34:
 114 0050 2023     		movs	r3, #32
ARM GAS  /tmp/ccwbSnYJ.s 			page 3


 115              		.syntax unified
 116              	@ 82 "../ChibiOS_2.6.9/os/hal/platforms/STM32F4xx/adc_lld.c" 1
 117 0052 83F31188 		msr     BASEPRI, r3
 118              	@ 0 "" 2
 119              		.thumb
 120              		.syntax unified
 121              	.LBE34:
 122 0056 6369     		ldr	r3, [r4, #20]
 123 0058 33B1     		cbz	r3, .L15
 124              	.LVL6:
 125              	.LBB35:
 126              		.loc 1 82 0 discriminator 6
 127 005a 4FF0FF31 		mov	r1, #-1
 128 005e 6261     		str	r2, [r4, #20]
 129 0060 1846     		mov	r0, r3
 130 0062 1962     		str	r1, [r3, #32]
 131 0064 FFF7FEFF 		bl	chSchReadyI
 132              	.LVL7:
 133              	.L15:
 134              	.LBE35:
 135              	.LBB36:
 136              		.loc 1 90 0 is_stmt 1 discriminator 12
 137 0068 0023     		movs	r3, #0
 138              		.syntax unified
 139              	@ 90 "../ChibiOS_2.6.9/os/hal/platforms/STM32F4xx/adc_lld.c" 1
 140 006a 83F31188 		msr     BASEPRI, r3
 141              	@ 0 "" 2
 142              		.thumb
 143              		.syntax unified
 144 006e BDE8F081 		pop	{r4, r5, r6, r7, r8, pc}
 145              	.LVL8:
 146              	.L2:
 147              	.LBE36:
 148              		.loc 1 87 0
 149 0072 0569     		ldr	r5, [r0, #16]
 150 0074 A5B1     		cbz	r5, .L1
 151              		.loc 1 88 0
 152 0076 8A06     		lsls	r2, r1, #26
 153 0078 10D5     		bpl	.L9
 154              		.loc 1 90 0
 155 007a 2B78     		ldrb	r3, [r5]	@ zero_extendqisi2
 156 007c DBB1     		cbz	r3, .L10
 157              		.loc 1 90 0 is_stmt 0 discriminator 1
 158 007e 6B68     		ldr	r3, [r5, #4]
 159 0080 73B1     		cbz	r3, .L1
 160              		.loc 1 90 0 discriminator 3
 161 0082 C268     		ldr	r2, [r0, #12]
 162 0084 012A     		cmp	r2, #1
 163 0086 47D9     		bls	.L11
 164              	.LBB37:
 165              		.loc 1 90 0 discriminator 4
 166 0088 6988     		ldrh	r1, [r5, #2]
 167              	.LVL9:
 168 008a 8468     		ldr	r4, [r0, #8]
 169 008c 5208     		lsrs	r2, r2, #1
 170              	.LVL10:
 171 008e 02FB01F1 		mul	r1, r2, r1
ARM GAS  /tmp/ccwbSnYJ.s 			page 4


 172 0092 04EB4101 		add	r1, r4, r1, lsl #1
 173              	.LBE37:
 174              		.loc 1 98 0 is_stmt 1 discriminator 4
 175 0096 BDE8F041 		pop	{r4, r5, r6, r7, r8, lr}
 176              		.cfi_remember_state
 177              		.cfi_restore 14
 178              		.cfi_restore 8
 179              		.cfi_restore 7
 180              		.cfi_restore 6
 181              		.cfi_restore 5
 182              		.cfi_restore 4
 183              		.cfi_def_cfa_offset 0
 184              	.LVL11:
 185              	.LBB38:
 186              		.loc 1 90 0 discriminator 4
 187 009a 1847     		bx	r3	@ indirect register sibling call
 188              	.LVL12:
 189              	.L9:
 190              		.cfi_restore_state
 191              	.LBE38:
 192              		.loc 1 92 0
 193 009c CB06     		lsls	r3, r1, #27
 194 009e 01D4     		bmi	.L41
 195              	.L1:
 196 00a0 BDE8F081 		pop	{r4, r5, r6, r7, r8, pc}
 197              	.L41:
 198              		.loc 1 94 0
 199 00a4 6B68     		ldr	r3, [r5, #4]
 200 00a6 002B     		cmp	r3, #0
 201 00a8 FAD0     		beq	.L1
 202              		.loc 1 94 0 is_stmt 0 discriminator 1
 203 00aa C268     		ldr	r2, [r0, #12]
 204 00ac 8168     		ldr	r1, [r0, #8]
 205              	.LVL13:
 206 00ae 5208     		lsrs	r2, r2, #1
 207              		.loc 1 98 0 is_stmt 1 discriminator 1
 208 00b0 BDE8F041 		pop	{r4, r5, r6, r7, r8, lr}
 209              		.cfi_remember_state
 210              		.cfi_restore 14
 211              		.cfi_restore 8
 212              		.cfi_restore 7
 213              		.cfi_restore 6
 214              		.cfi_restore 5
 215              		.cfi_restore 4
 216              		.cfi_def_cfa_offset 0
 217              		.loc 1 94 0 discriminator 1
 218 00b4 1847     		bx	r3	@ indirect register sibling call
 219              	.LVL14:
 220              	.L10:
 221              		.cfi_restore_state
 222              	.LBB39:
 223              	.LBB40:
 224              		.loc 1 376 0
 225 00b6 C06A     		ldr	r0, [r0, #44]
 226              	.LVL15:
 227 00b8 0268     		ldr	r2, [r0]
 228 00ba 1368     		ldr	r3, [r2]
ARM GAS  /tmp/ccwbSnYJ.s 			page 5


 229 00bc 23F01F03 		bic	r3, r3, #31
 230 00c0 1360     		str	r3, [r2]
 231              	.L12:
 232 00c2 1368     		ldr	r3, [r2]
 233 00c4 13F00103 		ands	r3, r3, #1
 234 00c8 FBD1     		bne	.L12
 235 00ca 077A     		ldrb	r7, [r0, #8]	@ zero_extendqisi2
 236 00cc 4668     		ldr	r6, [r0, #4]
 237              	.LBE40:
 238              	.LBE39:
 239              		.loc 1 90 0
 240 00ce 6D68     		ldr	r5, [r5, #4]
 241              	.LBB42:
 242              	.LBB41:
 243              		.loc 1 377 0
 244 00d0 A26A     		ldr	r2, [r4, #40]
 245              		.loc 1 376 0
 246 00d2 3D21     		movs	r1, #61
 247              	.LVL16:
 248 00d4 B940     		lsls	r1, r1, r7
 249              		.loc 1 379 0
 250 00d6 0120     		movs	r0, #1
 251              		.loc 1 376 0
 252 00d8 3160     		str	r1, [r6]
 253              		.loc 1 377 0
 254 00da 5360     		str	r3, [r2, #4]
 255              		.loc 1 378 0
 256 00dc 9360     		str	r3, [r2, #8]
 257              		.loc 1 379 0
 258 00de 9060     		str	r0, [r2, #8]
 259              	.LVL17:
 260              	.LBE41:
 261              	.LBE42:
 262              		.loc 1 90 0
 263 00e0 ADB1     		cbz	r5, .L13
 264              		.loc 1 90 0 is_stmt 0 discriminator 6
 265 00e2 0423     		movs	r3, #4
 266 00e4 2370     		strb	r3, [r4]
 267 00e6 E268     		ldr	r2, [r4, #12]
 268 00e8 A168     		ldr	r1, [r4, #8]
 269 00ea 2046     		mov	r0, r4
 270 00ec A847     		blx	r5
 271              	.LVL18:
 272 00ee 2378     		ldrb	r3, [r4]	@ zero_extendqisi2
 273 00f0 042B     		cmp	r3, #4
 274 00f2 0CD0     		beq	.L13
 275              	.L14:
 276              	.LBB43:
 277              		.loc 1 90 0 discriminator 9
 278 00f4 2023     		movs	r3, #32
 279              		.syntax unified
 280              	@ 90 "../ChibiOS_2.6.9/os/hal/platforms/STM32F4xx/adc_lld.c" 1
 281 00f6 83F31188 		msr     BASEPRI, r3
 282              	@ 0 "" 2
 283              		.thumb
 284              		.syntax unified
 285              	.LBE43:
ARM GAS  /tmp/ccwbSnYJ.s 			page 6


 286 00fa 6369     		ldr	r3, [r4, #20]
 287 00fc 002B     		cmp	r3, #0
 288 00fe B3D0     		beq	.L15
 289              	.LVL19:
 290              	.LBB44:
 291              		.loc 1 90 0 discriminator 10
 292 0100 0022     		movs	r2, #0
 293 0102 6261     		str	r2, [r4, #20]
 294 0104 1846     		mov	r0, r3
 295 0106 1A62     		str	r2, [r3, #32]
 296 0108 FFF7FEFF 		bl	chSchReadyI
 297              	.LVL20:
 298 010c ACE7     		b	.L15
 299              	.L13:
 300              	.LBE44:
 301              		.loc 1 90 0 discriminator 8
 302 010e 0222     		movs	r2, #2
 303 0110 0023     		movs	r3, #0
 304 0112 2270     		strb	r2, [r4]
 305 0114 2361     		str	r3, [r4, #16]
 306 0116 EDE7     		b	.L14
 307              	.LVL21:
 308              	.L11:
 309              		.loc 1 90 0 discriminator 5
 310 0118 8168     		ldr	r1, [r0, #8]
 311              	.LVL22:
 312              		.loc 1 98 0 is_stmt 1 discriminator 5
 313 011a BDE8F041 		pop	{r4, r5, r6, r7, r8, lr}
 314              		.cfi_restore 14
 315              		.cfi_restore 8
 316              		.cfi_restore 7
 317              		.cfi_restore 6
 318              		.cfi_restore 5
 319              		.cfi_restore 4
 320              		.cfi_def_cfa_offset 0
 321              		.loc 1 90 0 discriminator 5
 322 011e 1847     		bx	r3	@ indirect register sibling call
 323              	.LVL23:
 324              		.cfi_endproc
 325              	.LFE118:
 326              		.size	adc_lld_serve_rx_interrupt, .-adc_lld_serve_rx_interrupt
 327              		.section	.text.Vector88,"ax",%progbits
 328              		.align	2
 329              		.p2align 4,,15
 330              		.global	Vector88
 331              		.thumb
 332              		.thumb_func
 333              		.type	Vector88, %function
 334              	Vector88:
 335              	.LFB119:
 336              		.loc 1 111 0
 337              		.cfi_startproc
 338              		@ args = 0, pretend = 0, frame = 0
 339              		@ frame_needed = 0, uses_anonymous_args = 0
 340 0000 F8B5     		push	{r3, r4, r5, r6, r7, lr}
 341              		.cfi_def_cfa_offset 24
 342              		.cfi_offset 3, -24
ARM GAS  /tmp/ccwbSnYJ.s 			page 7


 343              		.cfi_offset 4, -20
 344              		.cfi_offset 5, -16
 345              		.cfi_offset 6, -12
 346              		.cfi_offset 7, -8
 347              		.cfi_offset 14, -4
 348              		.loc 1 117 0
 349 0002 604B     		ldr	r3, .L101
 350 0004 1A68     		ldr	r2, [r3]
 351              	.LVL24:
 352              		.loc 1 118 0
 353 0006 0021     		movs	r1, #0
 354 0008 1960     		str	r1, [r3]
 355              		.loc 1 121 0
 356 000a 9106     		lsls	r1, r2, #26
 357 000c 38D5     		bpl	.L43
 358              		.loc 1 121 0 is_stmt 0 discriminator 1
 359 000e 5E4C     		ldr	r4, .L101+4
 360 0010 E16A     		ldr	r1, [r4, #44]
 361 0012 0A68     		ldr	r2, [r1]
 362              	.LVL25:
 363 0014 5368     		ldr	r3, [r2, #4]
 364 0016 002B     		cmp	r3, #0
 365 0018 32D0     		beq	.L43
 366              		.loc 1 124 0 is_stmt 1
 367 001a 2569     		ldr	r5, [r4, #16]
 368 001c 002D     		cmp	r5, #0
 369 001e 2FD0     		beq	.L43
 370              	.LVL26:
 371              	.LBB45:
 372              	.LBB46:
 373              		.loc 1 376 0
 374 0020 1368     		ldr	r3, [r2]
 375 0022 23F01F03 		bic	r3, r3, #31
 376 0026 1360     		str	r3, [r2]
 377              	.L44:
 378 0028 1368     		ldr	r3, [r2]
 379 002a 13F00103 		ands	r3, r3, #1
 380 002e FBD1     		bne	.L44
 381 0030 087A     		ldrb	r0, [r1, #8]	@ zero_extendqisi2
 382              	.LBE46:
 383              	.LBE45:
 384              		.loc 1 125 0
 385 0032 AE68     		ldr	r6, [r5, #8]
 386              	.LBB48:
 387              	.LBB47:
 388              		.loc 1 376 0
 389 0034 4F68     		ldr	r7, [r1, #4]
 390              		.loc 1 377 0
 391 0036 A26A     		ldr	r2, [r4, #40]
 392 0038 534D     		ldr	r5, .L101+4
 393              		.loc 1 376 0
 394 003a 3D21     		movs	r1, #61
 395 003c 01FA00F0 		lsl	r0, r1, r0
 396              		.loc 1 379 0
 397 0040 0121     		movs	r1, #1
 398              		.loc 1 376 0
 399 0042 3860     		str	r0, [r7]
ARM GAS  /tmp/ccwbSnYJ.s 			page 8


 400              		.loc 1 377 0
 401 0044 5360     		str	r3, [r2, #4]
 402              		.loc 1 378 0
 403 0046 9360     		str	r3, [r2, #8]
 404              		.loc 1 379 0
 405 0048 9160     		str	r1, [r2, #8]
 406              	.LVL27:
 407              	.LBE47:
 408              	.LBE48:
 409              		.loc 1 125 0
 410 004a 46B1     		cbz	r6, .L46
 411              		.loc 1 125 0 is_stmt 0 discriminator 1
 412 004c 0523     		movs	r3, #5
 413 004e 2B70     		strb	r3, [r5]
 414 0050 2846     		mov	r0, r5
 415 0052 B047     		blx	r6
 416              	.LVL28:
 417 0054 2B78     		ldrb	r3, [r5]	@ zero_extendqisi2
 418 0056 052B     		cmp	r3, #5
 419 0058 04BF     		itt	eq
 420 005a 0223     		moveq	r3, #2
 421 005c 2B70     		strbeq	r3, [r5]
 422              	.L46:
 423              		.loc 1 125 0 discriminator 5
 424 005e 0022     		movs	r2, #0
 425 0060 2261     		str	r2, [r4, #16]
 426 0062 4949     		ldr	r1, .L101+4
 427              	.LBB49:
 428 0064 2023     		movs	r3, #32
 429              		.syntax unified
 430              	@ 125 "../ChibiOS_2.6.9/os/hal/platforms/STM32F4xx/adc_lld.c" 1
 431 0066 83F31188 		msr     BASEPRI, r3
 432              	@ 0 "" 2
 433              		.thumb
 434              		.syntax unified
 435              	.LBE49:
 436 006a 6069     		ldr	r0, [r4, #20]
 437 006c 28B1     		cbz	r0, .L48
 438              	.LVL29:
 439              	.LBB50:
 440              		.loc 1 125 0 discriminator 6
 441 006e 4FF0FF33 		mov	r3, #-1
 442 0072 0362     		str	r3, [r0, #32]
 443 0074 4A61     		str	r2, [r1, #20]
 444 0076 FFF7FEFF 		bl	chSchReadyI
 445              	.LVL30:
 446              	.L48:
 447              	.LBE50:
 448              	.LBB51:
 449              		.loc 1 125 0 discriminator 8
 450 007a 0023     		movs	r3, #0
 451              		.syntax unified
 452              	@ 125 "../ChibiOS_2.6.9/os/hal/platforms/STM32F4xx/adc_lld.c" 1
 453 007c 83F31188 		msr     BASEPRI, r3
 454              	@ 0 "" 2
 455              		.thumb
 456              		.syntax unified
ARM GAS  /tmp/ccwbSnYJ.s 			page 9


 457              	.L43:
 458              	.LBE51:
 459              		.loc 1 131 0 is_stmt 1
 460 0080 424B     		ldr	r3, .L101+8
 461 0082 1A68     		ldr	r2, [r3]
 462              	.LVL31:
 463              		.loc 1 132 0
 464 0084 0021     		movs	r1, #0
 465              		.loc 1 135 0
 466 0086 9206     		lsls	r2, r2, #26
 467              	.LVL32:
 468              		.loc 1 132 0
 469 0088 1960     		str	r1, [r3]
 470              		.loc 1 135 0
 471 008a 38D5     		bpl	.L49
 472              		.loc 1 135 0 is_stmt 0 discriminator 1
 473 008c 404C     		ldr	r4, .L101+12
 474 008e E16A     		ldr	r1, [r4, #44]
 475 0090 0A68     		ldr	r2, [r1]
 476 0092 5368     		ldr	r3, [r2, #4]
 477 0094 002B     		cmp	r3, #0
 478 0096 32D0     		beq	.L49
 479              		.loc 1 138 0 is_stmt 1
 480 0098 2569     		ldr	r5, [r4, #16]
 481 009a 002D     		cmp	r5, #0
 482 009c 2FD0     		beq	.L49
 483              	.LVL33:
 484              	.LBB52:
 485              	.LBB53:
 486              		.loc 1 376 0
 487 009e 1368     		ldr	r3, [r2]
 488 00a0 23F01F03 		bic	r3, r3, #31
 489 00a4 1360     		str	r3, [r2]
 490              	.L50:
 491 00a6 1368     		ldr	r3, [r2]
 492 00a8 13F00103 		ands	r3, r3, #1
 493 00ac FBD1     		bne	.L50
 494 00ae 087A     		ldrb	r0, [r1, #8]	@ zero_extendqisi2
 495              	.LBE53:
 496              	.LBE52:
 497              		.loc 1 139 0
 498 00b0 AE68     		ldr	r6, [r5, #8]
 499              	.LBB55:
 500              	.LBB54:
 501              		.loc 1 376 0
 502 00b2 4F68     		ldr	r7, [r1, #4]
 503              		.loc 1 377 0
 504 00b4 A26A     		ldr	r2, [r4, #40]
 505 00b6 364D     		ldr	r5, .L101+12
 506              		.loc 1 376 0
 507 00b8 3D21     		movs	r1, #61
 508 00ba 01FA00F0 		lsl	r0, r1, r0
 509              		.loc 1 379 0
 510 00be 0121     		movs	r1, #1
 511              		.loc 1 376 0
 512 00c0 3860     		str	r0, [r7]
 513              		.loc 1 377 0
ARM GAS  /tmp/ccwbSnYJ.s 			page 10


 514 00c2 5360     		str	r3, [r2, #4]
 515              		.loc 1 378 0
 516 00c4 9360     		str	r3, [r2, #8]
 517              		.loc 1 379 0
 518 00c6 9160     		str	r1, [r2, #8]
 519              	.LVL34:
 520              	.LBE54:
 521              	.LBE55:
 522              		.loc 1 139 0
 523 00c8 46B1     		cbz	r6, .L52
 524              		.loc 1 139 0 is_stmt 0 discriminator 1
 525 00ca 0523     		movs	r3, #5
 526 00cc 2B70     		strb	r3, [r5]
 527 00ce 2846     		mov	r0, r5
 528 00d0 B047     		blx	r6
 529              	.LVL35:
 530 00d2 2B78     		ldrb	r3, [r5]	@ zero_extendqisi2
 531 00d4 052B     		cmp	r3, #5
 532 00d6 04BF     		itt	eq
 533 00d8 0223     		moveq	r3, #2
 534 00da 2B70     		strbeq	r3, [r5]
 535              	.L52:
 536              		.loc 1 139 0 discriminator 5
 537 00dc 0022     		movs	r2, #0
 538 00de 2261     		str	r2, [r4, #16]
 539 00e0 2B49     		ldr	r1, .L101+12
 540              	.LBB56:
 541 00e2 2023     		movs	r3, #32
 542              		.syntax unified
 543              	@ 139 "../ChibiOS_2.6.9/os/hal/platforms/STM32F4xx/adc_lld.c" 1
 544 00e4 83F31188 		msr     BASEPRI, r3
 545              	@ 0 "" 2
 546              		.thumb
 547              		.syntax unified
 548              	.LBE56:
 549 00e8 6069     		ldr	r0, [r4, #20]
 550 00ea 28B1     		cbz	r0, .L54
 551              	.LVL36:
 552              	.LBB57:
 553              		.loc 1 139 0 discriminator 6
 554 00ec 4FF0FF33 		mov	r3, #-1
 555 00f0 0362     		str	r3, [r0, #32]
 556 00f2 4A61     		str	r2, [r1, #20]
 557 00f4 FFF7FEFF 		bl	chSchReadyI
 558              	.LVL37:
 559              	.L54:
 560              	.LBE57:
 561              	.LBB58:
 562              		.loc 1 139 0 discriminator 8
 563 00f8 0023     		movs	r3, #0
 564              		.syntax unified
 565              	@ 139 "../ChibiOS_2.6.9/os/hal/platforms/STM32F4xx/adc_lld.c" 1
 566 00fa 83F31188 		msr     BASEPRI, r3
 567              	@ 0 "" 2
 568              		.thumb
 569              		.syntax unified
 570              	.L49:
ARM GAS  /tmp/ccwbSnYJ.s 			page 11


 571              	.LBE58:
 572              		.loc 1 145 0 is_stmt 1
 573 00fe 254B     		ldr	r3, .L101+16
 574 0100 1A68     		ldr	r2, [r3]
 575              	.LVL38:
 576              		.loc 1 146 0
 577 0102 0021     		movs	r1, #0
 578 0104 1960     		str	r1, [r3]
 579              		.loc 1 149 0
 580 0106 9306     		lsls	r3, r2, #26
 581 0108 38D5     		bpl	.L55
 582              		.loc 1 149 0 is_stmt 0 discriminator 1
 583 010a 234C     		ldr	r4, .L101+20
 584 010c E16A     		ldr	r1, [r4, #44]
 585 010e 0A68     		ldr	r2, [r1]
 586              	.LVL39:
 587 0110 5368     		ldr	r3, [r2, #4]
 588 0112 002B     		cmp	r3, #0
 589 0114 32D0     		beq	.L55
 590              		.loc 1 152 0 is_stmt 1
 591 0116 2569     		ldr	r5, [r4, #16]
 592 0118 002D     		cmp	r5, #0
 593 011a 2FD0     		beq	.L55
 594              	.LVL40:
 595              	.LBB59:
 596              	.LBB60:
 597              		.loc 1 376 0
 598 011c 1368     		ldr	r3, [r2]
 599 011e 23F01F03 		bic	r3, r3, #31
 600 0122 1360     		str	r3, [r2]
 601              	.L56:
 602 0124 1368     		ldr	r3, [r2]
 603 0126 13F00103 		ands	r3, r3, #1
 604 012a FBD1     		bne	.L56
 605 012c 087A     		ldrb	r0, [r1, #8]	@ zero_extendqisi2
 606              	.LBE60:
 607              	.LBE59:
 608              		.loc 1 153 0
 609 012e AE68     		ldr	r6, [r5, #8]
 610              	.LBB62:
 611              	.LBB61:
 612              		.loc 1 376 0
 613 0130 4F68     		ldr	r7, [r1, #4]
 614              		.loc 1 377 0
 615 0132 A26A     		ldr	r2, [r4, #40]
 616 0134 184D     		ldr	r5, .L101+20
 617              		.loc 1 376 0
 618 0136 3D21     		movs	r1, #61
 619 0138 01FA00F0 		lsl	r0, r1, r0
 620              		.loc 1 379 0
 621 013c 0121     		movs	r1, #1
 622              		.loc 1 376 0
 623 013e 3860     		str	r0, [r7]
 624              		.loc 1 377 0
 625 0140 5360     		str	r3, [r2, #4]
 626              		.loc 1 378 0
 627 0142 9360     		str	r3, [r2, #8]
ARM GAS  /tmp/ccwbSnYJ.s 			page 12


 628              		.loc 1 379 0
 629 0144 9160     		str	r1, [r2, #8]
 630              	.LVL41:
 631              	.LBE61:
 632              	.LBE62:
 633              		.loc 1 153 0
 634 0146 46B1     		cbz	r6, .L58
 635              		.loc 1 153 0 is_stmt 0 discriminator 1
 636 0148 0523     		movs	r3, #5
 637 014a 2B70     		strb	r3, [r5]
 638 014c 2846     		mov	r0, r5
 639 014e B047     		blx	r6
 640              	.LVL42:
 641 0150 2B78     		ldrb	r3, [r5]	@ zero_extendqisi2
 642 0152 052B     		cmp	r3, #5
 643 0154 04BF     		itt	eq
 644 0156 0223     		moveq	r3, #2
 645 0158 2B70     		strbeq	r3, [r5]
 646              	.L58:
 647              		.loc 1 153 0 discriminator 5
 648 015a 0022     		movs	r2, #0
 649 015c 2261     		str	r2, [r4, #16]
 650 015e 0E49     		ldr	r1, .L101+20
 651              	.LBB63:
 652 0160 2023     		movs	r3, #32
 653              		.syntax unified
 654              	@ 153 "../ChibiOS_2.6.9/os/hal/platforms/STM32F4xx/adc_lld.c" 1
 655 0162 83F31188 		msr     BASEPRI, r3
 656              	@ 0 "" 2
 657              		.thumb
 658              		.syntax unified
 659              	.LBE63:
 660 0166 6069     		ldr	r0, [r4, #20]
 661 0168 28B1     		cbz	r0, .L60
 662              	.LVL43:
 663              	.LBB64:
 664              		.loc 1 153 0 discriminator 6
 665 016a 4FF0FF33 		mov	r3, #-1
 666 016e 0362     		str	r3, [r0, #32]
 667 0170 4A61     		str	r2, [r1, #20]
 668 0172 FFF7FEFF 		bl	chSchReadyI
 669              	.LVL44:
 670              	.L60:
 671              	.LBE64:
 672              	.LBB65:
 673              		.loc 1 153 0 discriminator 8
 674 0176 0023     		movs	r3, #0
 675              		.syntax unified
 676              	@ 153 "../ChibiOS_2.6.9/os/hal/platforms/STM32F4xx/adc_lld.c" 1
 677 0178 83F31188 		msr     BASEPRI, r3
 678              	@ 0 "" 2
 679              		.thumb
 680              		.syntax unified
 681              	.L55:
 682              	.LBE65:
 683              		.loc 1 159 0 is_stmt 1
 684 017c BDE8F840 		pop	{r3, r4, r5, r6, r7, lr}
ARM GAS  /tmp/ccwbSnYJ.s 			page 13


 685              		.cfi_restore 14
 686              		.cfi_restore 7
 687              		.cfi_restore 6
 688              		.cfi_restore 5
 689              		.cfi_restore 4
 690              		.cfi_restore 3
 691              		.cfi_def_cfa_offset 0
 692              		.loc 1 158 0
 693 0180 FFF7FEBF 		b	_port_irq_epilogue
 694              	.LVL45:
 695              	.L102:
 696              		.align	2
 697              	.L101:
 698 0184 00200140 		.word	1073815552
 699 0188 00000000 		.word	.LANCHOR0
 700 018c 00210140 		.word	1073815808
 701 0190 00000000 		.word	.LANCHOR1
 702 0194 00220140 		.word	1073816064
 703 0198 00000000 		.word	.LANCHOR2
 704              		.cfi_endproc
 705              	.LFE119:
 706              		.size	Vector88, .-Vector88
 707              		.section	.text.adc_lld_init,"ax",%progbits
 708              		.align	2
 709              		.p2align 4,,15
 710              		.global	adc_lld_init
 711              		.thumb
 712              		.thumb_func
 713              		.type	adc_lld_init, %function
 714              	adc_lld_init:
 715              	.LFB120:
 716              		.loc 1 171 0
 717              		.cfi_startproc
 718              		@ args = 0, pretend = 0, frame = 0
 719              		@ frame_needed = 0, uses_anonymous_args = 0
 720 0000 F8B5     		push	{r3, r4, r5, r6, r7, lr}
 721              		.cfi_def_cfa_offset 24
 722              		.cfi_offset 3, -24
 723              		.cfi_offset 4, -20
 724              		.cfi_offset 5, -16
 725              		.cfi_offset 6, -12
 726              		.cfi_offset 7, -8
 727              		.cfi_offset 14, -4
 728              		.loc 1 175 0
 729 0002 124F     		ldr	r7, .L105
 730              		.loc 1 188 0
 731 0004 124E     		ldr	r6, .L105+4
 732              		.loc 1 201 0
 733 0006 134D     		ldr	r5, .L105+8
 734              		.loc 1 177 0
 735 0008 134C     		ldr	r4, .L105+12
 736              		.loc 1 175 0
 737 000a 3846     		mov	r0, r7
 738 000c FFF7FEFF 		bl	adcObjectInit
 739              	.LVL46:
 740              		.loc 1 176 0
 741 0010 124A     		ldr	r2, .L105+16
ARM GAS  /tmp/ccwbSnYJ.s 			page 14


 742              		.loc 1 178 0
 743 0012 134B     		ldr	r3, .L105+20
 744              		.loc 1 176 0
 745 0014 BA62     		str	r2, [r7, #40]
 746              		.loc 1 188 0
 747 0016 3046     		mov	r0, r6
 748              		.loc 1 178 0
 749 0018 3B63     		str	r3, [r7, #48]
 750              		.loc 1 177 0
 751 001a FC62     		str	r4, [r7, #44]
 752              		.loc 1 188 0
 753 001c FFF7FEFF 		bl	adcObjectInit
 754              	.LVL47:
 755              		.loc 1 189 0
 756 0020 104A     		ldr	r2, .L105+24
 757              		.loc 1 191 0
 758 0022 114B     		ldr	r3, .L105+28
 759              		.loc 1 189 0
 760 0024 B262     		str	r2, [r6, #40]
 761              		.loc 1 201 0
 762 0026 2846     		mov	r0, r5
 763              		.loc 1 190 0
 764 0028 A4F11802 		sub	r2, r4, #24
 765 002c F262     		str	r2, [r6, #44]
 766              		.loc 1 191 0
 767 002e 3363     		str	r3, [r6, #48]
 768              		.loc 1 203 0
 769 0030 243C     		subs	r4, r4, #36
 770              		.loc 1 201 0
 771 0032 FFF7FEFF 		bl	adcObjectInit
 772              	.LVL48:
 773              		.loc 1 204 0
 774 0036 0D4B     		ldr	r3, .L105+32
 775              		.loc 1 202 0
 776 0038 0D4A     		ldr	r2, .L105+36
 777              		.loc 1 203 0
 778 003a EC62     		str	r4, [r5, #44]
 779              		.loc 1 202 0
 780 003c AA62     		str	r2, [r5, #40]
 781              		.loc 1 204 0
 782 003e 2B63     		str	r3, [r5, #48]
 783              		.loc 1 214 0
 784 0040 6021     		movs	r1, #96
 785 0042 1220     		movs	r0, #18
 786              		.loc 1 215 0
 787 0044 BDE8F840 		pop	{r3, r4, r5, r6, r7, lr}
 788              		.cfi_restore 14
 789              		.cfi_restore 7
 790              		.cfi_restore 6
 791              		.cfi_restore 5
 792              		.cfi_restore 4
 793              		.cfi_restore 3
 794              		.cfi_def_cfa_offset 0
 795              		.loc 1 214 0
 796 0048 FFF7FEBF 		b	nvicEnableVector
 797              	.LVL49:
 798              	.L106:
ARM GAS  /tmp/ccwbSnYJ.s 			page 15


 799              		.align	2
 800              	.L105:
 801 004c 00000000 		.word	.LANCHOR0
 802 0050 00000000 		.word	.LANCHOR1
 803 0054 00000000 		.word	.LANCHOR2
 804 0058 90000000 		.word	_stm32_dma_streams+144
 805 005c 00200140 		.word	1073815552
 806 0060 162C0200 		.word	142358
 807 0064 00210140 		.word	1073815808
 808 0068 162C0202 		.word	33696790
 809 006c 162C0204 		.word	67251222
 810 0070 00220140 		.word	1073816064
 811              		.cfi_endproc
 812              	.LFE120:
 813              		.size	adc_lld_init, .-adc_lld_init
 814              		.section	.text.adc_lld_start,"ax",%progbits
 815              		.align	2
 816              		.p2align 4,,15
 817              		.global	adc_lld_start
 818              		.thumb
 819              		.thumb_func
 820              		.type	adc_lld_start, %function
 821              	adc_lld_start:
 822              	.LFB121:
 823              		.loc 1 224 0
 824              		.cfi_startproc
 825              		@ args = 0, pretend = 0, frame = 0
 826              		@ frame_needed = 0, uses_anonymous_args = 0
 827              	.LVL50:
 828              		.loc 1 227 0
 829 0000 0378     		ldrb	r3, [r0]	@ zero_extendqisi2
 830 0002 012B     		cmp	r3, #1
 831 0004 00D0     		beq	.L114
 832 0006 7047     		bx	lr
 833              	.L114:
 834              		.loc 1 229 0
 835 0008 244B     		ldr	r3, .L118
 836 000a 9842     		cmp	r0, r3
 837              		.loc 1 224 0
 838 000c 10B5     		push	{r4, lr}
 839              		.cfi_def_cfa_offset 8
 840              		.cfi_offset 4, -8
 841              		.cfi_offset 14, -4
 842 000e 0446     		mov	r4, r0
 843              		.loc 1 229 0
 844 0010 13D0     		beq	.L115
 845              		.loc 1 242 0
 846 0012 234B     		ldr	r3, .L118+4
 847 0014 9842     		cmp	r0, r3
 848 0016 20D0     		beq	.L116
 849              		.loc 1 255 0
 850 0018 224B     		ldr	r3, .L118+8
 851 001a 9842     		cmp	r0, r3
 852 001c 2DD0     		beq	.L117
 853              	.LVL51:
 854              	.L110:
 855              		.loc 1 269 0
ARM GAS  /tmp/ccwbSnYJ.s 			page 16


 856 001e 2248     		ldr	r0, .L118+12
 857              		.loc 1 274 0
 858 0020 A26A     		ldr	r2, [r4, #40]
 859              		.loc 1 269 0
 860 0022 4368     		ldr	r3, [r0, #4]
 861 0024 03F44003 		and	r3, r3, #12582912
 862              		.loc 1 274 0
 863 0028 0021     		movs	r1, #0
 864              		.loc 1 269 0
 865 002a 43F48033 		orr	r3, r3, #65536
 866              		.loc 1 276 0
 867 002e 0124     		movs	r4, #1
 868              	.LVL52:
 869              		.loc 1 269 0
 870 0030 4360     		str	r3, [r0, #4]
 871              		.loc 1 274 0
 872 0032 5160     		str	r1, [r2, #4]
 873              		.loc 1 275 0
 874 0034 9160     		str	r1, [r2, #8]
 875              		.loc 1 276 0
 876 0036 9460     		str	r4, [r2, #8]
 877 0038 10BD     		pop	{r4, pc}
 878              	.LVL53:
 879              	.L115:
 880              	.LBB66:
 881              		.loc 1 231 0
 882 003a 0346     		mov	r3, r0
 883 003c 1B4A     		ldr	r2, .L118+16
 884 003e C06A     		ldr	r0, [r0, #44]
 885              	.LVL54:
 886 0040 0621     		movs	r1, #6
 887 0042 FFF7FEFF 		bl	dmaStreamAllocate
 888              	.LVL55:
 889              		.loc 1 236 0
 890 0046 E36A     		ldr	r3, [r4, #44]
 891              		.loc 1 237 0
 892 0048 194A     		ldr	r2, .L118+20
 893              		.loc 1 236 0
 894 004a 1B68     		ldr	r3, [r3]
 895 004c 1949     		ldr	r1, .L118+24
 896 004e 9960     		str	r1, [r3, #8]
 897              		.loc 1 237 0
 898 0050 536C     		ldr	r3, [r2, #68]
 899 0052 43F48073 		orr	r3, r3, #256
 900 0056 5364     		str	r3, [r2, #68]
 901 0058 E1E7     		b	.L110
 902              	.LVL56:
 903              	.L116:
 904              	.LBE66:
 905              	.LBB67:
 906              		.loc 1 244 0
 907 005a 0346     		mov	r3, r0
 908 005c 134A     		ldr	r2, .L118+16
 909 005e C06A     		ldr	r0, [r0, #44]
 910              	.LVL57:
 911 0060 0621     		movs	r1, #6
 912 0062 FFF7FEFF 		bl	dmaStreamAllocate
ARM GAS  /tmp/ccwbSnYJ.s 			page 17


 913              	.LVL58:
 914              		.loc 1 249 0
 915 0066 E36A     		ldr	r3, [r4, #44]
 916              		.loc 1 250 0
 917 0068 114A     		ldr	r2, .L118+20
 918              		.loc 1 249 0
 919 006a 1B68     		ldr	r3, [r3]
 920 006c 1249     		ldr	r1, .L118+28
 921 006e 9960     		str	r1, [r3, #8]
 922              		.loc 1 250 0
 923 0070 536C     		ldr	r3, [r2, #68]
 924 0072 43F40073 		orr	r3, r3, #512
 925 0076 5364     		str	r3, [r2, #68]
 926 0078 D1E7     		b	.L110
 927              	.LVL59:
 928              	.L117:
 929              	.LBE67:
 930              	.LBB68:
 931              		.loc 1 257 0
 932 007a 0346     		mov	r3, r0
 933 007c 0B4A     		ldr	r2, .L118+16
 934 007e C06A     		ldr	r0, [r0, #44]
 935              	.LVL60:
 936 0080 0621     		movs	r1, #6
 937 0082 FFF7FEFF 		bl	dmaStreamAllocate
 938              	.LVL61:
 939              		.loc 1 262 0
 940 0086 E36A     		ldr	r3, [r4, #44]
 941              		.loc 1 263 0
 942 0088 094A     		ldr	r2, .L118+20
 943              		.loc 1 262 0
 944 008a 1B68     		ldr	r3, [r3]
 945 008c 0B49     		ldr	r1, .L118+32
 946 008e 9960     		str	r1, [r3, #8]
 947              		.loc 1 263 0
 948 0090 536C     		ldr	r3, [r2, #68]
 949 0092 43F48063 		orr	r3, r3, #1024
 950 0096 5364     		str	r3, [r2, #68]
 951 0098 C1E7     		b	.L110
 952              	.L119:
 953 009a 00BF     		.align	2
 954              	.L118:
 955 009c 00000000 		.word	.LANCHOR0
 956 00a0 00000000 		.word	.LANCHOR1
 957 00a4 00000000 		.word	.LANCHOR2
 958 00a8 00230140 		.word	1073816320
 959 00ac 00000000 		.word	adc_lld_serve_rx_interrupt
 960 00b0 00380240 		.word	1073887232
 961 00b4 4C200140 		.word	1073815628
 962 00b8 4C210140 		.word	1073815884
 963 00bc 4C220140 		.word	1073816140
 964              	.LBE68:
 965              		.cfi_endproc
 966              	.LFE121:
 967              		.size	adc_lld_start, .-adc_lld_start
 968              		.section	.text.adc_lld_stop,"ax",%progbits
 969              		.align	2
ARM GAS  /tmp/ccwbSnYJ.s 			page 18


 970              		.p2align 4,,15
 971              		.global	adc_lld_stop
 972              		.thumb
 973              		.thumb_func
 974              		.type	adc_lld_stop, %function
 975              	adc_lld_stop:
 976              	.LFB122:
 977              		.loc 1 287 0
 978              		.cfi_startproc
 979              		@ args = 0, pretend = 0, frame = 0
 980              		@ frame_needed = 0, uses_anonymous_args = 0
 981              	.LVL62:
 982              		.loc 1 290 0
 983 0000 0378     		ldrb	r3, [r0]	@ zero_extendqisi2
 984 0002 022B     		cmp	r3, #2
 985 0004 00D0     		beq	.L128
 986 0006 7047     		bx	lr
 987              	.L128:
 988              		.loc 1 287 0
 989 0008 10B5     		push	{r4, lr}
 990              		.cfi_def_cfa_offset 8
 991              		.cfi_offset 4, -8
 992              		.cfi_offset 14, -4
 993 000a 0446     		mov	r4, r0
 994              		.loc 1 291 0
 995 000c C06A     		ldr	r0, [r0, #44]
 996              	.LVL63:
 997 000e FFF7FEFF 		bl	dmaStreamRelease
 998              	.LVL64:
 999              		.loc 1 296 0
 1000 0012 1049     		ldr	r1, .L132
 1001              		.loc 1 292 0
 1002 0014 A36A     		ldr	r3, [r4, #40]
 1003 0016 0022     		movs	r2, #0
 1004              		.loc 1 296 0
 1005 0018 8C42     		cmp	r4, r1
 1006              		.loc 1 292 0
 1007 001a 5A60     		str	r2, [r3, #4]
 1008              		.loc 1 293 0
 1009 001c 9A60     		str	r2, [r3, #8]
 1010              		.loc 1 296 0
 1011 001e 12D0     		beq	.L129
 1012              		.loc 1 301 0
 1013 0020 0D4B     		ldr	r3, .L132+4
 1014 0022 9C42     		cmp	r4, r3
 1015 0024 09D0     		beq	.L130
 1016              		.loc 1 306 0
 1017 0026 0D4B     		ldr	r3, .L132+8
 1018 0028 9C42     		cmp	r4, r3
 1019 002a 00D0     		beq	.L131
 1020              	.L120:
 1021 002c 10BD     		pop	{r4, pc}
 1022              	.LVL65:
 1023              	.L131:
 1024              		.loc 1 307 0
 1025 002e 0C4A     		ldr	r2, .L132+12
 1026 0030 536C     		ldr	r3, [r2, #68]
ARM GAS  /tmp/ccwbSnYJ.s 			page 19


 1027 0032 23F48063 		bic	r3, r3, #1024
 1028 0036 5364     		str	r3, [r2, #68]
 1029              		.loc 1 310 0
 1030 0038 F8E7     		b	.L120
 1031              	.L130:
 1032              		.loc 1 302 0
 1033 003a 094A     		ldr	r2, .L132+12
 1034 003c 536C     		ldr	r3, [r2, #68]
 1035 003e 23F40073 		bic	r3, r3, #512
 1036 0042 5364     		str	r3, [r2, #68]
 1037 0044 10BD     		pop	{r4, pc}
 1038              	.LVL66:
 1039              	.L129:
 1040              		.loc 1 297 0
 1041 0046 064A     		ldr	r2, .L132+12
 1042 0048 536C     		ldr	r3, [r2, #68]
 1043 004a 23F48073 		bic	r3, r3, #256
 1044 004e 5364     		str	r3, [r2, #68]
 1045 0050 10BD     		pop	{r4, pc}
 1046              	.LVL67:
 1047              	.L133:
 1048 0052 00BF     		.align	2
 1049              	.L132:
 1050 0054 00000000 		.word	.LANCHOR0
 1051 0058 00000000 		.word	.LANCHOR1
 1052 005c 00000000 		.word	.LANCHOR2
 1053 0060 00380240 		.word	1073887232
 1054              		.cfi_endproc
 1055              	.LFE122:
 1056              		.size	adc_lld_stop, .-adc_lld_stop
 1057              		.section	.text.adc_lld_start_conversion,"ax",%progbits
 1058              		.align	2
 1059              		.p2align 4,,15
 1060              		.global	adc_lld_start_conversion
 1061              		.thumb
 1062              		.thumb_func
 1063              		.type	adc_lld_start_conversion, %function
 1064              	adc_lld_start_conversion:
 1065              	.LFB123:
 1066              		.loc 1 319 0
 1067              		.cfi_startproc
 1068              		@ args = 0, pretend = 0, frame = 0
 1069              		@ frame_needed = 0, uses_anonymous_args = 0
 1070              	.LVL68:
 1071              		.loc 1 322 0
 1072 0000 0369     		ldr	r3, [r0, #16]
 1073              	.LVL69:
 1074              		.loc 1 325 0
 1075 0002 016B     		ldr	r1, [r0, #48]
 1076              	.LVL70:
 1077              		.loc 1 326 0
 1078 0004 1A78     		ldrb	r2, [r3]	@ zero_extendqisi2
 1079              		.loc 1 319 0
 1080 0006 F0B5     		push	{r4, r5, r6, r7, lr}
 1081              		.cfi_def_cfa_offset 20
 1082              		.cfi_offset 4, -20
 1083              		.cfi_offset 5, -16
ARM GAS  /tmp/ccwbSnYJ.s 			page 20


 1084              		.cfi_offset 6, -12
 1085              		.cfi_offset 7, -8
 1086              		.cfi_offset 14, -4
 1087              		.loc 1 326 0
 1088 0008 002A     		cmp	r2, #0
 1089 000a 2BD1     		bne	.L135
 1090 000c C268     		ldr	r2, [r0, #12]
 1091              	.L136:
 1092              		.loc 1 334 0
 1093 000e C56A     		ldr	r5, [r0, #44]
 1094              		.loc 1 335 0
 1095 0010 5C88     		ldrh	r4, [r3, #2]
 1096              		.loc 1 334 0
 1097 0012 2D68     		ldr	r5, [r5]
 1098 0014 8668     		ldr	r6, [r0, #8]
 1099 0016 EE60     		str	r6, [r5, #12]
 1100              		.loc 1 335 0
 1101 0018 02FB04F2 		mul	r2, r2, r4
 1102 001c 6A60     		str	r2, [r5, #4]
 1103              		.loc 1 349 0
 1104 001e DC68     		ldr	r4, [r3, #12]
 1105              		.loc 1 337 0
 1106 0020 2960     		str	r1, [r5]
 1107              		.loc 1 338 0
 1108 0022 2E68     		ldr	r6, [r5]
 1109              		.loc 1 341 0
 1110 0024 826A     		ldr	r2, [r0, #40]
 1111              		.loc 1 352 0
 1112 0026 1969     		ldr	r1, [r3, #16]
 1113              	.LVL71:
 1114              		.loc 1 342 0
 1115 0028 D3F814E0 		ldr	lr, [r3, #20]
 1116              		.loc 1 343 0
 1117 002c 9F69     		ldr	r7, [r3, #24]
 1118              		.loc 1 349 0
 1119 002e 44F08060 		orr	r0, r4, #67108864
 1120              	.LVL72:
 1121              		.loc 1 338 0
 1122 0032 46F00104 		orr	r4, r6, #1
 1123 0036 2C60     		str	r4, [r5]
 1124              	.LVL73:
 1125              		.loc 1 341 0
 1126 0038 0024     		movs	r4, #0
 1127              		.loc 1 344 0
 1128 003a DD69     		ldr	r5, [r3, #28]
 1129              		.loc 1 341 0
 1130 003c 1460     		str	r4, [r2]
 1131              		.loc 1 345 0
 1132 003e 1C6A     		ldr	r4, [r3, #32]
 1133              		.loc 1 346 0
 1134 0040 5B6A     		ldr	r3, [r3, #36]
 1135              	.LVL74:
 1136              		.loc 1 342 0
 1137 0042 C2F80CE0 		str	lr, [r2, #12]
 1138              		.loc 1 349 0
 1139 0046 40F48070 		orr	r0, r0, #256
 1140              		.loc 1 343 0
ARM GAS  /tmp/ccwbSnYJ.s 			page 21


 1141 004a 1761     		str	r7, [r2, #16]
 1142              		.loc 1 344 0
 1143 004c D562     		str	r5, [r2, #44]
 1144              		.loc 1 345 0
 1145 004e 1463     		str	r4, [r2, #48]
 1146              		.loc 1 346 0
 1147 0050 5363     		str	r3, [r2, #52]
 1148              		.loc 1 356 0
 1149 0052 4B00     		lsls	r3, r1, #1
 1150              		.loc 1 349 0
 1151 0054 5060     		str	r0, [r2, #4]
 1152              		.loc 1 356 0
 1153 0056 0DD4     		bmi	.L141
 1154              		.loc 1 352 0
 1155 0058 41F44071 		orr	r1, r1, #768
 1156              	.LVL75:
 1157 005c 41F00101 		orr	r1, r1, #1
 1158              		.loc 1 364 0
 1159 0060 9160     		str	r1, [r2, #8]
 1160              	.LVL76:
 1161 0062 F0BD     		pop	{r4, r5, r6, r7, pc}
 1162              	.LVL77:
 1163              	.L135:
 1164              		.loc 1 328 0
 1165 0064 C268     		ldr	r2, [r0, #12]
 1166 0066 012A     		cmp	r2, #1
 1167              		.loc 1 327 0
 1168 0068 94BF     		ite	ls
 1169 006a 41F48071 		orrls	r1, r1, #256
 1170              	.LVL78:
 1171              		.loc 1 331 0
 1172 006e 41F48471 		orrhi	r1, r1, #264
 1173              	.LVL79:
 1174 0072 CCE7     		b	.L136
 1175              	.LVL80:
 1176              	.L141:
 1177              		.loc 1 358 0
 1178 0074 21F08043 		bic	r3, r1, #1073741824
 1179 0078 23F00203 		bic	r3, r3, #2
 1180 007c 43F44073 		orr	r3, r3, #768
 1181              		.loc 1 361 0
 1182 0080 41F44071 		orr	r1, r1, #768
 1183              	.LVL81:
 1184              		.loc 1 358 0
 1185 0084 43F00303 		orr	r3, r3, #3
 1186              		.loc 1 361 0
 1187 0088 41F00301 		orr	r1, r1, #3
 1188              		.loc 1 358 0
 1189 008c 9360     		str	r3, [r2, #8]
 1190              		.loc 1 361 0
 1191 008e 9160     		str	r1, [r2, #8]
 1192              	.LVL82:
 1193 0090 F0BD     		pop	{r4, r5, r6, r7, pc}
 1194              		.cfi_endproc
 1195              	.LFE123:
 1196              		.size	adc_lld_start_conversion, .-adc_lld_start_conversion
 1197 0092 00BF     		.section	.text.adc_lld_stop_conversion,"ax",%progbits
ARM GAS  /tmp/ccwbSnYJ.s 			page 22


 1198              		.align	2
 1199              		.p2align 4,,15
 1200              		.global	adc_lld_stop_conversion
 1201              		.thumb
 1202              		.thumb_func
 1203              		.type	adc_lld_stop_conversion, %function
 1204              	adc_lld_stop_conversion:
 1205              	.LFB124:
 1206              		.loc 1 374 0
 1207              		.cfi_startproc
 1208              		@ args = 0, pretend = 0, frame = 0
 1209              		@ frame_needed = 0, uses_anonymous_args = 0
 1210              		@ link register save eliminated.
 1211              	.LVL83:
 1212 0000 30B4     		push	{r4, r5}
 1213              		.cfi_def_cfa_offset 8
 1214              		.cfi_offset 4, -8
 1215              		.cfi_offset 5, -4
 1216              		.loc 1 376 0
 1217 0002 C46A     		ldr	r4, [r0, #44]
 1218 0004 2268     		ldr	r2, [r4]
 1219 0006 1368     		ldr	r3, [r2]
 1220 0008 23F01F03 		bic	r3, r3, #31
 1221 000c 1360     		str	r3, [r2]
 1222              	.L143:
 1223              		.loc 1 376 0 is_stmt 0 discriminator 2
 1224 000e 1368     		ldr	r3, [r2]
 1225 0010 13F00103 		ands	r3, r3, #1
 1226 0014 FBD1     		bne	.L143
 1227              		.loc 1 376 0 discriminator 3
 1228 0016 257A     		ldrb	r5, [r4, #8]	@ zero_extendqisi2
 1229              		.loc 1 377 0 is_stmt 1 discriminator 3
 1230 0018 826A     		ldr	r2, [r0, #40]
 1231              		.loc 1 376 0 discriminator 3
 1232 001a 6468     		ldr	r4, [r4, #4]
 1233 001c 3D21     		movs	r1, #61
 1234 001e A940     		lsls	r1, r1, r5
 1235              		.loc 1 379 0 discriminator 3
 1236 0020 0120     		movs	r0, #1
 1237              	.LVL84:
 1238              		.loc 1 376 0 discriminator 3
 1239 0022 2160     		str	r1, [r4]
 1240              		.loc 1 377 0 discriminator 3
 1241 0024 5360     		str	r3, [r2, #4]
 1242              		.loc 1 380 0 discriminator 3
 1243 0026 30BC     		pop	{r4, r5}
 1244              		.cfi_restore 5
 1245              		.cfi_restore 4
 1246              		.cfi_def_cfa_offset 0
 1247              		.loc 1 378 0 discriminator 3
 1248 0028 9360     		str	r3, [r2, #8]
 1249              		.loc 1 379 0 discriminator 3
 1250 002a 9060     		str	r0, [r2, #8]
 1251              		.loc 1 380 0 discriminator 3
 1252 002c 7047     		bx	lr
 1253              		.cfi_endproc
 1254              	.LFE124:
ARM GAS  /tmp/ccwbSnYJ.s 			page 23


 1255              		.size	adc_lld_stop_conversion, .-adc_lld_stop_conversion
 1256 002e 00BF     		.section	.text.adcSTM32EnableTSVREFE,"ax",%progbits
 1257              		.align	2
 1258              		.p2align 4,,15
 1259              		.global	adcSTM32EnableTSVREFE
 1260              		.thumb
 1261              		.thumb_func
 1262              		.type	adcSTM32EnableTSVREFE, %function
 1263              	adcSTM32EnableTSVREFE:
 1264              	.LFB125:
 1265              		.loc 1 388 0
 1266              		.cfi_startproc
 1267              		@ args = 0, pretend = 0, frame = 0
 1268              		@ frame_needed = 0, uses_anonymous_args = 0
 1269              		@ link register save eliminated.
 1270              		.loc 1 390 0
 1271 0000 024A     		ldr	r2, .L147
 1272 0002 5368     		ldr	r3, [r2, #4]
 1273 0004 43F40003 		orr	r3, r3, #8388608
 1274 0008 5360     		str	r3, [r2, #4]
 1275 000a 7047     		bx	lr
 1276              	.L148:
 1277              		.align	2
 1278              	.L147:
 1279 000c 00230140 		.word	1073816320
 1280              		.cfi_endproc
 1281              	.LFE125:
 1282              		.size	adcSTM32EnableTSVREFE, .-adcSTM32EnableTSVREFE
 1283              		.section	.text.adcSTM32DisableTSVREFE,"ax",%progbits
 1284              		.align	2
 1285              		.p2align 4,,15
 1286              		.global	adcSTM32DisableTSVREFE
 1287              		.thumb
 1288              		.thumb_func
 1289              		.type	adcSTM32DisableTSVREFE, %function
 1290              	adcSTM32DisableTSVREFE:
 1291              	.LFB126:
 1292              		.loc 1 399 0
 1293              		.cfi_startproc
 1294              		@ args = 0, pretend = 0, frame = 0
 1295              		@ frame_needed = 0, uses_anonymous_args = 0
 1296              		@ link register save eliminated.
 1297              		.loc 1 401 0
 1298 0000 024A     		ldr	r2, .L150
 1299 0002 5368     		ldr	r3, [r2, #4]
 1300 0004 23F40003 		bic	r3, r3, #8388608
 1301 0008 5360     		str	r3, [r2, #4]
 1302 000a 7047     		bx	lr
 1303              	.L151:
 1304              		.align	2
 1305              	.L150:
 1306 000c 00230140 		.word	1073816320
 1307              		.cfi_endproc
 1308              	.LFE126:
 1309              		.size	adcSTM32DisableTSVREFE, .-adcSTM32DisableTSVREFE
 1310              		.section	.text.adcSTM32EnableVBATE,"ax",%progbits
 1311              		.align	2
ARM GAS  /tmp/ccwbSnYJ.s 			page 24


 1312              		.p2align 4,,15
 1313              		.global	adcSTM32EnableVBATE
 1314              		.thumb
 1315              		.thumb_func
 1316              		.type	adcSTM32EnableVBATE, %function
 1317              	adcSTM32EnableVBATE:
 1318              	.LFB127:
 1319              		.loc 1 410 0
 1320              		.cfi_startproc
 1321              		@ args = 0, pretend = 0, frame = 0
 1322              		@ frame_needed = 0, uses_anonymous_args = 0
 1323              		@ link register save eliminated.
 1324              		.loc 1 412 0
 1325 0000 024A     		ldr	r2, .L153
 1326 0002 5368     		ldr	r3, [r2, #4]
 1327 0004 43F48003 		orr	r3, r3, #4194304
 1328 0008 5360     		str	r3, [r2, #4]
 1329 000a 7047     		bx	lr
 1330              	.L154:
 1331              		.align	2
 1332              	.L153:
 1333 000c 00230140 		.word	1073816320
 1334              		.cfi_endproc
 1335              	.LFE127:
 1336              		.size	adcSTM32EnableVBATE, .-adcSTM32EnableVBATE
 1337              		.section	.text.adcSTM32DisableVBATE,"ax",%progbits
 1338              		.align	2
 1339              		.p2align 4,,15
 1340              		.global	adcSTM32DisableVBATE
 1341              		.thumb
 1342              		.thumb_func
 1343              		.type	adcSTM32DisableVBATE, %function
 1344              	adcSTM32DisableVBATE:
 1345              	.LFB128:
 1346              		.loc 1 421 0
 1347              		.cfi_startproc
 1348              		@ args = 0, pretend = 0, frame = 0
 1349              		@ frame_needed = 0, uses_anonymous_args = 0
 1350              		@ link register save eliminated.
 1351              		.loc 1 423 0
 1352 0000 024A     		ldr	r2, .L156
 1353 0002 5368     		ldr	r3, [r2, #4]
 1354 0004 23F48003 		bic	r3, r3, #4194304
 1355 0008 5360     		str	r3, [r2, #4]
 1356 000a 7047     		bx	lr
 1357              	.L157:
 1358              		.align	2
 1359              	.L156:
 1360 000c 00230140 		.word	1073816320
 1361              		.cfi_endproc
 1362              	.LFE128:
 1363              		.size	adcSTM32DisableVBATE, .-adcSTM32DisableVBATE
 1364              		.global	ADCD3
 1365              		.global	ADCD2
 1366              		.global	ADCD1
 1367              		.section	.bss.ADCD1,"aw",%nobits
 1368              		.align	2
ARM GAS  /tmp/ccwbSnYJ.s 			page 25


 1369              		.set	.LANCHOR0,. + 0
 1370              		.type	ADCD1, %object
 1371              		.size	ADCD1, 52
 1372              	ADCD1:
 1373 0000 00000000 		.space	52
 1373      00000000 
 1373      00000000 
 1373      00000000 
 1373      00000000 
 1374              		.section	.bss.ADCD2,"aw",%nobits
 1375              		.align	2
 1376              		.set	.LANCHOR1,. + 0
 1377              		.type	ADCD2, %object
 1378              		.size	ADCD2, 52
 1379              	ADCD2:
 1380 0000 00000000 		.space	52
 1380      00000000 
 1380      00000000 
 1380      00000000 
 1380      00000000 
 1381              		.section	.bss.ADCD3,"aw",%nobits
 1382              		.align	2
 1383              		.set	.LANCHOR2,. + 0
 1384              		.type	ADCD3, %object
 1385              		.size	ADCD3, 52
 1386              	ADCD3:
 1387 0000 00000000 		.space	52
 1387      00000000 
 1387      00000000 
 1387      00000000 
 1387      00000000 
 1388              		.text
 1389              	.Letext0:
 1390              		.file 2 "/usr/local/gcc-arm-none-eabi-5_4-2016q3/lib/gcc/arm-none-eabi/5.4.1/include/stddef.h"
 1391              		.file 3 "/usr/local/gcc-arm-none-eabi-5_4-2016q3/arm-none-eabi/include/machine/_default_types.h"
 1392              		.file 4 "/usr/local/gcc-arm-none-eabi-5_4-2016q3/arm-none-eabi/include/sys/_stdint.h"
 1393              		.file 5 "../ChibiOS_2.6.9/os/ports/GCC/ARMCMx/chtypes.h"
 1394              		.file 6 "../ChibiOS_2.6.9/os/kernel/include/chlists.h"
 1395              		.file 7 "../ChibiOS_2.6.9/os/kernel/include/chthreads.h"
 1396              		.file 8 "../ChibiOS_2.6.9/os/ports/GCC/ARMCMx/chcore_v7m.h"
 1397              		.file 9 "../ChibiOS_2.6.9/os/kernel/include/chmtx.h"
 1398              		.file 10 "../ChibiOS_2.6.9/os/hal/platforms/STM32F4xx/stm32f4xx.h"
 1399              		.file 11 "../ChibiOS_2.6.9/os/hal/platforms/STM32F4xx/stm32_dma.h"
 1400              		.file 12 "../ChibiOS_2.6.9/os/hal/include/adc.h"
 1401              		.file 13 "../ChibiOS_2.6.9/os/hal/platforms/STM32F4xx/adc_lld.h"
 1402              		.file 14 "../ChibiOS_2.6.9/os/ports/common/ARMCMx/CMSIS/include/core_cm4.h"
 1403              		.file 15 "../ChibiOS_2.6.9/os/kernel/include/chschd.h"
 1404              		.file 16 "../ChibiOS_2.6.9/os/ports/common/ARMCMx/nvic.h"