ARM GAS  /tmp/ccmHLWJl.s 			page 1


   1              		.syntax unified
   2              		.cpu cortex-m4
   3              		.fpu softvfp
   4              		.eabi_attribute 20, 1
   5              		.eabi_attribute 21, 1
   6              		.eabi_attribute 23, 3
   7              		.eabi_attribute 24, 1
   8              		.eabi_attribute 25, 1
   9              		.eabi_attribute 26, 1
  10              		.eabi_attribute 30, 2
  11              		.eabi_attribute 34, 1
  12              		.eabi_attribute 18, 4
  13              		.thumb
  14              		.syntax unified
  15              		.file	"adccfg.c"
  16              		.text
  17              	.Ltext0:
  18              		.cfi_sections	.debug_frame
  19              		.section	.text.adccallback,"ax",%progbits
  20              		.align	2
  21              		.p2align 4,,15
  22              		.thumb
  23              		.thumb_func
  24              		.type	adccallback, %function
  25              	adccallback:
  26              	.LFB118:
  27              		.file 1 "adccfg.c"
  28              		.loc 1 35 0
  29              		.cfi_startproc
  30              		@ args = 0, pretend = 0, frame = 0
  31              		@ frame_needed = 0, uses_anonymous_args = 0
  32              		@ link register save eliminated.
  33              	.LVL0:
  34              		.loc 1 52 0
  35 0000 0348     		ldr	r0, .L2
  36              	.LVL1:
  37              		.loc 1 53 0
  38 0002 044B     		ldr	r3, .L2+4
  39              		.loc 1 50 0
  40 0004 4A8F     		ldrh	r2, [r1, #58]
  41              	.LVL2:
  42              		.loc 1 52 0
  43 0006 098F     		ldrh	r1, [r1, #56]
  44              	.LVL3:
  45 0008 0160     		str	r1, [r0]
  46              	.LVL4:
  47              		.loc 1 53 0
  48 000a 1A60     		str	r2, [r3]
  49 000c 7047     		bx	lr
  50              	.L3:
  51 000e 00BF     		.align	2
  52              	.L2:
  53 0010 00000000 		.word	.LANCHOR0
  54 0014 00000000 		.word	.LANCHOR1
  55              		.cfi_endproc
  56              	.LFE118:
  57              		.size	adccallback, .-adccallback
ARM GAS  /tmp/ccmHLWJl.s 			page 2


  58              		.section	.text.adcerrorcallback,"ax",%progbits
  59              		.align	2
  60              		.p2align 4,,15
  61              		.thumb
  62              		.thumb_func
  63              		.type	adcerrorcallback, %function
  64              	adcerrorcallback:
  65              	.LFB119:
  66              		.loc 1 57 0
  67              		.cfi_startproc
  68              		@ args = 0, pretend = 0, frame = 0
  69              		@ frame_needed = 0, uses_anonymous_args = 0
  70              		@ link register save eliminated.
  71              	.LVL5:
  72 0000 7047     		bx	lr
  73              		.cfi_endproc
  74              	.LFE119:
  75              		.size	adcerrorcallback, .-adcerrorcallback
  76 0002 00BF     		.section	.text.myADCinit,"ax",%progbits
  77              		.align	2
  78              		.p2align 4,,15
  79              		.global	myADCinit
  80              		.thumb
  81              		.thumb_func
  82              		.type	myADCinit, %function
  83              	myADCinit:
  84              	.LFB120:
  85              		.loc 1 84 0
  86              		.cfi_startproc
  87              		@ args = 0, pretend = 0, frame = 0
  88              		@ frame_needed = 0, uses_anonymous_args = 0
  89              		.loc 1 84 0
  90 0000 10B5     		push	{r4, lr}
  91              		.cfi_def_cfa_offset 8
  92              		.cfi_offset 4, -8
  93              		.cfi_offset 14, -4
  94              		.loc 1 90 0
  95 0002 0B4C     		ldr	r4, .L7
  96              		.loc 1 86 0
  97 0004 0B48     		ldr	r0, .L7+4
  98 0006 0322     		movs	r2, #3
  99 0008 0621     		movs	r1, #6
 100 000a FFF7FEFF 		bl	_pal_lld_setgroupmode
 101              	.LVL6:
 102              		.loc 1 90 0
 103 000e 2046     		mov	r0, r4
 104 0010 0021     		movs	r1, #0
 105 0012 FFF7FEFF 		bl	adcStart
 106              	.LVL7:
 107              		.loc 1 95 0
 108 0016 2046     		mov	r0, r4
 109 0018 0A23     		movs	r3, #10
 110 001a 074A     		ldr	r2, .L7+8
 111 001c 0749     		ldr	r1, .L7+12
 112 001e FFF7FEFF 		bl	adcStartConversion
 113              	.LVL8:
 114              		.loc 1 96 0
ARM GAS  /tmp/ccmHLWJl.s 			page 3


 115 0022 4FF47A70 		mov	r0, #1000
 116              		.loc 1 98 0
 117 0026 BDE81040 		pop	{r4, lr}
 118              		.cfi_restore 14
 119              		.cfi_restore 4
 120              		.cfi_def_cfa_offset 0
 121              		.loc 1 96 0
 122 002a FFF7FEBF 		b	chThdSleep
 123              	.LVL9:
 124              	.L8:
 125 002e 00BF     		.align	2
 126              	.L7:
 127 0030 00000000 		.word	ADCD1
 128 0034 00080240 		.word	1073874944
 129 0038 00000000 		.word	.LANCHOR2
 130 003c 00000000 		.word	.LANCHOR3
 131              		.cfi_endproc
 132              	.LFE120:
 133              		.size	myADCinit, .-myADCinit
 134              		.global	dataY
 135              		.global	dataX
 136              		.section	.bss.dataX,"aw",%nobits
 137              		.align	2
 138              		.set	.LANCHOR0,. + 0
 139              		.type	dataX, %object
 140              		.size	dataX, 4
 141              	dataX:
 142 0000 00000000 		.space	4
 143              		.section	.bss.dataY,"aw",%nobits
 144              		.align	2
 145              		.set	.LANCHOR1,. + 0
 146              		.type	dataY, %object
 147              		.size	dataY, 4
 148              	dataY:
 149 0000 00000000 		.space	4
 150              		.section	.rodata.adcgrpcfg1,"a",%progbits
 151              		.align	2
 152              		.set	.LANCHOR3,. + 0
 153              		.type	adcgrpcfg1, %object
 154              		.size	adcgrpcfg1, 40
 155              	adcgrpcfg1:
 156 0000 01       		.byte	1
 157 0001 00       		.space	1
 158 0002 0600     		.short	6
 159 0004 00000000 		.word	adccallback
 160 0008 00000000 		.word	adcerrorcallback
 161 000c 00000000 		.word	0
 162 0010 00000040 		.word	1073741824
 163 0014 00000000 		.word	0
 164 0018 00000000 		.word	0
 165 001c 00005000 		.word	5242880
 166 0020 00000000 		.word	0
 167 0024 8B2DB618 		.word	414592395
 168              		.section	.bss.samples1,"aw",%nobits
 169              		.align	2
 170              		.set	.LANCHOR2,. + 0
 171              		.type	samples1, %object
ARM GAS  /tmp/ccmHLWJl.s 			page 4


 172              		.size	samples1, 120
 173              	samples1:
 174 0000 00000000 		.space	120
 174      00000000 
 174      00000000 
 174      00000000 
 174      00000000 
 175              		.text
 176              	.Letext0:
 177              		.file 2 "/usr/local/gcc-arm-none-eabi-5_4-2016q3/lib/gcc/arm-none-eabi/5.4.1/include/stddef.h"
 178              		.file 3 "/usr/local/gcc-arm-none-eabi-5_4-2016q3/arm-none-eabi/include/machine/_default_types.h"
 179              		.file 4 "/usr/local/gcc-arm-none-eabi-5_4-2016q3/arm-none-eabi/include/sys/_stdint.h"
 180              		.file 5 "../ChibiOS_2.6.9/os/ports/GCC/ARMCMx/chtypes.h"
 181              		.file 6 "../ChibiOS_2.6.9/os/kernel/include/chlists.h"
 182              		.file 7 "../ChibiOS_2.6.9/os/kernel/include/chthreads.h"
 183              		.file 8 "../ChibiOS_2.6.9/os/ports/GCC/ARMCMx/chcore_v7m.h"
 184              		.file 9 "../ChibiOS_2.6.9/os/kernel/include/chmtx.h"
 185              		.file 10 "../ChibiOS_2.6.9/os/hal/platforms/STM32F4xx/stm32f4xx.h"
 186              		.file 11 "../ChibiOS_2.6.9/os/hal/platforms/STM32F4xx/stm32_dma.h"
 187              		.file 12 "../ChibiOS_2.6.9/os/hal/platforms/STM32/GPIOv2/pal_lld.h"
 188              		.file 13 "../ChibiOS_2.6.9/os/hal/include/adc.h"
 189              		.file 14 "../ChibiOS_2.6.9/os/hal/platforms/STM32F4xx/adc_lld.h"
 190              		.file 15 "../ChibiOS_2.6.9/os/ports/common/ARMCMx/CMSIS/include/core_cm4.h"