ARM GAS  /tmp/cc6FJgvg.s 			page 1


   1              		.syntax unified
   2              		.cpu cortex-m4
   3              		.fpu softvfp
   4              		.eabi_attribute 20, 1
   5              		.eabi_attribute 21, 1
   6              		.eabi_attribute 23, 3
   7              		.eabi_attribute 24, 1
   8              		.eabi_attribute 25, 1
   9              		.eabi_attribute 26, 1
  10              		.eabi_attribute 30, 2
  11              		.eabi_attribute 34, 1
  12              		.eabi_attribute 18, 4
  13              		.thumb
  14              		.syntax unified
  15              		.file	"chcond.c"
  16              		.text
  17              	.Ltext0:
  18              		.cfi_sections	.debug_frame
  19              		.section	.text.chCondInit,"ax",%progbits
  20              		.align	2
  21              		.p2align 4,,15
  22              		.global	chCondInit
  23              		.thumb
  24              		.thumb_func
  25              		.type	chCondInit, %function
  26              	chCondInit:
  27              	.LFB7:
  28              		.file 1 "../ChibiOS_2.6.9/os/kernel/src/chcond.c"
  29              		.loc 1 59 0
  30              		.cfi_startproc
  31              		@ args = 0, pretend = 0, frame = 0
  32              		@ frame_needed = 0, uses_anonymous_args = 0
  33              		@ link register save eliminated.
  34              	.LVL0:
  35              		.loc 1 63 0
  36 0000 4060     		str	r0, [r0, #4]
  37 0002 0060     		str	r0, [r0]
  38 0004 7047     		bx	lr
  39              		.cfi_endproc
  40              	.LFE7:
  41              		.size	chCondInit, .-chCondInit
  42 0006 00BF     		.section	.text.chCondSignal,"ax",%progbits
  43              		.align	2
  44              		.p2align 4,,15
  45              		.global	chCondSignal
  46              		.thumb
  47              		.thumb_func
  48              		.type	chCondSignal, %function
  49              	chCondSignal:
  50              	.LFB8:
  51              		.loc 1 73 0
  52              		.cfi_startproc
  53              		@ args = 0, pretend = 0, frame = 0
  54              		@ frame_needed = 0, uses_anonymous_args = 0
  55              	.LVL1:
  56 0000 08B5     		push	{r3, lr}
  57              		.cfi_def_cfa_offset 8
ARM GAS  /tmp/cc6FJgvg.s 			page 2


  58              		.cfi_offset 3, -8
  59              		.cfi_offset 14, -4
  60              	.LBB20:
  61              		.loc 1 77 0
  62 0002 2023     		movs	r3, #32
  63              		.syntax unified
  64              	@ 77 "../ChibiOS_2.6.9/os/kernel/src/chcond.c" 1
  65 0004 83F31188 		msr     BASEPRI, r3
  66              	@ 0 "" 2
  67              		.thumb
  68              		.syntax unified
  69              	.LBE20:
  70              		.loc 1 78 0
  71 0008 0268     		ldr	r2, [r0]
  72 000a 8242     		cmp	r2, r0
  73 000c 07D0     		beq	.L3
  74              	.LBB21:
  75              	.LBB22:
  76              		.file 2 "../ChibiOS_2.6.9/os/kernel/include/chinline.h"
  77              		.loc 2 62 0
  78 000e 1168     		ldr	r1, [r2]
  79 0010 0160     		str	r1, [r0]
  80 0012 0346     		mov	r3, r0
  81              	.LVL2:
  82 0014 4B60     		str	r3, [r1, #4]
  83              	.LVL3:
  84              	.LBE22:
  85              	.LBE21:
  86              		.loc 1 79 0
  87 0016 1046     		mov	r0, r2
  88              	.LVL4:
  89 0018 0021     		movs	r1, #0
  90 001a FFF7FEFF 		bl	chSchWakeupS
  91              	.LVL5:
  92              	.L3:
  93              	.LBB23:
  94              		.loc 1 80 0
  95 001e 0023     		movs	r3, #0
  96              		.syntax unified
  97              	@ 80 "../ChibiOS_2.6.9/os/kernel/src/chcond.c" 1
  98 0020 83F31188 		msr     BASEPRI, r3
  99              	@ 0 "" 2
 100              		.thumb
 101              		.syntax unified
 102 0024 08BD     		pop	{r3, pc}
 103              	.LBE23:
 104              		.cfi_endproc
 105              	.LFE8:
 106              		.size	chCondSignal, .-chCondSignal
 107 0026 00BF     		.section	.text.chCondSignalI,"ax",%progbits
 108              		.align	2
 109              		.p2align 4,,15
 110              		.global	chCondSignalI
 111              		.thumb
 112              		.thumb_func
 113              		.type	chCondSignalI, %function
 114              	chCondSignalI:
ARM GAS  /tmp/cc6FJgvg.s 			page 3


 115              	.LFB9:
 116              		.loc 1 94 0
 117              		.cfi_startproc
 118              		@ args = 0, pretend = 0, frame = 0
 119              		@ frame_needed = 0, uses_anonymous_args = 0
 120              	.LVL6:
 121              		.loc 1 99 0
 122 0000 0268     		ldr	r2, [r0]
 123 0002 8242     		cmp	r2, r0
 124 0004 0AD0     		beq	.L9
 125              	.LBB24:
 126              	.LBB25:
 127              		.loc 2 62 0
 128 0006 1168     		ldr	r1, [r2]
 129              	.LBE25:
 130              	.LBE24:
 131              		.loc 1 94 0
 132 0008 08B5     		push	{r3, lr}
 133              		.cfi_def_cfa_offset 8
 134              		.cfi_offset 3, -8
 135              		.cfi_offset 14, -4
 136 000a 0346     		mov	r3, r0
 137              	.LVL7:
 138              	.LBB27:
 139              	.LBB26:
 140              		.loc 2 62 0
 141 000c 0160     		str	r1, [r0]
 142 000e 4B60     		str	r3, [r1, #4]
 143              	.LVL8:
 144              	.LBE26:
 145              	.LBE27:
 146              		.loc 1 100 0
 147 0010 1046     		mov	r0, r2
 148              	.LVL9:
 149 0012 FFF7FEFF 		bl	chSchReadyI
 150              	.LVL10:
 151 0016 0023     		movs	r3, #0
 152 0018 0362     		str	r3, [r0, #32]
 153 001a 08BD     		pop	{r3, pc}
 154              	.LVL11:
 155              	.L9:
 156              		.cfi_def_cfa_offset 0
 157              		.cfi_restore 3
 158              		.cfi_restore 14
 159 001c 7047     		bx	lr
 160              		.cfi_endproc
 161              	.LFE9:
 162              		.size	chCondSignalI, .-chCondSignalI
 163 001e 00BF     		.section	.text.chCondBroadcast,"ax",%progbits
 164              		.align	2
 165              		.p2align 4,,15
 166              		.global	chCondBroadcast
 167              		.thumb
 168              		.thumb_func
 169              		.type	chCondBroadcast, %function
 170              	chCondBroadcast:
 171              	.LFB10:
ARM GAS  /tmp/cc6FJgvg.s 			page 4


 172              		.loc 1 110 0
 173              		.cfi_startproc
 174              		@ args = 0, pretend = 0, frame = 0
 175              		@ frame_needed = 0, uses_anonymous_args = 0
 176              	.LVL12:
 177 0000 38B5     		push	{r3, r4, r5, lr}
 178              		.cfi_def_cfa_offset 16
 179              		.cfi_offset 3, -16
 180              		.cfi_offset 4, -12
 181              		.cfi_offset 5, -8
 182              		.cfi_offset 14, -4
 183              		.loc 1 110 0
 184 0002 0446     		mov	r4, r0
 185              	.LBB28:
 186              		.loc 1 112 0
 187 0004 2023     		movs	r3, #32
 188              		.syntax unified
 189              	@ 112 "../ChibiOS_2.6.9/os/kernel/src/chcond.c" 1
 190 0006 83F31188 		msr     BASEPRI, r3
 191              	@ 0 "" 2
 192              	.LVL13:
 193              		.thumb
 194              		.syntax unified
 195              	.LBE28:
 196              	.LBB29:
 197              	.LBB30:
 198              		.loc 1 137 0
 199 000a 0068     		ldr	r0, [r0]
 200              	.LVL14:
 201 000c A042     		cmp	r0, r4
 202              		.loc 1 138 0
 203 000e 18BF     		it	ne
 204 0010 6FF00105 		mvnne	r5, #1
 205              		.loc 1 137 0
 206 0014 08D0     		beq	.L13
 207              	.L12:
 208              	.LVL15:
 209              	.LBB31:
 210              	.LBB32:
 211              		.loc 2 62 0
 212 0016 0368     		ldr	r3, [r0]
 213 0018 2360     		str	r3, [r4]
 214 001a 5C60     		str	r4, [r3, #4]
 215              	.LVL16:
 216              	.LBE32:
 217              	.LBE31:
 218              		.loc 1 138 0
 219 001c FFF7FEFF 		bl	chSchReadyI
 220              	.LVL17:
 221 0020 0562     		str	r5, [r0, #32]
 222              		.loc 1 137 0
 223 0022 2068     		ldr	r0, [r4]
 224 0024 A042     		cmp	r0, r4
 225 0026 F6D1     		bne	.L12
 226              	.L13:
 227              	.LVL18:
 228              	.LBE30:
ARM GAS  /tmp/cc6FJgvg.s 			page 5


 229              	.LBE29:
 230              		.loc 1 114 0
 231 0028 FFF7FEFF 		bl	chSchRescheduleS
 232              	.LVL19:
 233              	.LBB33:
 234              		.loc 1 115 0
 235 002c 0023     		movs	r3, #0
 236              		.syntax unified
 237              	@ 115 "../ChibiOS_2.6.9/os/kernel/src/chcond.c" 1
 238 002e 83F31188 		msr     BASEPRI, r3
 239              	@ 0 "" 2
 240              		.thumb
 241              		.syntax unified
 242              	.LBE33:
 243              		.loc 1 116 0
 244 0032 38BD     		pop	{r3, r4, r5, pc}
 245              		.cfi_endproc
 246              	.LFE10:
 247              		.size	chCondBroadcast, .-chCondBroadcast
 248              		.section	.text.chCondBroadcastI,"ax",%progbits
 249              		.align	2
 250              		.p2align 4,,15
 251              		.global	chCondBroadcastI
 252              		.thumb
 253              		.thumb_func
 254              		.type	chCondBroadcastI, %function
 255              	chCondBroadcastI:
 256              	.LFB11:
 257              		.loc 1 129 0
 258              		.cfi_startproc
 259              		@ args = 0, pretend = 0, frame = 0
 260              		@ frame_needed = 0, uses_anonymous_args = 0
 261              	.LVL20:
 262 0000 38B5     		push	{r3, r4, r5, lr}
 263              		.cfi_def_cfa_offset 16
 264              		.cfi_offset 3, -16
 265              		.cfi_offset 4, -12
 266              		.cfi_offset 5, -8
 267              		.cfi_offset 14, -4
 268              		.loc 1 129 0
 269 0002 0446     		mov	r4, r0
 270              		.loc 1 137 0
 271 0004 0068     		ldr	r0, [r0]
 272              	.LVL21:
 273 0006 A042     		cmp	r0, r4
 274 0008 0AD0     		beq	.L17
 275              		.loc 1 138 0
 276 000a 6FF00105 		mvn	r5, #1
 277              	.L19:
 278              	.LVL22:
 279              	.LBB34:
 280              	.LBB35:
 281              		.loc 2 62 0
 282 000e 0368     		ldr	r3, [r0]
 283 0010 2360     		str	r3, [r4]
 284 0012 5C60     		str	r4, [r3, #4]
 285              	.LVL23:
ARM GAS  /tmp/cc6FJgvg.s 			page 6


 286              	.LBE35:
 287              	.LBE34:
 288              		.loc 1 138 0
 289 0014 FFF7FEFF 		bl	chSchReadyI
 290              	.LVL24:
 291 0018 0562     		str	r5, [r0, #32]
 292              		.loc 1 137 0
 293 001a 2068     		ldr	r0, [r4]
 294 001c A042     		cmp	r0, r4
 295 001e F6D1     		bne	.L19
 296              	.L17:
 297 0020 38BD     		pop	{r3, r4, r5, pc}
 298              		.cfi_endproc
 299              	.LFE11:
 300              		.size	chCondBroadcastI, .-chCondBroadcastI
 301 0022 00BF     		.section	.text.chCondWaitS,"ax",%progbits
 302              		.align	2
 303              		.p2align 4,,15
 304              		.global	chCondWaitS
 305              		.thumb
 306              		.thumb_func
 307              		.type	chCondWaitS, %function
 308              	chCondWaitS:
 309              	.LFB13:
 310              		.loc 1 184 0
 311              		.cfi_startproc
 312              		@ args = 0, pretend = 0, frame = 0
 313              		@ frame_needed = 0, uses_anonymous_args = 0
 314              	.LVL25:
 315              		.loc 1 185 0
 316 0000 0F4B     		ldr	r3, .L31
 317              		.loc 1 184 0
 318 0002 70B5     		push	{r4, r5, r6, lr}
 319              		.cfi_def_cfa_offset 16
 320              		.cfi_offset 4, -16
 321              		.cfi_offset 5, -12
 322              		.cfi_offset 6, -8
 323              		.cfi_offset 14, -4
 324              		.loc 1 185 0
 325 0004 9C69     		ldr	r4, [r3, #24]
 326              	.LVL26:
 327              		.loc 1 184 0
 328 0006 0546     		mov	r5, r0
 329              		.loc 1 195 0
 330 0008 FFF7FEFF 		bl	chMtxUnlockS
 331              	.LVL27:
 332              		.loc 1 196 0
 333 000c 2562     		str	r5, [r4, #32]
 334              		.loc 1 195 0
 335 000e 0646     		mov	r6, r0
 336              	.LVL28:
 337              	.LBB36:
 338              	.LBB37:
 339              		.loc 2 43 0
 340 0010 2B46     		mov	r3, r5
 341 0012 03E0     		b	.L25
 342              	.LVL29:
ARM GAS  /tmp/cc6FJgvg.s 			page 7


 343              	.L30:
 344              		.loc 2 46 0
 345 0014 9968     		ldr	r1, [r3, #8]
 346 0016 A268     		ldr	r2, [r4, #8]
 347 0018 9142     		cmp	r1, r2
 348 001a 02D3     		bcc	.L26
 349              	.L25:
 350              		.loc 2 45 0
 351 001c 1B68     		ldr	r3, [r3]
 352              	.LVL30:
 353              		.loc 2 46 0
 354 001e 9D42     		cmp	r5, r3
 355 0020 F8D1     		bne	.L30
 356              	.L26:
 357              		.loc 2 48 0
 358 0022 5A68     		ldr	r2, [r3, #4]
 359 0024 6260     		str	r2, [r4, #4]
 360              		.loc 2 47 0
 361 0026 2360     		str	r3, [r4]
 362              	.LBE37:
 363              	.LBE36:
 364              		.loc 1 198 0
 365 0028 0520     		movs	r0, #5
 366              	.LVL31:
 367              	.LBB39:
 368              	.LBB38:
 369              		.loc 2 49 0
 370 002a 5C60     		str	r4, [r3, #4]
 371 002c 1460     		str	r4, [r2]
 372              	.LVL32:
 373              	.LBE38:
 374              	.LBE39:
 375              		.loc 1 198 0
 376 002e FFF7FEFF 		bl	chSchGoSleepS
 377              	.LVL33:
 378              		.loc 1 199 0
 379 0032 246A     		ldr	r4, [r4, #32]
 380              	.LVL34:
 381              		.loc 1 200 0
 382 0034 3046     		mov	r0, r6
 383 0036 FFF7FEFF 		bl	chMtxLockS
 384              	.LVL35:
 385              		.loc 1 202 0
 386 003a 2046     		mov	r0, r4
 387 003c 70BD     		pop	{r4, r5, r6, pc}
 388              	.LVL36:
 389              	.L32:
 390 003e 00BF     		.align	2
 391              	.L31:
 392 0040 00000000 		.word	rlist
 393              		.cfi_endproc
 394              	.LFE13:
 395              		.size	chCondWaitS, .-chCondWaitS
 396              		.section	.text.chCondWait,"ax",%progbits
 397              		.align	2
 398              		.p2align 4,,15
 399              		.global	chCondWait
ARM GAS  /tmp/cc6FJgvg.s 			page 8


 400              		.thumb
 401              		.thumb_func
 402              		.type	chCondWait, %function
 403              	chCondWait:
 404              	.LFB12:
 405              		.loc 1 158 0
 406              		.cfi_startproc
 407              		@ args = 0, pretend = 0, frame = 0
 408              		@ frame_needed = 0, uses_anonymous_args = 0
 409              	.LVL37:
 410 0000 08B5     		push	{r3, lr}
 411              		.cfi_def_cfa_offset 8
 412              		.cfi_offset 3, -8
 413              		.cfi_offset 14, -4
 414              	.LBB40:
 415              		.loc 1 161 0
 416 0002 2023     		movs	r3, #32
 417              		.syntax unified
 418              	@ 161 "../ChibiOS_2.6.9/os/kernel/src/chcond.c" 1
 419 0004 83F31188 		msr     BASEPRI, r3
 420              	@ 0 "" 2
 421              		.thumb
 422              		.syntax unified
 423              	.LBE40:
 424              		.loc 1 162 0
 425 0008 FFF7FEFF 		bl	chCondWaitS
 426              	.LVL38:
 427              	.LBB41:
 428              		.loc 1 163 0
 429 000c 0023     		movs	r3, #0
 430              		.syntax unified
 431              	@ 163 "../ChibiOS_2.6.9/os/kernel/src/chcond.c" 1
 432 000e 83F31188 		msr     BASEPRI, r3
 433              	@ 0 "" 2
 434              		.thumb
 435              		.syntax unified
 436              	.LBE41:
 437              		.loc 1 165 0
 438 0012 08BD     		pop	{r3, pc}
 439              		.cfi_endproc
 440              	.LFE12:
 441              		.size	chCondWait, .-chCondWait
 442              		.section	.text.chCondWaitTimeoutS,"ax",%progbits
 443              		.align	2
 444              		.p2align 4,,15
 445              		.global	chCondWaitTimeoutS
 446              		.thumb
 447              		.thumb_func
 448              		.type	chCondWaitTimeoutS, %function
 449              	chCondWaitTimeoutS:
 450              	.LFB15:
 451              		.loc 1 270 0
 452              		.cfi_startproc
 453              		@ args = 0, pretend = 0, frame = 0
 454              		@ frame_needed = 0, uses_anonymous_args = 0
 455              	.LVL39:
 456 0000 F8B5     		push	{r3, r4, r5, r6, r7, lr}
ARM GAS  /tmp/cc6FJgvg.s 			page 9


 457              		.cfi_def_cfa_offset 24
 458              		.cfi_offset 3, -24
 459              		.cfi_offset 4, -20
 460              		.cfi_offset 5, -16
 461              		.cfi_offset 6, -12
 462              		.cfi_offset 7, -8
 463              		.cfi_offset 14, -4
 464              		.loc 1 270 0
 465 0002 0546     		mov	r5, r0
 466 0004 0F46     		mov	r7, r1
 467              		.loc 1 280 0
 468 0006 FFF7FEFF 		bl	chMtxUnlockS
 469              	.LVL40:
 470              		.loc 1 281 0
 471 000a 0F4B     		ldr	r3, .L43
 472 000c 9C69     		ldr	r4, [r3, #24]
 473              		.loc 1 280 0
 474 000e 0646     		mov	r6, r0
 475              	.LVL41:
 476              	.LBB42:
 477              	.LBB43:
 478              		.loc 2 43 0
 479 0010 2B46     		mov	r3, r5
 480              	.LBE43:
 481              	.LBE42:
 482              		.loc 1 281 0
 483 0012 2562     		str	r5, [r4, #32]
 484              	.LVL42:
 485 0014 03E0     		b	.L39
 486              	.LVL43:
 487              	.L36:
 488              	.LBB47:
 489              	.LBB44:
 490              		.loc 2 46 0
 491 0016 9868     		ldr	r0, [r3, #8]
 492 0018 A268     		ldr	r2, [r4, #8]
 493 001a 9042     		cmp	r0, r2
 494 001c 02D3     		bcc	.L40
 495              	.L39:
 496              		.loc 2 45 0
 497 001e 1B68     		ldr	r3, [r3]
 498              	.LVL44:
 499              		.loc 2 46 0
 500 0020 9D42     		cmp	r5, r3
 501 0022 F8D1     		bne	.L36
 502              	.L40:
 503              		.loc 2 48 0
 504 0024 5A68     		ldr	r2, [r3, #4]
 505 0026 6260     		str	r2, [r4, #4]
 506              		.loc 2 47 0
 507 0028 2360     		str	r3, [r4]
 508              	.LBE44:
 509              	.LBE47:
 510              		.loc 1 283 0
 511 002a 3946     		mov	r1, r7
 512              	.LBB48:
 513              	.LBB45:
ARM GAS  /tmp/cc6FJgvg.s 			page 10


 514              		.loc 2 49 0
 515 002c 5C60     		str	r4, [r3, #4]
 516              	.LBE45:
 517              	.LBE48:
 518              		.loc 1 283 0
 519 002e 0520     		movs	r0, #5
 520              	.LBB49:
 521              	.LBB46:
 522              		.loc 2 49 0
 523 0030 1460     		str	r4, [r2]
 524              	.LVL45:
 525              	.LBE46:
 526              	.LBE49:
 527              		.loc 1 283 0
 528 0032 FFF7FEFF 		bl	chSchGoSleepTimeoutS
 529              	.LVL46:
 530              		.loc 1 284 0
 531 0036 431C     		adds	r3, r0, #1
 532              		.loc 1 283 0
 533 0038 0446     		mov	r4, r0
 534              	.LVL47:
 535              		.loc 1 284 0
 536 003a 02D0     		beq	.L38
 537              		.loc 1 285 0
 538 003c 3046     		mov	r0, r6
 539              	.LVL48:
 540 003e FFF7FEFF 		bl	chMtxLockS
 541              	.LVL49:
 542              	.L38:
 543              		.loc 1 287 0
 544 0042 2046     		mov	r0, r4
 545 0044 F8BD     		pop	{r3, r4, r5, r6, r7, pc}
 546              	.LVL50:
 547              	.L44:
 548 0046 00BF     		.align	2
 549              	.L43:
 550 0048 00000000 		.word	rlist
 551              		.cfi_endproc
 552              	.LFE15:
 553              		.size	chCondWaitTimeoutS, .-chCondWaitTimeoutS
 554              		.section	.text.chCondWaitTimeout,"ax",%progbits
 555              		.align	2
 556              		.p2align 4,,15
 557              		.global	chCondWaitTimeout
 558              		.thumb
 559              		.thumb_func
 560              		.type	chCondWaitTimeout, %function
 561              	chCondWaitTimeout:
 562              	.LFB14:
 563              		.loc 1 233 0
 564              		.cfi_startproc
 565              		@ args = 0, pretend = 0, frame = 0
 566              		@ frame_needed = 0, uses_anonymous_args = 0
 567              	.LVL51:
 568 0000 08B5     		push	{r3, lr}
 569              		.cfi_def_cfa_offset 8
 570              		.cfi_offset 3, -8
ARM GAS  /tmp/cc6FJgvg.s 			page 11


 571              		.cfi_offset 14, -4
 572              	.LBB50:
 573              		.loc 1 236 0
 574 0002 2023     		movs	r3, #32
 575              		.syntax unified
 576              	@ 236 "../ChibiOS_2.6.9/os/kernel/src/chcond.c" 1
 577 0004 83F31188 		msr     BASEPRI, r3
 578              	@ 0 "" 2
 579              		.thumb
 580              		.syntax unified
 581              	.LBE50:
 582              		.loc 1 237 0
 583 0008 FFF7FEFF 		bl	chCondWaitTimeoutS
 584              	.LVL52:
 585              	.LBB51:
 586              		.loc 1 238 0
 587 000c 0023     		movs	r3, #0
 588              		.syntax unified
 589              	@ 238 "../ChibiOS_2.6.9/os/kernel/src/chcond.c" 1
 590 000e 83F31188 		msr     BASEPRI, r3
 591              	@ 0 "" 2
 592              		.thumb
 593              		.syntax unified
 594              	.LBE51:
 595              		.loc 1 240 0
 596 0012 08BD     		pop	{r3, pc}
 597              		.cfi_endproc
 598              	.LFE14:
 599              		.size	chCondWaitTimeout, .-chCondWaitTimeout
 600              		.text
 601              	.Letext0:
 602              		.file 3 "/usr/local/gcc-arm-none-eabi-5_4-2016q3/arm-none-eabi/include/machine/_default_types.h"
 603              		.file 4 "/usr/local/gcc-arm-none-eabi-5_4-2016q3/arm-none-eabi/include/sys/_stdint.h"
 604              		.file 5 "../ChibiOS_2.6.9/os/ports/GCC/ARMCMx/chtypes.h"
 605              		.file 6 "../ChibiOS_2.6.9/os/kernel/include/chlists.h"
 606              		.file 7 "../ChibiOS_2.6.9/os/kernel/include/chthreads.h"
 607              		.file 8 "../ChibiOS_2.6.9/os/ports/GCC/ARMCMx/chcore_v7m.h"
 608              		.file 9 "../ChibiOS_2.6.9/os/kernel/include/chschd.h"
 609              		.file 10 "../ChibiOS_2.6.9/os/kernel/include/chmtx.h"
 610              		.file 11 "../ChibiOS_2.6.9/os/kernel/include/chcond.h"