ARM GAS  /tmp/ccJwoBke.s 			page 1


   1              		.syntax unified
   2              		.cpu cortex-m4
   3              		.fpu softvfp
   4              		.eabi_attribute 20, 1
   5              		.eabi_attribute 21, 1
   6              		.eabi_attribute 23, 3
   7              		.eabi_attribute 24, 1
   8              		.eabi_attribute 25, 1
   9              		.eabi_attribute 26, 1
  10              		.eabi_attribute 30, 2
  11              		.eabi_attribute 34, 1
  12              		.eabi_attribute 18, 4
  13              		.thumb
  14              		.syntax unified
  15              		.file	"chevents.c"
  16              		.text
  17              	.Ltext0:
  18              		.cfi_sections	.debug_frame
  19              		.section	.text.chEvtRegisterMask,"ax",%progbits
  20              		.align	2
  21              		.p2align 4,,15
  22              		.global	chEvtRegisterMask
  23              		.thumb
  24              		.thumb_func
  25              		.type	chEvtRegisterMask, %function
  26              	chEvtRegisterMask:
  27              	.LFB7:
  28              		.file 1 "../ChibiOS_2.6.9/os/kernel/src/chevents.c"
  29              		.loc 1 85 0
  30              		.cfi_startproc
  31              		@ args = 0, pretend = 0, frame = 0
  32              		@ frame_needed = 0, uses_anonymous_args = 0
  33              		@ link register save eliminated.
  34              	.LVL0:
  35 0000 30B4     		push	{r4, r5}
  36              		.cfi_def_cfa_offset 8
  37              		.cfi_offset 4, -8
  38              		.cfi_offset 5, -4
  39              	.LBB2:
  40              		.loc 1 89 0
  41 0002 2023     		movs	r3, #32
  42              		.syntax unified
  43              	@ 89 "../ChibiOS_2.6.9/os/kernel/src/chevents.c" 1
  44 0004 83F31188 		msr     BASEPRI, r3
  45              	@ 0 "" 2
  46              		.thumb
  47              		.syntax unified
  48              	.LBE2:
  49              		.loc 1 92 0
  50 0008 064C     		ldr	r4, .L3
  51              		.loc 1 90 0
  52 000a 0368     		ldr	r3, [r0]
  53              		.loc 1 92 0
  54 000c A569     		ldr	r5, [r4, #24]
  55              		.loc 1 90 0
  56 000e 0B60     		str	r3, [r1]
  57              		.loc 1 94 0
ARM GAS  /tmp/ccJwoBke.s 			page 2


  58 0010 0024     		movs	r4, #0
  59              		.loc 1 91 0
  60 0012 0160     		str	r1, [r0]
  61              	.LBB3:
  62              		.loc 1 95 0
  63 0014 2346     		mov	r3, r4
  64              	.LBE3:
  65              		.loc 1 92 0
  66 0016 4D60     		str	r5, [r1, #4]
  67              		.loc 1 93 0
  68 0018 8A60     		str	r2, [r1, #8]
  69              		.loc 1 94 0
  70 001a CC60     		str	r4, [r1, #12]
  71              	.LBB4:
  72              		.loc 1 95 0
  73              		.syntax unified
  74              	@ 95 "../ChibiOS_2.6.9/os/kernel/src/chevents.c" 1
  75 001c 83F31188 		msr     BASEPRI, r3
  76              	@ 0 "" 2
  77              		.thumb
  78              		.syntax unified
  79              	.LBE4:
  80              		.loc 1 96 0
  81 0020 30BC     		pop	{r4, r5}
  82              		.cfi_restore 5
  83              		.cfi_restore 4
  84              		.cfi_def_cfa_offset 0
  85 0022 7047     		bx	lr
  86              	.L4:
  87              		.align	2
  88              	.L3:
  89 0024 00000000 		.word	rlist
  90              		.cfi_endproc
  91              	.LFE7:
  92              		.size	chEvtRegisterMask, .-chEvtRegisterMask
  93              		.section	.text.chEvtUnregister,"ax",%progbits
  94              		.align	2
  95              		.p2align 4,,15
  96              		.global	chEvtUnregister
  97              		.thumb
  98              		.thumb_func
  99              		.type	chEvtUnregister, %function
 100              	chEvtUnregister:
 101              	.LFB8:
 102              		.loc 1 111 0
 103              		.cfi_startproc
 104              		@ args = 0, pretend = 0, frame = 0
 105              		@ frame_needed = 0, uses_anonymous_args = 0
 106              		@ link register save eliminated.
 107              	.LVL1:
 108              	.LBB5:
 109              		.loc 1 117 0
 110 0000 2023     		movs	r3, #32
 111              		.syntax unified
 112              	@ 117 "../ChibiOS_2.6.9/os/kernel/src/chevents.c" 1
 113 0002 83F31188 		msr     BASEPRI, r3
 114              	@ 0 "" 2
ARM GAS  /tmp/ccJwoBke.s 			page 3


 115              		.thumb
 116              		.syntax unified
 117              	.LBE5:
 118              		.loc 1 116 0
 119 0006 0246     		mov	r2, r0
 120              		.loc 1 118 0
 121 0008 02E0     		b	.L6
 122              	.LVL2:
 123              	.L8:
 124              		.loc 1 119 0
 125 000a 9942     		cmp	r1, r3
 126 000c 07D0     		beq	.L11
 127 000e 1A46     		mov	r2, r3
 128              	.LVL3:
 129              	.L6:
 130              		.loc 1 118 0
 131 0010 1368     		ldr	r3, [r2]
 132 0012 9842     		cmp	r0, r3
 133 0014 F9D1     		bne	.L8
 134              	.LBB6:
 135              		.loc 1 125 0
 136 0016 0023     		movs	r3, #0
 137              		.syntax unified
 138              	@ 125 "../ChibiOS_2.6.9/os/kernel/src/chevents.c" 1
 139 0018 83F31188 		msr     BASEPRI, r3
 140              	@ 0 "" 2
 141              		.thumb
 142              		.syntax unified
 143 001c 7047     		bx	lr
 144              	.L11:
 145              	.LBE6:
 146              		.loc 1 120 0
 147 001e 0B68     		ldr	r3, [r1]
 148 0020 1360     		str	r3, [r2]
 149              	.LBB7:
 150              		.loc 1 125 0
 151 0022 0023     		movs	r3, #0
 152              		.syntax unified
 153              	@ 125 "../ChibiOS_2.6.9/os/kernel/src/chevents.c" 1
 154 0024 83F31188 		msr     BASEPRI, r3
 155              	@ 0 "" 2
 156              		.thumb
 157              		.syntax unified
 158 0028 7047     		bx	lr
 159              	.LBE7:
 160              		.cfi_endproc
 161              	.LFE8:
 162              		.size	chEvtUnregister, .-chEvtUnregister
 163 002a 00BF     		.section	.text.chEvtGetAndClearEvents,"ax",%progbits
 164              		.align	2
 165              		.p2align 4,,15
 166              		.global	chEvtGetAndClearEvents
 167              		.thumb
 168              		.thumb_func
 169              		.type	chEvtGetAndClearEvents, %function
 170              	chEvtGetAndClearEvents:
 171              	.LFB9:
ARM GAS  /tmp/ccJwoBke.s 			page 4


 172              		.loc 1 136 0
 173              		.cfi_startproc
 174              		@ args = 0, pretend = 0, frame = 0
 175              		@ frame_needed = 0, uses_anonymous_args = 0
 176              		@ link register save eliminated.
 177              	.LVL4:
 178              	.LBB8:
 179              		.loc 1 139 0
 180 0000 2023     		movs	r3, #32
 181              		.syntax unified
 182              	@ 139 "../ChibiOS_2.6.9/os/kernel/src/chevents.c" 1
 183 0002 83F31188 		msr     BASEPRI, r3
 184              	@ 0 "" 2
 185              		.thumb
 186              		.syntax unified
 187              	.LBE8:
 188              		.loc 1 141 0
 189 0006 054B     		ldr	r3, .L13
 190 0008 9B69     		ldr	r3, [r3, #24]
 191 000a 5A6B     		ldr	r2, [r3, #52]
 192              	.LVL5:
 193              		.loc 1 142 0
 194 000c 22EA0001 		bic	r1, r2, r0
 195 0010 5963     		str	r1, [r3, #52]
 196              	.LBB9:
 197              		.loc 1 144 0
 198 0012 0023     		movs	r3, #0
 199              		.syntax unified
 200              	@ 144 "../ChibiOS_2.6.9/os/kernel/src/chevents.c" 1
 201 0014 83F31188 		msr     BASEPRI, r3
 202              	@ 0 "" 2
 203              		.thumb
 204              		.syntax unified
 205              	.LBE9:
 206              		.loc 1 146 0
 207 0018 1040     		ands	r0, r0, r2
 208              	.LVL6:
 209 001a 7047     		bx	lr
 210              	.L14:
 211              		.align	2
 212              	.L13:
 213 001c 00000000 		.word	rlist
 214              		.cfi_endproc
 215              	.LFE9:
 216              		.size	chEvtGetAndClearEvents, .-chEvtGetAndClearEvents
 217              		.section	.text.chEvtAddEvents,"ax",%progbits
 218              		.align	2
 219              		.p2align 4,,15
 220              		.global	chEvtAddEvents
 221              		.thumb
 222              		.thumb_func
 223              		.type	chEvtAddEvents, %function
 224              	chEvtAddEvents:
 225              	.LFB10:
 226              		.loc 1 157 0
 227              		.cfi_startproc
 228              		@ args = 0, pretend = 0, frame = 0
ARM GAS  /tmp/ccJwoBke.s 			page 5


 229              		@ frame_needed = 0, uses_anonymous_args = 0
 230              		@ link register save eliminated.
 231              	.LVL7:
 232              	.LBB10:
 233              		.loc 1 159 0
 234 0000 2023     		movs	r3, #32
 235              		.syntax unified
 236              	@ 159 "../ChibiOS_2.6.9/os/kernel/src/chevents.c" 1
 237 0002 83F31188 		msr     BASEPRI, r3
 238              	@ 0 "" 2
 239              		.thumb
 240              		.syntax unified
 241              	.LBE10:
 242              		.loc 1 161 0
 243 0006 044B     		ldr	r3, .L16
 244 0008 9A69     		ldr	r2, [r3, #24]
 245 000a 536B     		ldr	r3, [r2, #52]
 246 000c 1843     		orrs	r0, r0, r3
 247              	.LVL8:
 248 000e 5063     		str	r0, [r2, #52]
 249              	.LVL9:
 250              	.LBB11:
 251              		.loc 1 163 0
 252 0010 0023     		movs	r3, #0
 253              		.syntax unified
 254              	@ 163 "../ChibiOS_2.6.9/os/kernel/src/chevents.c" 1
 255 0012 83F31188 		msr     BASEPRI, r3
 256              	@ 0 "" 2
 257              		.thumb
 258              		.syntax unified
 259              	.LBE11:
 260              		.loc 1 165 0
 261 0016 7047     		bx	lr
 262              	.L17:
 263              		.align	2
 264              	.L16:
 265 0018 00000000 		.word	rlist
 266              		.cfi_endproc
 267              	.LFE10:
 268              		.size	chEvtAddEvents, .-chEvtAddEvents
 269              		.section	.text.chEvtGetAndClearFlags,"ax",%progbits
 270              		.align	2
 271              		.p2align 4,,15
 272              		.global	chEvtGetAndClearFlags
 273              		.thumb
 274              		.thumb_func
 275              		.type	chEvtGetAndClearFlags, %function
 276              	chEvtGetAndClearFlags:
 277              	.LFB12:
 278              		.loc 1 209 0
 279              		.cfi_startproc
 280              		@ args = 0, pretend = 0, frame = 0
 281              		@ frame_needed = 0, uses_anonymous_args = 0
 282              		@ link register save eliminated.
 283              	.LVL10:
 284              		.loc 1 209 0
 285 0000 0246     		mov	r2, r0
ARM GAS  /tmp/ccJwoBke.s 			page 6


 286              	.LBB12:
 287              		.loc 1 212 0
 288 0002 2023     		movs	r3, #32
 289              		.syntax unified
 290              	@ 212 "../ChibiOS_2.6.9/os/kernel/src/chevents.c" 1
 291 0004 83F31188 		msr     BASEPRI, r3
 292              	@ 0 "" 2
 293              		.thumb
 294              		.syntax unified
 295              	.LBE12:
 296              		.loc 1 215 0
 297 0008 0023     		movs	r3, #0
 298              		.loc 1 214 0
 299 000a C068     		ldr	r0, [r0, #12]
 300              	.LVL11:
 301              		.loc 1 215 0
 302 000c D360     		str	r3, [r2, #12]
 303              	.LBB13:
 304              		.loc 1 217 0
 305              		.syntax unified
 306              	@ 217 "../ChibiOS_2.6.9/os/kernel/src/chevents.c" 1
 307 000e 83F31188 		msr     BASEPRI, r3
 308              	@ 0 "" 2
 309              		.thumb
 310              		.syntax unified
 311              	.LBE13:
 312              		.loc 1 219 0
 313 0012 7047     		bx	lr
 314              		.cfi_endproc
 315              	.LFE12:
 316              		.size	chEvtGetAndClearFlags, .-chEvtGetAndClearFlags
 317              		.section	.text.chEvtSignalI,"ax",%progbits
 318              		.align	2
 319              		.p2align 4,,15
 320              		.global	chEvtSignalI
 321              		.thumb
 322              		.thumb_func
 323              		.type	chEvtSignalI, %function
 324              	chEvtSignalI:
 325              	.LFB14:
 326              		.loc 1 251 0
 327              		.cfi_startproc
 328              		@ args = 0, pretend = 0, frame = 0
 329              		@ frame_needed = 0, uses_anonymous_args = 0
 330              	.LVL12:
 331 0000 08B5     		push	{r3, lr}
 332              		.cfi_def_cfa_offset 8
 333              		.cfi_offset 3, -8
 334              		.cfi_offset 14, -4
 335              		.loc 1 256 0
 336 0002 436B     		ldr	r3, [r0, #52]
 337              		.loc 1 258 0
 338 0004 027F     		ldrb	r2, [r0, #28]	@ zero_extendqisi2
 339              		.loc 1 256 0
 340 0006 1943     		orrs	r1, r1, r3
 341              	.LVL13:
 342              		.loc 1 258 0
ARM GAS  /tmp/ccJwoBke.s 			page 7


 343 0008 082A     		cmp	r2, #8
 344              		.loc 1 256 0
 345 000a 4163     		str	r1, [r0, #52]
 346              		.loc 1 258 0
 347 000c 0AD0     		beq	.L24
 348              		.loc 1 259 0
 349 000e 092A     		cmp	r2, #9
 350 0010 00D0     		beq	.L25
 351              	.L19:
 352 0012 08BD     		pop	{r3, pc}
 353              	.L25:
 354              		.loc 1 261 0
 355 0014 036A     		ldr	r3, [r0, #32]
 356              		.loc 1 260 0
 357 0016 8B43     		bics	r3, r3, r1
 358 0018 FBD1     		bne	.L19
 359              	.L21:
 360              	.LVL14:
 361              	.LBB16:
 362              	.LBB17:
 363              		.loc 1 262 0
 364 001a FFF7FEFF 		bl	chSchReadyI
 365              	.LVL15:
 366 001e 0023     		movs	r3, #0
 367 0020 0362     		str	r3, [r0, #32]
 368 0022 08BD     		pop	{r3, pc}
 369              	.LVL16:
 370              	.L24:
 371              	.LBE17:
 372              	.LBE16:
 373              		.loc 1 258 0 discriminator 1
 374 0024 036A     		ldr	r3, [r0, #32]
 375 0026 1942     		tst	r1, r3
 376 0028 F7D1     		bne	.L21
 377 002a 08BD     		pop	{r3, pc}
 378              		.cfi_endproc
 379              	.LFE14:
 380              		.size	chEvtSignalI, .-chEvtSignalI
 381              		.section	.text.chEvtBroadcastFlagsI,"ax",%progbits
 382              		.align	2
 383              		.p2align 4,,15
 384              		.global	chEvtBroadcastFlagsI
 385              		.thumb
 386              		.thumb_func
 387              		.type	chEvtBroadcastFlagsI, %function
 388              	chEvtBroadcastFlagsI:
 389              	.LFB11:
 390              		.loc 1 184 0
 391              		.cfi_startproc
 392              		@ args = 0, pretend = 0, frame = 0
 393              		@ frame_needed = 0, uses_anonymous_args = 0
 394              	.LVL17:
 395 0000 70B5     		push	{r4, r5, r6, lr}
 396              		.cfi_def_cfa_offset 16
 397              		.cfi_offset 4, -16
 398              		.cfi_offset 5, -12
 399              		.cfi_offset 6, -8
ARM GAS  /tmp/ccJwoBke.s 			page 8


 400              		.cfi_offset 14, -4
 401              		.loc 1 190 0
 402 0002 0468     		ldr	r4, [r0]
 403              	.LVL18:
 404              		.loc 1 191 0
 405 0004 A042     		cmp	r0, r4
 406 0006 0AD0     		beq	.L26
 407 0008 0546     		mov	r5, r0
 408 000a 0E46     		mov	r6, r1
 409              	.LVL19:
 410              	.L28:
 411              		.loc 1 193 0
 412 000c 201D     		adds	r0, r4, #4
 413 000e 0BC8     		ldmia	r0, {r0, r1, r3}
 414              		.loc 1 192 0
 415 0010 3343     		orrs	r3, r3, r6
 416 0012 E360     		str	r3, [r4, #12]
 417              		.loc 1 193 0
 418 0014 FFF7FEFF 		bl	chEvtSignalI
 419              	.LVL20:
 420              		.loc 1 194 0
 421 0018 2468     		ldr	r4, [r4]
 422              	.LVL21:
 423              		.loc 1 191 0
 424 001a A542     		cmp	r5, r4
 425 001c F6D1     		bne	.L28
 426              	.LVL22:
 427              	.L26:
 428 001e 70BD     		pop	{r4, r5, r6, pc}
 429              		.cfi_endproc
 430              	.LFE11:
 431              		.size	chEvtBroadcastFlagsI, .-chEvtBroadcastFlagsI
 432              		.section	.text.chEvtSignal,"ax",%progbits
 433              		.align	2
 434              		.p2align 4,,15
 435              		.global	chEvtSignal
 436              		.thumb
 437              		.thumb_func
 438              		.type	chEvtSignal, %function
 439              	chEvtSignal:
 440              	.LFB13:
 441              		.loc 1 229 0
 442              		.cfi_startproc
 443              		@ args = 0, pretend = 0, frame = 0
 444              		@ frame_needed = 0, uses_anonymous_args = 0
 445              	.LVL23:
 446 0000 08B5     		push	{r3, lr}
 447              		.cfi_def_cfa_offset 8
 448              		.cfi_offset 3, -8
 449              		.cfi_offset 14, -4
 450              	.LBB18:
 451              		.loc 1 233 0
 452 0002 2023     		movs	r3, #32
 453              		.syntax unified
 454              	@ 233 "../ChibiOS_2.6.9/os/kernel/src/chevents.c" 1
 455 0004 83F31188 		msr     BASEPRI, r3
 456              	@ 0 "" 2
ARM GAS  /tmp/ccJwoBke.s 			page 9


 457              		.thumb
 458              		.syntax unified
 459              	.LBE18:
 460              		.loc 1 234 0
 461 0008 FFF7FEFF 		bl	chEvtSignalI
 462              	.LVL24:
 463              		.loc 1 235 0
 464 000c FFF7FEFF 		bl	chSchRescheduleS
 465              	.LVL25:
 466              	.LBB19:
 467              		.loc 1 236 0
 468 0010 0023     		movs	r3, #0
 469              		.syntax unified
 470              	@ 236 "../ChibiOS_2.6.9/os/kernel/src/chevents.c" 1
 471 0012 83F31188 		msr     BASEPRI, r3
 472              	@ 0 "" 2
 473              		.thumb
 474              		.syntax unified
 475 0016 08BD     		pop	{r3, pc}
 476              	.LBE19:
 477              		.cfi_endproc
 478              	.LFE13:
 479              		.size	chEvtSignal, .-chEvtSignal
 480              		.section	.text.chEvtBroadcastFlags,"ax",%progbits
 481              		.align	2
 482              		.p2align 4,,15
 483              		.global	chEvtBroadcastFlags
 484              		.thumb
 485              		.thumb_func
 486              		.type	chEvtBroadcastFlags, %function
 487              	chEvtBroadcastFlags:
 488              	.LFB15:
 489              		.loc 1 278 0
 490              		.cfi_startproc
 491              		@ args = 0, pretend = 0, frame = 0
 492              		@ frame_needed = 0, uses_anonymous_args = 0
 493              	.LVL26:
 494 0000 08B5     		push	{r3, lr}
 495              		.cfi_def_cfa_offset 8
 496              		.cfi_offset 3, -8
 497              		.cfi_offset 14, -4
 498              	.LBB20:
 499              		.loc 1 280 0
 500 0002 2023     		movs	r3, #32
 501              		.syntax unified
 502              	@ 280 "../ChibiOS_2.6.9/os/kernel/src/chevents.c" 1
 503 0004 83F31188 		msr     BASEPRI, r3
 504              	@ 0 "" 2
 505              		.thumb
 506              		.syntax unified
 507              	.LBE20:
 508              		.loc 1 281 0
 509 0008 FFF7FEFF 		bl	chEvtBroadcastFlagsI
 510              	.LVL27:
 511              		.loc 1 282 0
 512 000c FFF7FEFF 		bl	chSchRescheduleS
 513              	.LVL28:
ARM GAS  /tmp/ccJwoBke.s 			page 10


 514              	.LBB21:
 515              		.loc 1 283 0
 516 0010 0023     		movs	r3, #0
 517              		.syntax unified
 518              	@ 283 "../ChibiOS_2.6.9/os/kernel/src/chevents.c" 1
 519 0012 83F31188 		msr     BASEPRI, r3
 520              	@ 0 "" 2
 521              		.thumb
 522              		.syntax unified
 523 0016 08BD     		pop	{r3, pc}
 524              	.LBE21:
 525              		.cfi_endproc
 526              	.LFE15:
 527              		.size	chEvtBroadcastFlags, .-chEvtBroadcastFlags
 528              		.section	.text.chEvtGetAndClearFlagsI,"ax",%progbits
 529              		.align	2
 530              		.p2align 4,,15
 531              		.global	chEvtGetAndClearFlagsI
 532              		.thumb
 533              		.thumb_func
 534              		.type	chEvtGetAndClearFlagsI, %function
 535              	chEvtGetAndClearFlagsI:
 536              	.LFB16:
 537              		.loc 1 297 0
 538              		.cfi_startproc
 539              		@ args = 0, pretend = 0, frame = 0
 540              		@ frame_needed = 0, uses_anonymous_args = 0
 541              		@ link register save eliminated.
 542              	.LVL29:
 543              		.loc 1 297 0
 544 0000 0346     		mov	r3, r0
 545              		.loc 1 301 0
 546 0002 0022     		movs	r2, #0
 547              		.loc 1 300 0
 548 0004 C068     		ldr	r0, [r0, #12]
 549              	.LVL30:
 550              		.loc 1 301 0
 551 0006 DA60     		str	r2, [r3, #12]
 552              		.loc 1 304 0
 553 0008 7047     		bx	lr
 554              		.cfi_endproc
 555              	.LFE16:
 556              		.size	chEvtGetAndClearFlagsI, .-chEvtGetAndClearFlagsI
 557 000a 00BF     		.section	.text.chEvtDispatch,"ax",%progbits
 558              		.align	2
 559              		.p2align 4,,15
 560              		.global	chEvtDispatch
 561              		.thumb
 562              		.thumb_func
 563              		.type	chEvtDispatch, %function
 564              	chEvtDispatch:
 565              	.LFB17:
 566              		.loc 1 315 0
 567              		.cfi_startproc
 568              		@ args = 0, pretend = 0, frame = 0
 569              		@ frame_needed = 0, uses_anonymous_args = 0
 570              	.LVL31:
ARM GAS  /tmp/ccJwoBke.s 			page 11


 571              		.loc 1 321 0
 572 0000 B9B1     		cbz	r1, .L46
 573              		.loc 1 315 0
 574 0002 F8B5     		push	{r3, r4, r5, r6, r7, lr}
 575              		.cfi_def_cfa_offset 24
 576              		.cfi_offset 3, -24
 577              		.cfi_offset 4, -20
 578              		.cfi_offset 5, -16
 579              		.cfi_offset 6, -12
 580              		.cfi_offset 7, -8
 581              		.cfi_offset 14, -4
 582 0004 0746     		mov	r7, r0
 583 0006 0D46     		mov	r5, r1
 584              		.loc 1 321 0
 585 0008 0024     		movs	r4, #0
 586              		.loc 1 322 0
 587 000a 0126     		movs	r6, #1
 588              	.LVL32:
 589              	.L39:
 590 000c 06FA04F3 		lsl	r3, r6, r4
 591 0010 2B42     		tst	r3, r5
 592 0012 04D1     		bne	.L47
 593              	.L40:
 594              		.loc 1 329 0
 595 0014 0134     		adds	r4, r4, #1
 596              	.LVL33:
 597              		.loc 1 322 0
 598 0016 06FA04F3 		lsl	r3, r6, r4
 599 001a 2B42     		tst	r3, r5
 600 001c FAD0     		beq	.L40
 601              	.L47:
 602              		.loc 1 327 0
 603 001e 2046     		mov	r0, r4
 604              		.loc 1 326 0
 605 0020 25EA0305 		bic	r5, r5, r3
 606              	.LVL34:
 607              		.loc 1 327 0
 608 0024 57F82430 		ldr	r3, [r7, r4, lsl #2]
 609 0028 9847     		blx	r3
 610              	.LVL35:
 611              		.loc 1 329 0
 612 002a 0134     		adds	r4, r4, #1
 613              	.LVL36:
 614              		.loc 1 321 0
 615 002c 002D     		cmp	r5, #0
 616 002e EDD1     		bne	.L39
 617 0030 F8BD     		pop	{r3, r4, r5, r6, r7, pc}
 618              	.LVL37:
 619              	.L46:
 620              		.cfi_def_cfa_offset 0
 621              		.cfi_restore 3
 622              		.cfi_restore 4
 623              		.cfi_restore 5
 624              		.cfi_restore 6
 625              		.cfi_restore 7
 626              		.cfi_restore 14
 627 0032 7047     		bx	lr
ARM GAS  /tmp/ccJwoBke.s 			page 12


 628              		.cfi_endproc
 629              	.LFE17:
 630              		.size	chEvtDispatch, .-chEvtDispatch
 631              		.section	.text.chEvtWaitOne,"ax",%progbits
 632              		.align	2
 633              		.p2align 4,,15
 634              		.global	chEvtWaitOne
 635              		.thumb
 636              		.thumb_func
 637              		.type	chEvtWaitOne, %function
 638              	chEvtWaitOne:
 639              	.LFB18:
 640              		.loc 1 350 0
 641              		.cfi_startproc
 642              		@ args = 0, pretend = 0, frame = 0
 643              		@ frame_needed = 0, uses_anonymous_args = 0
 644              	.LVL38:
 645 0000 38B5     		push	{r3, r4, r5, lr}
 646              		.cfi_def_cfa_offset 16
 647              		.cfi_offset 3, -16
 648              		.cfi_offset 4, -12
 649              		.cfi_offset 5, -8
 650              		.cfi_offset 14, -4
 651              		.loc 1 351 0
 652 0002 0D4B     		ldr	r3, .L51
 653 0004 9D69     		ldr	r5, [r3, #24]
 654              	.LVL39:
 655              	.LBB22:
 656              		.loc 1 354 0
 657 0006 2023     		movs	r3, #32
 658              		.syntax unified
 659              	@ 354 "../ChibiOS_2.6.9/os/kernel/src/chevents.c" 1
 660 0008 83F31188 		msr     BASEPRI, r3
 661              	@ 0 "" 2
 662              		.thumb
 663              		.syntax unified
 664              	.LBE22:
 665              		.loc 1 356 0
 666 000c 6B6B     		ldr	r3, [r5, #52]
 667              	.LVL40:
 668 000e 13EA0004 		ands	r4, r3, r0
 669              	.LVL41:
 670 0012 06D1     		bne	.L49
 671 0014 0446     		mov	r4, r0
 672              	.LVL42:
 673              		.loc 1 357 0
 674 0016 2862     		str	r0, [r5, #32]
 675              		.loc 1 358 0
 676 0018 0820     		movs	r0, #8
 677              	.LVL43:
 678 001a FFF7FEFF 		bl	chSchGoSleepS
 679              	.LVL44:
 680              		.loc 1 359 0
 681 001e 6B6B     		ldr	r3, [r5, #52]
 682 0020 1C40     		ands	r4, r4, r3
 683              	.LVL45:
 684              	.L49:
ARM GAS  /tmp/ccJwoBke.s 			page 13


 685              		.loc 1 361 0
 686 0022 6242     		negs	r2, r4
 687 0024 04EA0200 		and	r0, r4, r2
 688              	.LVL46:
 689              		.loc 1 362 0
 690 0028 23EA0003 		bic	r3, r3, r0
 691 002c 6B63     		str	r3, [r5, #52]
 692              	.LBB23:
 693              		.loc 1 364 0
 694 002e 0023     		movs	r3, #0
 695              		.syntax unified
 696              	@ 364 "../ChibiOS_2.6.9/os/kernel/src/chevents.c" 1
 697 0030 83F31188 		msr     BASEPRI, r3
 698              	@ 0 "" 2
 699              		.thumb
 700              		.syntax unified
 701              	.LBE23:
 702              		.loc 1 366 0
 703 0034 38BD     		pop	{r3, r4, r5, pc}
 704              	.LVL47:
 705              	.L52:
 706 0036 00BF     		.align	2
 707              	.L51:
 708 0038 00000000 		.word	rlist
 709              		.cfi_endproc
 710              	.LFE18:
 711              		.size	chEvtWaitOne, .-chEvtWaitOne
 712              		.section	.text.chEvtWaitAny,"ax",%progbits
 713              		.align	2
 714              		.p2align 4,,15
 715              		.global	chEvtWaitAny
 716              		.thumb
 717              		.thumb_func
 718              		.type	chEvtWaitAny, %function
 719              	chEvtWaitAny:
 720              	.LFB19:
 721              		.loc 1 379 0
 722              		.cfi_startproc
 723              		@ args = 0, pretend = 0, frame = 0
 724              		@ frame_needed = 0, uses_anonymous_args = 0
 725              	.LVL48:
 726 0000 38B5     		push	{r3, r4, r5, lr}
 727              		.cfi_def_cfa_offset 16
 728              		.cfi_offset 3, -16
 729              		.cfi_offset 4, -12
 730              		.cfi_offset 5, -8
 731              		.cfi_offset 14, -4
 732              		.loc 1 380 0
 733 0002 0C4B     		ldr	r3, .L56
 734 0004 9D69     		ldr	r5, [r3, #24]
 735              	.LVL49:
 736              	.LBB24:
 737              		.loc 1 383 0
 738 0006 2023     		movs	r3, #32
 739              		.syntax unified
 740              	@ 383 "../ChibiOS_2.6.9/os/kernel/src/chevents.c" 1
 741 0008 83F31188 		msr     BASEPRI, r3
ARM GAS  /tmp/ccJwoBke.s 			page 14


 742              	@ 0 "" 2
 743              		.thumb
 744              		.syntax unified
 745              	.LBE24:
 746              		.loc 1 385 0
 747 000c 6B6B     		ldr	r3, [r5, #52]
 748              	.LVL50:
 749 000e 13EA0004 		ands	r4, r3, r0
 750              	.LVL51:
 751 0012 06D1     		bne	.L54
 752 0014 0446     		mov	r4, r0
 753              	.LVL52:
 754              		.loc 1 386 0
 755 0016 2862     		str	r0, [r5, #32]
 756              		.loc 1 387 0
 757 0018 0820     		movs	r0, #8
 758              	.LVL53:
 759 001a FFF7FEFF 		bl	chSchGoSleepS
 760              	.LVL54:
 761              		.loc 1 388 0
 762 001e 6B6B     		ldr	r3, [r5, #52]
 763 0020 1C40     		ands	r4, r4, r3
 764              	.LVL55:
 765              	.L54:
 766              		.loc 1 390 0
 767 0022 23EA0403 		bic	r3, r3, r4
 768 0026 6B63     		str	r3, [r5, #52]
 769              	.LBB25:
 770              		.loc 1 392 0
 771 0028 0023     		movs	r3, #0
 772              		.syntax unified
 773              	@ 392 "../ChibiOS_2.6.9/os/kernel/src/chevents.c" 1
 774 002a 83F31188 		msr     BASEPRI, r3
 775              	@ 0 "" 2
 776              		.thumb
 777              		.syntax unified
 778              	.LBE25:
 779              		.loc 1 394 0
 780 002e 2046     		mov	r0, r4
 781 0030 38BD     		pop	{r3, r4, r5, pc}
 782              	.LVL56:
 783              	.L57:
 784 0032 00BF     		.align	2
 785              	.L56:
 786 0034 00000000 		.word	rlist
 787              		.cfi_endproc
 788              	.LFE19:
 789              		.size	chEvtWaitAny, .-chEvtWaitAny
 790              		.section	.text.chEvtWaitAll,"ax",%progbits
 791              		.align	2
 792              		.p2align 4,,15
 793              		.global	chEvtWaitAll
 794              		.thumb
 795              		.thumb_func
 796              		.type	chEvtWaitAll, %function
 797              	chEvtWaitAll:
 798              	.LFB20:
ARM GAS  /tmp/ccJwoBke.s 			page 15


 799              		.loc 1 407 0
 800              		.cfi_startproc
 801              		@ args = 0, pretend = 0, frame = 0
 802              		@ frame_needed = 0, uses_anonymous_args = 0
 803              	.LVL57:
 804 0000 38B5     		push	{r3, r4, r5, lr}
 805              		.cfi_def_cfa_offset 16
 806              		.cfi_offset 3, -16
 807              		.cfi_offset 4, -12
 808              		.cfi_offset 5, -8
 809              		.cfi_offset 14, -4
 810              		.loc 1 408 0
 811 0002 0B4B     		ldr	r3, .L61
 812              		.loc 1 407 0
 813 0004 0446     		mov	r4, r0
 814              		.loc 1 408 0
 815 0006 9D69     		ldr	r5, [r3, #24]
 816              	.LVL58:
 817              	.LBB26:
 818              		.loc 1 410 0
 819 0008 2023     		movs	r3, #32
 820              		.syntax unified
 821              	@ 410 "../ChibiOS_2.6.9/os/kernel/src/chevents.c" 1
 822 000a 83F31188 		msr     BASEPRI, r3
 823              	@ 0 "" 2
 824              		.thumb
 825              		.syntax unified
 826              	.LBE26:
 827              		.loc 1 412 0
 828 000e 6B6B     		ldr	r3, [r5, #52]
 829 0010 30EA0302 		bics	r2, r0, r3
 830 0014 04D0     		beq	.L59
 831              		.loc 1 413 0
 832 0016 2862     		str	r0, [r5, #32]
 833              		.loc 1 414 0
 834 0018 0920     		movs	r0, #9
 835              	.LVL59:
 836 001a FFF7FEFF 		bl	chSchGoSleepS
 837              	.LVL60:
 838 001e 6B6B     		ldr	r3, [r5, #52]
 839              	.L59:
 840              		.loc 1 416 0
 841 0020 23EA0403 		bic	r3, r3, r4
 842 0024 6B63     		str	r3, [r5, #52]
 843              	.LBB27:
 844              		.loc 1 418 0
 845 0026 0023     		movs	r3, #0
 846              		.syntax unified
 847              	@ 418 "../ChibiOS_2.6.9/os/kernel/src/chevents.c" 1
 848 0028 83F31188 		msr     BASEPRI, r3
 849              	@ 0 "" 2
 850              		.thumb
 851              		.syntax unified
 852              	.LBE27:
 853              		.loc 1 420 0
 854 002c 2046     		mov	r0, r4
 855 002e 38BD     		pop	{r3, r4, r5, pc}
ARM GAS  /tmp/ccJwoBke.s 			page 16


 856              	.LVL61:
 857              	.L62:
 858              		.align	2
 859              	.L61:
 860 0030 00000000 		.word	rlist
 861              		.cfi_endproc
 862              	.LFE20:
 863              		.size	chEvtWaitAll, .-chEvtWaitAll
 864              		.section	.text.chEvtWaitOneTimeout,"ax",%progbits
 865              		.align	2
 866              		.p2align 4,,15
 867              		.global	chEvtWaitOneTimeout
 868              		.thumb
 869              		.thumb_func
 870              		.type	chEvtWaitOneTimeout, %function
 871              	chEvtWaitOneTimeout:
 872              	.LFB21:
 873              		.loc 1 446 0
 874              		.cfi_startproc
 875              		@ args = 0, pretend = 0, frame = 0
 876              		@ frame_needed = 0, uses_anonymous_args = 0
 877              	.LVL62:
 878              		.loc 1 447 0
 879 0000 134B     		ldr	r3, .L70
 880              		.loc 1 446 0
 881 0002 70B5     		push	{r4, r5, r6, lr}
 882              		.cfi_def_cfa_offset 16
 883              		.cfi_offset 4, -16
 884              		.cfi_offset 5, -12
 885              		.cfi_offset 6, -8
 886              		.cfi_offset 14, -4
 887              		.loc 1 447 0
 888 0004 9D69     		ldr	r5, [r3, #24]
 889              	.LVL63:
 890              	.LBB28:
 891              		.loc 1 450 0
 892 0006 2023     		movs	r3, #32
 893              		.syntax unified
 894              	@ 450 "../ChibiOS_2.6.9/os/kernel/src/chevents.c" 1
 895 0008 83F31188 		msr     BASEPRI, r3
 896              	@ 0 "" 2
 897              		.thumb
 898              		.syntax unified
 899              	.LBE28:
 900              		.loc 1 452 0
 901 000c 6A6B     		ldr	r2, [r5, #52]
 902              	.LVL64:
 903 000e 12EA0006 		ands	r6, r2, r0
 904              	.LVL65:
 905 0012 0FD1     		bne	.L64
 906              		.loc 1 453 0
 907 0014 21B9     		cbnz	r1, .L65
 908              	.LBB29:
 909              		.loc 1 454 0
 910 0016 0B46     		mov	r3, r1
 911              		.syntax unified
 912              	@ 454 "../ChibiOS_2.6.9/os/kernel/src/chevents.c" 1
ARM GAS  /tmp/ccJwoBke.s 			page 17


 913 0018 83F31188 		msr     BASEPRI, r3
 914              	@ 0 "" 2
 915              		.thumb
 916              		.syntax unified
 917              	.LBE29:
 918              		.loc 1 455 0
 919 001c 0846     		mov	r0, r1
 920              	.LVL66:
 921 001e 70BD     		pop	{r4, r5, r6, pc}
 922              	.LVL67:
 923              	.L65:
 924              		.loc 1 457 0
 925 0020 2862     		str	r0, [r5, #32]
 926 0022 0446     		mov	r4, r0
 927              		.loc 1 458 0
 928 0024 0820     		movs	r0, #8
 929              	.LVL68:
 930 0026 FFF7FEFF 		bl	chSchGoSleepTimeoutS
 931              	.LVL69:
 932 002a 0028     		cmp	r0, #0
 933 002c 0BDB     		blt	.L69
 934              		.loc 1 462 0
 935 002e 6A6B     		ldr	r2, [r5, #52]
 936 0030 04EA0206 		and	r6, r4, r2
 937              	.LVL70:
 938              	.L64:
 939              		.loc 1 464 0
 940 0034 7042     		negs	r0, r6
 941 0036 3040     		ands	r0, r0, r6
 942              	.LVL71:
 943              		.loc 1 465 0
 944 0038 22EA0002 		bic	r2, r2, r0
 945 003c 6A63     		str	r2, [r5, #52]
 946              	.LBB30:
 947              		.loc 1 467 0
 948 003e 0023     		movs	r3, #0
 949              		.syntax unified
 950              	@ 467 "../ChibiOS_2.6.9/os/kernel/src/chevents.c" 1
 951 0040 83F31188 		msr     BASEPRI, r3
 952              	@ 0 "" 2
 953              		.thumb
 954              		.syntax unified
 955              	.LBE30:
 956              		.loc 1 469 0
 957 0044 70BD     		pop	{r4, r5, r6, pc}
 958              	.LVL72:
 959              	.L69:
 960              	.LBB31:
 961              		.loc 1 459 0
 962 0046 3346     		mov	r3, r6
 963              		.syntax unified
 964              	@ 459 "../ChibiOS_2.6.9/os/kernel/src/chevents.c" 1
 965 0048 83F31188 		msr     BASEPRI, r3
 966              	@ 0 "" 2
 967              		.thumb
 968              		.syntax unified
 969              	.LBE31:
ARM GAS  /tmp/ccJwoBke.s 			page 18


 970              		.loc 1 460 0
 971 004c 3046     		mov	r0, r6
 972 004e 70BD     		pop	{r4, r5, r6, pc}
 973              	.LVL73:
 974              	.L71:
 975              		.align	2
 976              	.L70:
 977 0050 00000000 		.word	rlist
 978              		.cfi_endproc
 979              	.LFE21:
 980              		.size	chEvtWaitOneTimeout, .-chEvtWaitOneTimeout
 981              		.section	.text.chEvtWaitAnyTimeout,"ax",%progbits
 982              		.align	2
 983              		.p2align 4,,15
 984              		.global	chEvtWaitAnyTimeout
 985              		.thumb
 986              		.thumb_func
 987              		.type	chEvtWaitAnyTimeout, %function
 988              	chEvtWaitAnyTimeout:
 989              	.LFB22:
 990              		.loc 1 489 0
 991              		.cfi_startproc
 992              		@ args = 0, pretend = 0, frame = 0
 993              		@ frame_needed = 0, uses_anonymous_args = 0
 994              	.LVL74:
 995              		.loc 1 490 0
 996 0000 134B     		ldr	r3, .L79
 997              		.loc 1 489 0
 998 0002 70B5     		push	{r4, r5, r6, lr}
 999              		.cfi_def_cfa_offset 16
 1000              		.cfi_offset 4, -16
 1001              		.cfi_offset 5, -12
 1002              		.cfi_offset 6, -8
 1003              		.cfi_offset 14, -4
 1004              		.loc 1 490 0
 1005 0004 9E69     		ldr	r6, [r3, #24]
 1006              	.LVL75:
 1007              	.LBB32:
 1008              		.loc 1 493 0
 1009 0006 2023     		movs	r3, #32
 1010              		.syntax unified
 1011              	@ 493 "../ChibiOS_2.6.9/os/kernel/src/chevents.c" 1
 1012 0008 83F31188 		msr     BASEPRI, r3
 1013              	@ 0 "" 2
 1014              		.thumb
 1015              		.syntax unified
 1016              	.LBE32:
 1017              		.loc 1 495 0
 1018 000c 726B     		ldr	r2, [r6, #52]
 1019              	.LVL76:
 1020 000e 12EA0004 		ands	r4, r2, r0
 1021              	.LVL77:
 1022 0012 0FD1     		bne	.L73
 1023              		.loc 1 496 0
 1024 0014 21B9     		cbnz	r1, .L74
 1025              	.LBB33:
 1026              		.loc 1 497 0
ARM GAS  /tmp/ccJwoBke.s 			page 19


 1027 0016 0B46     		mov	r3, r1
 1028              		.syntax unified
 1029              	@ 497 "../ChibiOS_2.6.9/os/kernel/src/chevents.c" 1
 1030 0018 83F31188 		msr     BASEPRI, r3
 1031              	@ 0 "" 2
 1032              		.thumb
 1033              		.syntax unified
 1034              	.LBE33:
 1035              		.loc 1 498 0
 1036 001c 0846     		mov	r0, r1
 1037              	.LVL78:
 1038 001e 70BD     		pop	{r4, r5, r6, pc}
 1039              	.LVL79:
 1040              	.L74:
 1041              		.loc 1 500 0
 1042 0020 3062     		str	r0, [r6, #32]
 1043 0022 0546     		mov	r5, r0
 1044              		.loc 1 501 0
 1045 0024 0820     		movs	r0, #8
 1046              	.LVL80:
 1047 0026 FFF7FEFF 		bl	chSchGoSleepTimeoutS
 1048              	.LVL81:
 1049 002a 0028     		cmp	r0, #0
 1050 002c 0ADB     		blt	.L78
 1051              		.loc 1 505 0
 1052 002e 726B     		ldr	r2, [r6, #52]
 1053 0030 05EA0204 		and	r4, r5, r2
 1054              	.LVL82:
 1055              	.L73:
 1056              		.loc 1 507 0
 1057 0034 22EA0402 		bic	r2, r2, r4
 1058 0038 7263     		str	r2, [r6, #52]
 1059              	.LBB34:
 1060              		.loc 1 509 0
 1061 003a 0023     		movs	r3, #0
 1062              		.syntax unified
 1063              	@ 509 "../ChibiOS_2.6.9/os/kernel/src/chevents.c" 1
 1064 003c 83F31188 		msr     BASEPRI, r3
 1065              	@ 0 "" 2
 1066              		.thumb
 1067              		.syntax unified
 1068              	.LBE34:
 1069              		.loc 1 510 0
 1070 0040 2046     		mov	r0, r4
 1071              		.loc 1 511 0
 1072 0042 70BD     		pop	{r4, r5, r6, pc}
 1073              	.LVL83:
 1074              	.L78:
 1075              	.LBB35:
 1076              		.loc 1 502 0
 1077 0044 2346     		mov	r3, r4
 1078              		.syntax unified
 1079              	@ 502 "../ChibiOS_2.6.9/os/kernel/src/chevents.c" 1
 1080 0046 83F31188 		msr     BASEPRI, r3
 1081              	@ 0 "" 2
 1082              		.thumb
 1083              		.syntax unified
ARM GAS  /tmp/ccJwoBke.s 			page 20


 1084              	.LBE35:
 1085              		.loc 1 503 0
 1086 004a 2046     		mov	r0, r4
 1087 004c 70BD     		pop	{r4, r5, r6, pc}
 1088              	.LVL84:
 1089              	.L80:
 1090 004e 00BF     		.align	2
 1091              	.L79:
 1092 0050 00000000 		.word	rlist
 1093              		.cfi_endproc
 1094              	.LFE22:
 1095              		.size	chEvtWaitAnyTimeout, .-chEvtWaitAnyTimeout
 1096              		.section	.text.chEvtWaitAllTimeout,"ax",%progbits
 1097              		.align	2
 1098              		.p2align 4,,15
 1099              		.global	chEvtWaitAllTimeout
 1100              		.thumb
 1101              		.thumb_func
 1102              		.type	chEvtWaitAllTimeout, %function
 1103              	chEvtWaitAllTimeout:
 1104              	.LFB23:
 1105              		.loc 1 530 0
 1106              		.cfi_startproc
 1107              		@ args = 0, pretend = 0, frame = 0
 1108              		@ frame_needed = 0, uses_anonymous_args = 0
 1109              	.LVL85:
 1110 0000 38B5     		push	{r3, r4, r5, lr}
 1111              		.cfi_def_cfa_offset 16
 1112              		.cfi_offset 3, -16
 1113              		.cfi_offset 4, -12
 1114              		.cfi_offset 5, -8
 1115              		.cfi_offset 14, -4
 1116              		.loc 1 531 0
 1117 0002 124B     		ldr	r3, .L87
 1118              		.loc 1 530 0
 1119 0004 0446     		mov	r4, r0
 1120              		.loc 1 531 0
 1121 0006 9D69     		ldr	r5, [r3, #24]
 1122              	.LVL86:
 1123              	.LBB36:
 1124              		.loc 1 533 0
 1125 0008 2023     		movs	r3, #32
 1126              		.syntax unified
 1127              	@ 533 "../ChibiOS_2.6.9/os/kernel/src/chevents.c" 1
 1128 000a 83F31188 		msr     BASEPRI, r3
 1129              	@ 0 "" 2
 1130              		.thumb
 1131              		.syntax unified
 1132              	.LBE36:
 1133              		.loc 1 535 0
 1134 000e 6B6B     		ldr	r3, [r5, #52]
 1135 0010 34EA0300 		bics	r0, r4, r3
 1136              	.LVL87:
 1137 0014 0CD0     		beq	.L82
 1138              		.loc 1 536 0
 1139 0016 21B9     		cbnz	r1, .L83
 1140              	.LBB37:
ARM GAS  /tmp/ccJwoBke.s 			page 21


 1141              		.loc 1 537 0
 1142 0018 0B46     		mov	r3, r1
 1143              		.syntax unified
 1144              	@ 537 "../ChibiOS_2.6.9/os/kernel/src/chevents.c" 1
 1145 001a 83F31188 		msr     BASEPRI, r3
 1146              	@ 0 "" 2
 1147              		.thumb
 1148              		.syntax unified
 1149              	.LBE37:
 1150              		.loc 1 538 0
 1151 001e 0846     		mov	r0, r1
 1152 0020 38BD     		pop	{r3, r4, r5, pc}
 1153              	.LVL88:
 1154              	.L83:
 1155              		.loc 1 540 0
 1156 0022 2C62     		str	r4, [r5, #32]
 1157              		.loc 1 541 0
 1158 0024 0920     		movs	r0, #9
 1159 0026 FFF7FEFF 		bl	chSchGoSleepTimeoutS
 1160              	.LVL89:
 1161 002a 0028     		cmp	r0, #0
 1162 002c 08DB     		blt	.L85
 1163 002e 6B6B     		ldr	r3, [r5, #52]
 1164              	.L82:
 1165              		.loc 1 546 0
 1166 0030 23EA0403 		bic	r3, r3, r4
 1167 0034 6B63     		str	r3, [r5, #52]
 1168              	.LBB38:
 1169              		.loc 1 548 0
 1170 0036 0023     		movs	r3, #0
 1171              		.syntax unified
 1172              	@ 548 "../ChibiOS_2.6.9/os/kernel/src/chevents.c" 1
 1173 0038 83F31188 		msr     BASEPRI, r3
 1174              	@ 0 "" 2
 1175              		.thumb
 1176              		.syntax unified
 1177              	.LBE38:
 1178              		.loc 1 549 0
 1179 003c 2046     		mov	r0, r4
 1180              		.loc 1 550 0
 1181 003e 38BD     		pop	{r3, r4, r5, pc}
 1182              	.LVL90:
 1183              	.L85:
 1184              	.LBB39:
 1185              		.loc 1 542 0
 1186 0040 0023     		movs	r3, #0
 1187              		.syntax unified
 1188              	@ 542 "../ChibiOS_2.6.9/os/kernel/src/chevents.c" 1
 1189 0042 83F31188 		msr     BASEPRI, r3
 1190              	@ 0 "" 2
 1191              		.thumb
 1192              		.syntax unified
 1193              	.LBE39:
 1194              		.loc 1 543 0
 1195 0046 1846     		mov	r0, r3
 1196 0048 38BD     		pop	{r3, r4, r5, pc}
 1197              	.LVL91:
ARM GAS  /tmp/ccJwoBke.s 			page 22


 1198              	.L88:
 1199 004a 00BF     		.align	2
 1200              	.L87:
 1201 004c 00000000 		.word	rlist
 1202              		.cfi_endproc
 1203              	.LFE23:
 1204              		.size	chEvtWaitAllTimeout, .-chEvtWaitAllTimeout
 1205              		.text
 1206              	.Letext0:
 1207              		.file 2 "/usr/local/gcc-arm-none-eabi-5_4-2016q3/arm-none-eabi/include/machine/_default_types.h"
 1208              		.file 3 "/usr/local/gcc-arm-none-eabi-5_4-2016q3/arm-none-eabi/include/sys/_stdint.h"
 1209              		.file 4 "../ChibiOS_2.6.9/os/ports/GCC/ARMCMx/chtypes.h"
 1210              		.file 5 "../ChibiOS_2.6.9/os/kernel/include/chlists.h"
 1211              		.file 6 "../ChibiOS_2.6.9/os/kernel/include/chthreads.h"
 1212              		.file 7 "../ChibiOS_2.6.9/os/ports/GCC/ARMCMx/chcore_v7m.h"
 1213              		.file 8 "../ChibiOS_2.6.9/os/kernel/include/chschd.h"
 1214              		.file 9 "../ChibiOS_2.6.9/os/kernel/include/chmtx.h"
 1215              		.file 10 "../ChibiOS_2.6.9/os/kernel/include/chevents.h"