ARM GAS  /tmp/ccPRyqQj.s 			page 1


   1              		.syntax unified
   2              		.cpu cortex-m4
   3              		.fpu softvfp
   4              		.eabi_attribute 20, 1
   5              		.eabi_attribute 21, 1
   6              		.eabi_attribute 23, 3
   7              		.eabi_attribute 24, 1
   8              		.eabi_attribute 25, 1
   9              		.eabi_attribute 26, 1
  10              		.eabi_attribute 30, 2
  11              		.eabi_attribute 34, 1
  12              		.eabi_attribute 18, 4
  13              		.thumb
  14              		.syntax unified
  15              		.file	"chmsg.c"
  16              		.text
  17              	.Ltext0:
  18              		.cfi_sections	.debug_frame
  19              		.section	.text.chMsgSend,"ax",%progbits
  20              		.align	2
  21              		.p2align 4,,15
  22              		.global	chMsgSend
  23              		.thumb
  24              		.thumb_func
  25              		.type	chMsgSend, %function
  26              	chMsgSend:
  27              	.LFB7:
  28              		.file 1 "../ChibiOS_2.6.9/os/kernel/src/chmsg.c"
  29              		.loc 1 75 0
  30              		.cfi_startproc
  31              		@ args = 0, pretend = 0, frame = 0
  32              		@ frame_needed = 0, uses_anonymous_args = 0
  33              	.LVL0:
  34 0000 38B5     		push	{r3, r4, r5, lr}
  35              		.cfi_def_cfa_offset 16
  36              		.cfi_offset 3, -16
  37              		.cfi_offset 4, -12
  38              		.cfi_offset 5, -8
  39              		.cfi_offset 14, -4
  40              		.loc 1 76 0
  41 0002 0E4B     		ldr	r3, .L6
  42 0004 9C69     		ldr	r4, [r3, #24]
  43              	.LVL1:
  44              	.LBB10:
  45              		.loc 1 80 0
  46 0006 2023     		movs	r3, #32
  47              		.syntax unified
  48              	@ 80 "../ChibiOS_2.6.9/os/kernel/src/chmsg.c" 1
  49 0008 83F31188 		msr     BASEPRI, r3
  50              	@ 0 "" 2
  51              		.thumb
  52              		.syntax unified
  53              	.LBE10:
  54              		.loc 1 82 0
  55 000c 00F12805 		add	r5, r0, #40
  56 0010 2562     		str	r5, [r4, #32]
  57              	.LVL2:
ARM GAS  /tmp/ccPRyqQj.s 			page 2


  58              	.LBB11:
  59              	.LBB12:
  60              		.file 2 "../ChibiOS_2.6.9/os/kernel/include/chinline.h"
  61              		.loc 2 55 0
  62 0012 C36A     		ldr	r3, [r0, #44]
  63 0014 6360     		str	r3, [r4, #4]
  64              	.LBE12:
  65              	.LBE11:
  66              		.loc 1 81 0
  67 0016 2163     		str	r1, [r4, #48]
  68              	.LBB14:
  69              	.LBB13:
  70              		.loc 2 54 0
  71 0018 2560     		str	r5, [r4]
  72              		.loc 2 56 0
  73 001a C462     		str	r4, [r0, #44]
  74 001c 1C60     		str	r4, [r3]
  75              	.LVL3:
  76              	.LBE13:
  77              	.LBE14:
  78              		.loc 1 84 0
  79 001e 037F     		ldrb	r3, [r0, #28]	@ zero_extendqisi2
  80 0020 0C2B     		cmp	r3, #12
  81 0022 07D0     		beq	.L5
  82              	.LVL4:
  83              	.L2:
  84              		.loc 1 86 0
  85 0024 0A20     		movs	r0, #10
  86 0026 FFF7FEFF 		bl	chSchGoSleepS
  87              	.LVL5:
  88              		.loc 1 87 0
  89 002a 206A     		ldr	r0, [r4, #32]
  90              	.LVL6:
  91              	.LBB15:
  92              		.loc 1 88 0
  93 002c 0023     		movs	r3, #0
  94              		.syntax unified
  95              	@ 88 "../ChibiOS_2.6.9/os/kernel/src/chmsg.c" 1
  96 002e 83F31188 		msr     BASEPRI, r3
  97              	@ 0 "" 2
  98              		.thumb
  99              		.syntax unified
 100              	.LBE15:
 101              		.loc 1 90 0
 102 0032 38BD     		pop	{r3, r4, r5, pc}
 103              	.LVL7:
 104              	.L5:
 105              		.loc 1 85 0
 106 0034 FFF7FEFF 		bl	chSchReadyI
 107              	.LVL8:
 108 0038 F4E7     		b	.L2
 109              	.L7:
 110 003a 00BF     		.align	2
 111              	.L6:
 112 003c 00000000 		.word	rlist
 113              		.cfi_endproc
 114              	.LFE7:
ARM GAS  /tmp/ccPRyqQj.s 			page 3


 115              		.size	chMsgSend, .-chMsgSend
 116              		.section	.text.chMsgWait,"ax",%progbits
 117              		.align	2
 118              		.p2align 4,,15
 119              		.global	chMsgWait
 120              		.thumb
 121              		.thumb_func
 122              		.type	chMsgWait, %function
 123              	chMsgWait:
 124              	.LFB8:
 125              		.loc 1 106 0
 126              		.cfi_startproc
 127              		@ args = 0, pretend = 0, frame = 0
 128              		@ frame_needed = 0, uses_anonymous_args = 0
 129 0000 10B5     		push	{r4, lr}
 130              		.cfi_def_cfa_offset 8
 131              		.cfi_offset 4, -8
 132              		.cfi_offset 14, -4
 133              	.LBB16:
 134              		.loc 1 109 0
 135 0002 2023     		movs	r3, #32
 136              		.syntax unified
 137              	@ 109 "../ChibiOS_2.6.9/os/kernel/src/chmsg.c" 1
 138 0004 83F31188 		msr     BASEPRI, r3
 139              	@ 0 "" 2
 140              		.thumb
 141              		.syntax unified
 142              	.LBE16:
 143              		.loc 1 110 0
 144 0008 0B4C     		ldr	r4, .L12
 145 000a A269     		ldr	r2, [r4, #24]
 146 000c 1346     		mov	r3, r2
 147 000e 53F8280F 		ldr	r0, [r3, #40]!
 148 0012 9842     		cmp	r0, r3
 149 0014 08D0     		beq	.L11
 150              	.L9:
 151              	.LVL9:
 152              	.LBB17:
 153              	.LBB18:
 154              		.loc 2 62 0
 155 0016 0168     		ldr	r1, [r0]
 156 0018 9162     		str	r1, [r2, #40]
 157              	.LVL10:
 158              	.LBE18:
 159              	.LBE17:
 160              		.loc 1 113 0
 161 001a 0B22     		movs	r2, #11
 162              	.LBB20:
 163              	.LBB19:
 164              		.loc 2 62 0
 165 001c 4B60     		str	r3, [r1, #4]
 166              	.LVL11:
 167              	.LBE19:
 168              	.LBE20:
 169              	.LBB21:
 170              		.loc 1 114 0
 171 001e 0023     		movs	r3, #0
ARM GAS  /tmp/ccPRyqQj.s 			page 4


 172              	.LBE21:
 173              		.loc 1 113 0
 174 0020 0277     		strb	r2, [r0, #28]
 175              	.LBB22:
 176              		.loc 1 114 0
 177              		.syntax unified
 178              	@ 114 "../ChibiOS_2.6.9/os/kernel/src/chmsg.c" 1
 179 0022 83F31188 		msr     BASEPRI, r3
 180              	@ 0 "" 2
 181              		.thumb
 182              		.syntax unified
 183              	.LBE22:
 184              		.loc 1 116 0
 185 0026 10BD     		pop	{r4, pc}
 186              	.L11:
 187              		.loc 1 111 0
 188 0028 0C20     		movs	r0, #12
 189 002a FFF7FEFF 		bl	chSchGoSleepS
 190              	.LVL12:
 191 002e A269     		ldr	r2, [r4, #24]
 192 0030 906A     		ldr	r0, [r2, #40]
 193 0032 02F12803 		add	r3, r2, #40
 194 0036 EEE7     		b	.L9
 195              	.L13:
 196              		.align	2
 197              	.L12:
 198 0038 00000000 		.word	rlist
 199              		.cfi_endproc
 200              	.LFE8:
 201              		.size	chMsgWait, .-chMsgWait
 202              		.section	.text.chMsgRelease,"ax",%progbits
 203              		.align	2
 204              		.p2align 4,,15
 205              		.global	chMsgRelease
 206              		.thumb
 207              		.thumb_func
 208              		.type	chMsgRelease, %function
 209              	chMsgRelease:
 210              	.LFB9:
 211              		.loc 1 128 0
 212              		.cfi_startproc
 213              		@ args = 0, pretend = 0, frame = 0
 214              		@ frame_needed = 0, uses_anonymous_args = 0
 215              	.LVL13:
 216 0000 08B5     		push	{r3, lr}
 217              		.cfi_def_cfa_offset 8
 218              		.cfi_offset 3, -8
 219              		.cfi_offset 14, -4
 220              	.LBB23:
 221              		.loc 1 130 0
 222 0002 2023     		movs	r3, #32
 223              		.syntax unified
 224              	@ 130 "../ChibiOS_2.6.9/os/kernel/src/chmsg.c" 1
 225 0004 83F31188 		msr     BASEPRI, r3
 226              	@ 0 "" 2
 227              		.thumb
 228              		.syntax unified
ARM GAS  /tmp/ccPRyqQj.s 			page 5


 229              	.LBE23:
 230              		.loc 1 133 0
 231 0008 FFF7FEFF 		bl	chSchWakeupS
 232              	.LVL14:
 233              	.LBB24:
 234              		.loc 1 134 0
 235 000c 0023     		movs	r3, #0
 236              		.syntax unified
 237              	@ 134 "../ChibiOS_2.6.9/os/kernel/src/chmsg.c" 1
 238 000e 83F31188 		msr     BASEPRI, r3
 239              	@ 0 "" 2
 240              		.thumb
 241              		.syntax unified
 242 0012 08BD     		pop	{r3, pc}
 243              	.LBE24:
 244              		.cfi_endproc
 245              	.LFE9:
 246              		.size	chMsgRelease, .-chMsgRelease
 247              		.text
 248              	.Letext0:
 249              		.file 3 "/usr/local/gcc-arm-none-eabi-5_4-2016q3/arm-none-eabi/include/machine/_default_types.h"
 250              		.file 4 "/usr/local/gcc-arm-none-eabi-5_4-2016q3/arm-none-eabi/include/sys/_stdint.h"
 251              		.file 5 "../ChibiOS_2.6.9/os/ports/GCC/ARMCMx/chtypes.h"
 252              		.file 6 "../ChibiOS_2.6.9/os/kernel/include/chlists.h"
 253              		.file 7 "../ChibiOS_2.6.9/os/kernel/include/chthreads.h"
 254              		.file 8 "../ChibiOS_2.6.9/os/ports/GCC/ARMCMx/chcore_v7m.h"
 255              		.file 9 "../ChibiOS_2.6.9/os/kernel/include/chschd.h"
 256              		.file 10 "../ChibiOS_2.6.9/os/kernel/include/chmtx.h"