ARM GAS  /tmp/cc6OI3cd.s 			page 1


   1              		.syntax unified
   2              		.cpu cortex-m4
   3              		.fpu softvfp
   4              		.eabi_attribute 20, 1
   5              		.eabi_attribute 21, 1
   6              		.eabi_attribute 23, 3
   7              		.eabi_attribute 24, 1
   8              		.eabi_attribute 25, 1
   9              		.eabi_attribute 26, 1
  10              		.eabi_attribute 30, 2
  11              		.eabi_attribute 34, 1
  12              		.eabi_attribute 18, 4
  13              		.thumb
  14              		.syntax unified
  15              		.file	"hal.c"
  16              		.text
  17              	.Ltext0:
  18              		.cfi_sections	.debug_frame
  19              		.section	.text.halInit,"ax",%progbits
  20              		.align	2
  21              		.p2align 4,,15
  22              		.global	halInit
  23              		.thumb
  24              		.thumb_func
  25              		.type	halInit, %function
  26              	halInit:
  27              	.LFB118:
  28              		.file 1 "../ChibiOS_2.6.9/os/hal/src/hal.c"
  29              		.loc 1 68 0
  30              		.cfi_startproc
  31              		@ args = 0, pretend = 0, frame = 0
  32              		@ frame_needed = 0, uses_anonymous_args = 0
  33 0000 08B5     		push	{r3, lr}
  34              		.cfi_def_cfa_offset 8
  35              		.cfi_offset 3, -8
  36              		.cfi_offset 14, -4
  37              		.loc 1 70 0
  38 0002 FFF7FEFF 		bl	hal_lld_init
  39              	.LVL0:
  40              		.loc 1 76 0
  41 0006 0548     		ldr	r0, .L3
  42 0008 FFF7FEFF 		bl	_pal_lld_init
  43              	.LVL1:
  44              		.loc 1 79 0
  45 000c FFF7FEFF 		bl	adcInit
  46              	.LVL2:
  47              		.loc 1 115 0
  48 0010 FFF7FEFF 		bl	usbInit
  49              	.LVL3:
  50              		.loc 1 128 0
  51 0014 BDE80840 		pop	{r3, lr}
  52              		.cfi_restore 14
  53              		.cfi_restore 3
  54              		.cfi_def_cfa_offset 0
  55              		.loc 1 127 0
  56 0018 FFF7FEBF 		b	boardInit
  57              	.LVL4:
ARM GAS  /tmp/cc6OI3cd.s 			page 2


  58              	.L4:
  59              		.align	2
  60              	.L3:
  61 001c 00000000 		.word	pal_default_config
  62              		.cfi_endproc
  63              	.LFE118:
  64              		.size	halInit, .-halInit
  65              		.section	.text.halIsCounterWithin,"ax",%progbits
  66              		.align	2
  67              		.p2align 4,,15
  68              		.global	halIsCounterWithin
  69              		.thumb
  70              		.thumb_func
  71              		.type	halIsCounterWithin, %function
  72              	halIsCounterWithin:
  73              	.LFB119:
  74              		.loc 1 174 0
  75              		.cfi_startproc
  76              		@ args = 0, pretend = 0, frame = 0
  77              		@ frame_needed = 0, uses_anonymous_args = 0
  78              		@ link register save eliminated.
  79              	.LVL5:
  80              		.loc 1 175 0
  81 0000 084B     		ldr	r3, .L15
  82              		.loc 1 177 0
  83 0002 8142     		cmp	r1, r0
  84              		.loc 1 175 0
  85 0004 5B68     		ldr	r3, [r3, #4]
  86              	.LVL6:
  87              		.loc 1 177 0
  88 0006 06D9     		bls	.L6
  89              		.loc 1 177 0 is_stmt 0 discriminator 1
  90 0008 8342     		cmp	r3, r0
  91 000a 08D3     		bcc	.L14
  92              	.L12:
  93 000c 8B42     		cmp	r3, r1
  94 000e 2CBF     		ite	cs
  95 0010 0020     		movcs	r0, #0
  96              	.LVL7:
  97 0012 0120     		movcc	r0, #1
  98 0014 7047     		bx	lr
  99              	.LVL8:
 100              	.L6:
 101              		.loc 1 178 0 is_stmt 1
 102 0016 8342     		cmp	r3, r0
 103 0018 F8D3     		bcc	.L12
 104 001a 0120     		movs	r0, #1
 105              	.LVL9:
 106              		.loc 1 179 0
 107 001c 7047     		bx	lr
 108              	.LVL10:
 109              	.L14:
 110 001e 0020     		movs	r0, #0
 111              	.LVL11:
 112 0020 7047     		bx	lr
 113              	.L16:
 114 0022 00BF     		.align	2
ARM GAS  /tmp/cc6OI3cd.s 			page 3


 115              	.L15:
 116 0024 001000E0 		.word	-536866816
 117              		.cfi_endproc
 118              	.LFE119:
 119              		.size	halIsCounterWithin, .-halIsCounterWithin
 120              		.section	.text.halPolledDelay,"ax",%progbits
 121              		.align	2
 122              		.p2align 4,,15
 123              		.global	halPolledDelay
 124              		.thumb
 125              		.thumb_func
 126              		.type	halPolledDelay, %function
 127              	halPolledDelay:
 128              	.LFB120:
 129              		.loc 1 193 0
 130              		.cfi_startproc
 131              		@ args = 0, pretend = 0, frame = 0
 132              		@ frame_needed = 0, uses_anonymous_args = 0
 133              		@ link register save eliminated.
 134              	.LVL12:
 135              		.loc 1 194 0
 136 0000 0849     		ldr	r1, .L23
 137 0002 4A68     		ldr	r2, [r1, #4]
 138              	.LVL13:
 139              		.loc 1 195 0
 140 0004 1044     		add	r0, r0, r2
 141              	.LVL14:
 142              	.L21:
 143              	.LBB4:
 144              	.LBB5:
 145              		.loc 1 177 0 discriminator 1
 146 0006 8242     		cmp	r2, r0
 147              		.loc 1 175 0 discriminator 1
 148 0008 4B68     		ldr	r3, [r1, #4]
 149              	.LVL15:
 150              		.loc 1 177 0 discriminator 1
 151 000a 02D2     		bcs	.L18
 152              		.loc 1 177 0 is_stmt 0
 153 000c 9A42     		cmp	r2, r3
 154 000e 05D9     		bls	.L22
 155              	.LVL16:
 156              	.L17:
 157 0010 7047     		bx	lr
 158              	.LVL17:
 159              	.L18:
 160              		.loc 1 178 0 is_stmt 1
 161 0012 9A42     		cmp	r2, r3
 162 0014 F7D9     		bls	.L21
 163              	.LBE5:
 164              	.LBE4:
 165              		.loc 1 196 0
 166 0016 9842     		cmp	r0, r3
 167 0018 F5D8     		bhi	.L21
 168 001a F9E7     		b	.L17
 169              	.LVL18:
 170              	.L22:
 171              	.LBB7:
ARM GAS  /tmp/cc6OI3cd.s 			page 4


 172              	.LBB6:
 173              		.loc 1 177 0
 174 001c 9842     		cmp	r0, r3
 175 001e F2D8     		bhi	.L21
 176 0020 7047     		bx	lr
 177              	.L24:
 178 0022 00BF     		.align	2
 179              	.L23:
 180 0024 001000E0 		.word	-536866816
 181              	.LBE6:
 182              	.LBE7:
 183              		.cfi_endproc
 184              	.LFE120:
 185              		.size	halPolledDelay, .-halPolledDelay
 186              		.text
 187              	.Letext0:
 188              		.file 2 "/usr/local/gcc-arm-none-eabi-5_4-2016q3/arm-none-eabi/include/machine/_default_types.h"
 189              		.file 3 "/usr/local/gcc-arm-none-eabi-5_4-2016q3/arm-none-eabi/include/sys/_stdint.h"
 190              		.file 4 "../ChibiOS_2.6.9/os/ports/GCC/ARMCMx/chtypes.h"
 191              		.file 5 "../ChibiOS_2.6.9/os/ports/common/ARMCMx/nvic.h"
 192              		.file 6 "../ChibiOS_2.6.9/os/hal/platforms/STM32F4xx/hal_lld.h"
 193              		.file 7 "../ChibiOS_2.6.9/os/hal/platforms/STM32/GPIOv2/pal_lld.h"
 194              		.file 8 "../ChibiOS_2.6.9/os/ports/common/ARMCMx/CMSIS/include/core_cm4.h"
 195              		.file 9 "../ChibiOS_2.6.9/os/hal/include/adc.h"
 196              		.file 10 "../ChibiOS_2.6.9/os/hal/include/usb.h"
 197              		.file 11 "../ChibiOS_2.6.9/boards/ST_STM32F4_DISCOVERY/board.h"
 198              		.section	.debug_info,"",%progbits
 199              	.Ldebug_info0:
 200 0000 AB030000 		.4byte	0x3ab
 201 0004 0400     		.2byte	0x4
 202 0006 00000000 		.4byte	.Ldebug_abbrev0
 203 000a 04       		.byte	0x4
 204 000b 01       		.uleb128 0x1
 205 000c A3010000 		.4byte	.LASF57
 206 0010 0C       		.byte	0xc
 207 0011 F8020000 		.4byte	.LASF58
 208 0015 14000000 		.4byte	.LASF59
 209 0019 18000000 		.4byte	.Ldebug_ranges0+0x18
 210 001d 00000000 		.4byte	0
 211 0021 00000000 		.4byte	.Ldebug_line0
 212 0025 02       		.uleb128 0x2
 213 0026 04       		.byte	0x4
 214 0027 05       		.byte	0x5
 215 0028 696E7400 		.ascii	"int\000"
 216 002c 03       		.uleb128 0x3
 217 002d 04       		.byte	0x4
 218 002e 07       		.byte	0x7
 219 002f 27030000 		.4byte	.LASF0
 220 0033 03       		.uleb128 0x3
 221 0034 08       		.byte	0x8
 222 0035 05       		.byte	0x5
 223 0036 87000000 		.4byte	.LASF1
 224 003a 03       		.uleb128 0x3
 225 003b 08       		.byte	0x8
 226 003c 04       		.byte	0x4
 227 003d E6000000 		.4byte	.LASF2
 228 0041 03       		.uleb128 0x3
ARM GAS  /tmp/cc6OI3cd.s 			page 5


 229 0042 01       		.byte	0x1
 230 0043 06       		.byte	0x6
 231 0044 0C010000 		.4byte	.LASF3
 232 0048 03       		.uleb128 0x3
 233 0049 01       		.byte	0x1
 234 004a 08       		.byte	0x8
 235 004b F9000000 		.4byte	.LASF4
 236 004f 03       		.uleb128 0x3
 237 0050 02       		.byte	0x2
 238 0051 05       		.byte	0x5
 239 0052 37000000 		.4byte	.LASF5
 240 0056 03       		.uleb128 0x3
 241 0057 02       		.byte	0x2
 242 0058 07       		.byte	0x7
 243 0059 65010000 		.4byte	.LASF6
 244 005d 04       		.uleb128 0x4
 245 005e A4000000 		.4byte	.LASF8
 246 0062 02       		.byte	0x2
 247 0063 3F       		.byte	0x3f
 248 0064 68000000 		.4byte	0x68
 249 0068 03       		.uleb128 0x3
 250 0069 04       		.byte	0x4
 251 006a 05       		.byte	0x5
 252 006b B6000000 		.4byte	.LASF7
 253 006f 04       		.uleb128 0x4
 254 0070 6D000000 		.4byte	.LASF9
 255 0074 02       		.byte	0x2
 256 0075 41       		.byte	0x41
 257 0076 7A000000 		.4byte	0x7a
 258 007a 03       		.uleb128 0x3
 259 007b 04       		.byte	0x4
 260 007c 07       		.byte	0x7
 261 007d 93020000 		.4byte	.LASF10
 262 0081 03       		.uleb128 0x3
 263 0082 08       		.byte	0x8
 264 0083 07       		.byte	0x7
 265 0084 18010000 		.4byte	.LASF11
 266 0088 04       		.uleb128 0x4
 267 0089 7D010000 		.4byte	.LASF12
 268 008d 03       		.byte	0x3
 269 008e 2C       		.byte	0x2c
 270 008f 5D000000 		.4byte	0x5d
 271 0093 04       		.uleb128 0x4
 272 0094 2F010000 		.4byte	.LASF13
 273 0098 03       		.byte	0x3
 274 0099 30       		.byte	0x30
 275 009a 6F000000 		.4byte	0x6f
 276 009e 04       		.uleb128 0x4
 277 009f 85010000 		.4byte	.LASF14
 278 00a3 04       		.byte	0x4
 279 00a4 2B       		.byte	0x2b
 280 00a5 A9000000 		.4byte	0xa9
 281 00a9 03       		.uleb128 0x3
 282 00aa 01       		.byte	0x1
 283 00ab 02       		.byte	0x2
 284 00ac 9D010000 		.4byte	.LASF15
 285 00b0 04       		.uleb128 0x4
ARM GAS  /tmp/cc6OI3cd.s 			page 6


 286 00b1 78000000 		.4byte	.LASF16
 287 00b5 05       		.byte	0x5
 288 00b6 3A       		.byte	0x3a
 289 00b7 BB000000 		.4byte	0xbb
 290 00bb 05       		.uleb128 0x5
 291 00bc 93000000 		.4byte	0x93
 292 00c0 03       		.uleb128 0x3
 293 00c1 04       		.byte	0x4
 294 00c2 07       		.byte	0x7
 295 00c3 41000000 		.4byte	.LASF17
 296 00c7 06       		.uleb128 0x6
 297 00c8 20       		.byte	0x20
 298 00c9 05       		.byte	0x5
 299 00ca 0601     		.2byte	0x106
 300 00cc 39010000 		.4byte	0x139
 301 00d0 07       		.uleb128 0x7
 302 00d1 07010000 		.4byte	.LASF18
 303 00d5 05       		.byte	0x5
 304 00d6 0701     		.2byte	0x107
 305 00d8 B0000000 		.4byte	0xb0
 306 00dc 00       		.byte	0
 307 00dd 07       		.uleb128 0x7
 308 00de 9D000000 		.4byte	.LASF19
 309 00e2 05       		.byte	0x5
 310 00e3 0801     		.2byte	0x108
 311 00e5 B0000000 		.4byte	0xb0
 312 00e9 04       		.byte	0x4
 313 00ea 07       		.uleb128 0x7
 314 00eb 8C020000 		.4byte	.LASF20
 315 00ef 05       		.byte	0x5
 316 00f0 0901     		.2byte	0x109
 317 00f2 B0000000 		.4byte	0xb0
 318 00f6 08       		.byte	0x8
 319 00f7 07       		.uleb128 0x7
 320 00f8 47030000 		.4byte	.LASF21
 321 00fc 05       		.byte	0x5
 322 00fd 0A01     		.2byte	0x10a
 323 00ff B0000000 		.4byte	0xb0
 324 0103 0C       		.byte	0xc
 325 0104 07       		.uleb128 0x7
 326 0105 B7020000 		.4byte	.LASF22
 327 0109 05       		.byte	0x5
 328 010a 0B01     		.2byte	0x10b
 329 010c B0000000 		.4byte	0xb0
 330 0110 10       		.byte	0x10
 331 0111 07       		.uleb128 0x7
 332 0112 C6020000 		.4byte	.LASF23
 333 0116 05       		.byte	0x5
 334 0117 0C01     		.2byte	0x10c
 335 0119 B0000000 		.4byte	0xb0
 336 011d 14       		.byte	0x14
 337 011e 07       		.uleb128 0x7
 338 011f 5D000000 		.4byte	.LASF24
 339 0123 05       		.byte	0x5
 340 0124 0D01     		.2byte	0x10d
 341 0126 B0000000 		.4byte	0xb0
 342 012a 18       		.byte	0x18
ARM GAS  /tmp/cc6OI3cd.s 			page 7


 343 012b 07       		.uleb128 0x7
 344 012c 4A000000 		.4byte	.LASF25
 345 0130 05       		.byte	0x5
 346 0131 0E01     		.2byte	0x10e
 347 0133 B0000000 		.4byte	0xb0
 348 0137 1C       		.byte	0x1c
 349 0138 00       		.byte	0
 350 0139 08       		.uleb128 0x8
 351 013a 7D020000 		.4byte	.LASF26
 352 013e 05       		.byte	0x5
 353 013f 0F01     		.2byte	0x10f
 354 0141 C7000000 		.4byte	0xc7
 355 0145 03       		.uleb128 0x3
 356 0146 01       		.byte	0x1
 357 0147 08       		.byte	0x8
 358 0148 78010000 		.4byte	.LASF27
 359 014c 05       		.uleb128 0x5
 360 014d 88000000 		.4byte	0x88
 361 0151 08       		.uleb128 0x8
 362 0152 AC020000 		.4byte	.LASF28
 363 0156 06       		.byte	0x6
 364 0157 BC06     		.2byte	0x6bc
 365 0159 93000000 		.4byte	0x93
 366 015d 09       		.uleb128 0x9
 367 015e 1C       		.byte	0x1c
 368 015f 07       		.byte	0x7
 369 0160 A3       		.byte	0xa3
 370 0161 BA010000 		.4byte	0x1ba
 371 0165 0A       		.uleb128 0xa
 372 0166 DF020000 		.4byte	.LASF29
 373 016a 07       		.byte	0x7
 374 016b A5       		.byte	0xa5
 375 016c 93000000 		.4byte	0x93
 376 0170 00       		.byte	0
 377 0171 0A       		.uleb128 0xa
 378 0172 38010000 		.4byte	.LASF30
 379 0176 07       		.byte	0x7
 380 0177 A7       		.byte	0xa7
 381 0178 93000000 		.4byte	0x93
 382 017c 04       		.byte	0x4
 383 017d 0A       		.uleb128 0xa
 384 017e AE000000 		.4byte	.LASF31
 385 0182 07       		.byte	0x7
 386 0183 A9       		.byte	0xa9
 387 0184 93000000 		.4byte	0x93
 388 0188 08       		.byte	0x8
 389 0189 0A       		.uleb128 0xa
 390 018a C0020000 		.4byte	.LASF32
 391 018e 07       		.byte	0x7
 392 018f AB       		.byte	0xab
 393 0190 93000000 		.4byte	0x93
 394 0194 0C       		.byte	0xc
 395 0195 0B       		.uleb128 0xb
 396 0196 6F647200 		.ascii	"odr\000"
 397 019a 07       		.byte	0x7
 398 019b AD       		.byte	0xad
 399 019c 93000000 		.4byte	0x93
ARM GAS  /tmp/cc6OI3cd.s 			page 8


 400 01a0 10       		.byte	0x10
 401 01a1 0A       		.uleb128 0xa
 402 01a2 DA020000 		.4byte	.LASF33
 403 01a6 07       		.byte	0x7
 404 01a7 AF       		.byte	0xaf
 405 01a8 93000000 		.4byte	0x93
 406 01ac 14       		.byte	0x14
 407 01ad 0A       		.uleb128 0xa
 408 01ae CD020000 		.4byte	.LASF34
 409 01b2 07       		.byte	0x7
 410 01b3 B1       		.byte	0xb1
 411 01b4 93000000 		.4byte	0x93
 412 01b8 18       		.byte	0x18
 413 01b9 00       		.byte	0
 414 01ba 04       		.uleb128 0x4
 415 01bb 3F010000 		.4byte	.LASF35
 416 01bf 07       		.byte	0x7
 417 01c0 B2       		.byte	0xb2
 418 01c1 5D010000 		.4byte	0x15d
 419 01c5 09       		.uleb128 0x9
 420 01c6 FC       		.byte	0xfc
 421 01c7 07       		.byte	0x7
 422 01c8 BB       		.byte	0xbb
 423 01c9 3A020000 		.4byte	0x23a
 424 01cd 0A       		.uleb128 0xa
 425 01ce 80000000 		.4byte	.LASF36
 426 01d2 07       		.byte	0x7
 427 01d3 BE       		.byte	0xbe
 428 01d4 BA010000 		.4byte	0x1ba
 429 01d8 00       		.byte	0
 430 01d9 0A       		.uleb128 0xa
 431 01da 96010000 		.4byte	.LASF37
 432 01de 07       		.byte	0x7
 433 01df C2       		.byte	0xc2
 434 01e0 BA010000 		.4byte	0x1ba
 435 01e4 1C       		.byte	0x1c
 436 01e5 0A       		.uleb128 0xa
 437 01e6 F2000000 		.4byte	.LASF38
 438 01ea 07       		.byte	0x7
 439 01eb C6       		.byte	0xc6
 440 01ec BA010000 		.4byte	0x1ba
 441 01f0 38       		.byte	0x38
 442 01f1 0A       		.uleb128 0xa
 443 01f2 BF000000 		.4byte	.LASF39
 444 01f6 07       		.byte	0x7
 445 01f7 CA       		.byte	0xca
 446 01f8 BA010000 		.4byte	0x1ba
 447 01fc 54       		.byte	0x54
 448 01fd 0A       		.uleb128 0xa
 449 01fe 85020000 		.4byte	.LASF40
 450 0202 07       		.byte	0x7
 451 0203 CE       		.byte	0xce
 452 0204 BA010000 		.4byte	0x1ba
 453 0208 70       		.byte	0x70
 454 0209 0A       		.uleb128 0xa
 455 020a 4F000000 		.4byte	.LASF41
 456 020e 07       		.byte	0x7
ARM GAS  /tmp/cc6OI3cd.s 			page 9


 457 020f D2       		.byte	0xd2
 458 0210 BA010000 		.4byte	0x1ba
 459 0214 8C       		.byte	0x8c
 460 0215 0A       		.uleb128 0xa
 461 0216 DF000000 		.4byte	.LASF42
 462 021a 07       		.byte	0x7
 463 021b D6       		.byte	0xd6
 464 021c BA010000 		.4byte	0x1ba
 465 0220 A8       		.byte	0xa8
 466 0221 0A       		.uleb128 0xa
 467 0222 A5020000 		.4byte	.LASF43
 468 0226 07       		.byte	0x7
 469 0227 DA       		.byte	0xda
 470 0228 BA010000 		.4byte	0x1ba
 471 022c C4       		.byte	0xc4
 472 022d 0A       		.uleb128 0xa
 473 022e 56000000 		.4byte	.LASF44
 474 0232 07       		.byte	0x7
 475 0233 DE       		.byte	0xde
 476 0234 BA010000 		.4byte	0x1ba
 477 0238 E0       		.byte	0xe0
 478 0239 00       		.byte	0
 479 023a 04       		.uleb128 0x4
 480 023b 8C010000 		.4byte	.LASF45
 481 023f 07       		.byte	0x7
 482 0240 E0       		.byte	0xe0
 483 0241 C5010000 		.4byte	0x1c5
 484 0245 0C       		.uleb128 0xc
 485 0246 34030000 		.4byte	.LASF60
 486 024a 01       		.byte	0x1
 487 024b AE       		.byte	0xae
 488 024c 9E000000 		.4byte	0x9e
 489 0250 01       		.byte	0x1
 490 0251 77020000 		.4byte	0x277
 491 0255 0D       		.uleb128 0xd
 492 0256 5F010000 		.4byte	.LASF46
 493 025a 01       		.byte	0x1
 494 025b AE       		.byte	0xae
 495 025c 51010000 		.4byte	0x151
 496 0260 0E       		.uleb128 0xe
 497 0261 656E6400 		.ascii	"end\000"
 498 0265 01       		.byte	0x1
 499 0266 AE       		.byte	0xae
 500 0267 51010000 		.4byte	0x151
 501 026b 0F       		.uleb128 0xf
 502 026c 6E6F7700 		.ascii	"now\000"
 503 0270 01       		.byte	0x1
 504 0271 AF       		.byte	0xaf
 505 0272 51010000 		.4byte	0x151
 506 0276 00       		.byte	0
 507 0277 10       		.uleb128 0x10
 508 0278 95000000 		.4byte	.LASF47
 509 027c 01       		.byte	0x1
 510 027d 44       		.byte	0x44
 511 027e 00000000 		.4byte	.LFB118
 512 0282 20000000 		.4byte	.LFE118-.LFB118
 513 0286 01       		.uleb128 0x1
ARM GAS  /tmp/cc6OI3cd.s 			page 10


 514 0287 9C       		.byte	0x9c
 515 0288 BA020000 		.4byte	0x2ba
 516 028c 11       		.uleb128 0x11
 517 028d 06000000 		.4byte	.LVL0
 518 0291 72030000 		.4byte	0x372
 519 0295 11       		.uleb128 0x11
 520 0296 0C000000 		.4byte	.LVL1
 521 029a 7E030000 		.4byte	0x37e
 522 029e 11       		.uleb128 0x11
 523 029f 10000000 		.4byte	.LVL2
 524 02a3 8A030000 		.4byte	0x38a
 525 02a7 11       		.uleb128 0x11
 526 02a8 14000000 		.4byte	.LVL3
 527 02ac 96030000 		.4byte	0x396
 528 02b0 12       		.uleb128 0x12
 529 02b1 1C000000 		.4byte	.LVL4
 530 02b5 A2030000 		.4byte	0x3a2
 531 02b9 00       		.byte	0
 532 02ba 13       		.uleb128 0x13
 533 02bb 45020000 		.4byte	0x245
 534 02bf 00000000 		.4byte	.LFB119
 535 02c3 28000000 		.4byte	.LFE119-.LFB119
 536 02c7 01       		.uleb128 0x1
 537 02c8 9C       		.byte	0x9c
 538 02c9 E5020000 		.4byte	0x2e5
 539 02cd 14       		.uleb128 0x14
 540 02ce 55020000 		.4byte	0x255
 541 02d2 00000000 		.4byte	.LLST0
 542 02d6 15       		.uleb128 0x15
 543 02d7 60020000 		.4byte	0x260
 544 02db 01       		.uleb128 0x1
 545 02dc 51       		.byte	0x51
 546 02dd 16       		.uleb128 0x16
 547 02de 6B020000 		.4byte	0x26b
 548 02e2 01       		.uleb128 0x1
 549 02e3 53       		.byte	0x53
 550 02e4 00       		.byte	0
 551 02e5 10       		.uleb128 0x10
 552 02e6 C6000000 		.4byte	.LASF48
 553 02ea 01       		.byte	0x1
 554 02eb C1       		.byte	0xc1
 555 02ec 00000000 		.4byte	.LFB120
 556 02f0 28000000 		.4byte	.LFE120-.LFB120
 557 02f4 01       		.uleb128 0x1
 558 02f5 9C       		.byte	0x9c
 559 02f6 55030000 		.4byte	0x355
 560 02fa 17       		.uleb128 0x17
 561 02fb 00000000 		.4byte	.LASF61
 562 02ff 01       		.byte	0x1
 563 0300 C1       		.byte	0xc1
 564 0301 51010000 		.4byte	0x151
 565 0305 53000000 		.4byte	.LLST1
 566 0309 18       		.uleb128 0x18
 567 030a 5F010000 		.4byte	.LASF46
 568 030e 01       		.byte	0x1
 569 030f C2       		.byte	0xc2
 570 0310 51010000 		.4byte	0x151
ARM GAS  /tmp/cc6OI3cd.s 			page 11


 571 0314 01       		.uleb128 0x1
 572 0315 52       		.byte	0x52
 573 0316 18       		.uleb128 0x18
 574 0317 4E030000 		.4byte	.LASF49
 575 031b 01       		.byte	0x1
 576 031c C3       		.byte	0xc3
 577 031d 51010000 		.4byte	0x151
 578 0321 01       		.uleb128 0x1
 579 0322 50       		.byte	0x50
 580 0323 19       		.uleb128 0x19
 581 0324 45020000 		.4byte	0x245
 582 0328 06000000 		.4byte	.LBB4
 583 032c 00000000 		.4byte	.Ldebug_ranges0+0
 584 0330 01       		.byte	0x1
 585 0331 C4       		.byte	0xc4
 586 0332 14       		.uleb128 0x14
 587 0333 60020000 		.4byte	0x260
 588 0337 74000000 		.4byte	.LLST2
 589 033b 14       		.uleb128 0x14
 590 033c 55020000 		.4byte	0x255
 591 0340 92000000 		.4byte	.LLST3
 592 0344 1A       		.uleb128 0x1a
 593 0345 00000000 		.4byte	.Ldebug_ranges0+0
 594 0349 1B       		.uleb128 0x1b
 595 034a 6B020000 		.4byte	0x26b
 596 034e B0000000 		.4byte	.LLST4
 597 0352 00       		.byte	0
 598 0353 00       		.byte	0
 599 0354 00       		.byte	0
 600 0355 1C       		.uleb128 0x1c
 601 0356 1A030000 		.4byte	.LASF50
 602 035a 08       		.byte	0x8
 603 035b 9806     		.2byte	0x698
 604 035d 4C010000 		.4byte	0x14c
 605 0361 1C       		.uleb128 0x1c
 606 0362 E5020000 		.4byte	.LASF51
 607 0366 07       		.byte	0x7
 608 0367 BC01     		.2byte	0x1bc
 609 0369 6D030000 		.4byte	0x36d
 610 036d 1D       		.uleb128 0x1d
 611 036e 3A020000 		.4byte	0x23a
 612 0372 1E       		.uleb128 0x1e
 613 0373 52010000 		.4byte	.LASF52
 614 0377 52010000 		.4byte	.LASF52
 615 037b 06       		.byte	0x6
 616 037c E506     		.2byte	0x6e5
 617 037e 1E       		.uleb128 0x1e
 618 037f 06000000 		.4byte	.LASF53
 619 0383 06000000 		.4byte	.LASF53
 620 0387 07       		.byte	0x7
 621 0388 C101     		.2byte	0x1c1
 622 038a 1E       		.uleb128 0x1e
 623 038b D2020000 		.4byte	.LASF54
 624 038f D2020000 		.4byte	.LASF54
 625 0393 09       		.byte	0x9
 626 0394 1C01     		.2byte	0x11c
 627 0396 1E       		.uleb128 0x1e
ARM GAS  /tmp/cc6OI3cd.s 			page 12


 628 0397 65000000 		.4byte	.LASF55
 629 039b 65000000 		.4byte	.LASF55
 630 039f 0A       		.byte	0xa
 631 03a0 2902     		.2byte	0x229
 632 03a2 1E       		.uleb128 0x1e
 633 03a3 D5000000 		.4byte	.LASF56
 634 03a7 D5000000 		.4byte	.LASF56
 635 03ab 0B       		.byte	0xb
 636 03ac 0A05     		.2byte	0x50a
 637 03ae 00       		.byte	0
 638              		.section	.debug_abbrev,"",%progbits
 639              	.Ldebug_abbrev0:
 640 0000 01       		.uleb128 0x1
 641 0001 11       		.uleb128 0x11
 642 0002 01       		.byte	0x1
 643 0003 25       		.uleb128 0x25
 644 0004 0E       		.uleb128 0xe
 645 0005 13       		.uleb128 0x13
 646 0006 0B       		.uleb128 0xb
 647 0007 03       		.uleb128 0x3
 648 0008 0E       		.uleb128 0xe
 649 0009 1B       		.uleb128 0x1b
 650 000a 0E       		.uleb128 0xe
 651 000b 55       		.uleb128 0x55
 652 000c 17       		.uleb128 0x17
 653 000d 11       		.uleb128 0x11
 654 000e 01       		.uleb128 0x1
 655 000f 10       		.uleb128 0x10
 656 0010 17       		.uleb128 0x17
 657 0011 00       		.byte	0
 658 0012 00       		.byte	0
 659 0013 02       		.uleb128 0x2
 660 0014 24       		.uleb128 0x24
 661 0015 00       		.byte	0
 662 0016 0B       		.uleb128 0xb
 663 0017 0B       		.uleb128 0xb
 664 0018 3E       		.uleb128 0x3e
 665 0019 0B       		.uleb128 0xb
 666 001a 03       		.uleb128 0x3
 667 001b 08       		.uleb128 0x8
 668 001c 00       		.byte	0
 669 001d 00       		.byte	0
 670 001e 03       		.uleb128 0x3
 671 001f 24       		.uleb128 0x24
 672 0020 00       		.byte	0
 673 0021 0B       		.uleb128 0xb
 674 0022 0B       		.uleb128 0xb
 675 0023 3E       		.uleb128 0x3e
 676 0024 0B       		.uleb128 0xb
 677 0025 03       		.uleb128 0x3
 678 0026 0E       		.uleb128 0xe
 679 0027 00       		.byte	0
 680 0028 00       		.byte	0
 681 0029 04       		.uleb128 0x4
 682 002a 16       		.uleb128 0x16
 683 002b 00       		.byte	0
 684 002c 03       		.uleb128 0x3
ARM GAS  /tmp/cc6OI3cd.s 			page 13


 685 002d 0E       		.uleb128 0xe
 686 002e 3A       		.uleb128 0x3a
 687 002f 0B       		.uleb128 0xb
 688 0030 3B       		.uleb128 0x3b
 689 0031 0B       		.uleb128 0xb
 690 0032 49       		.uleb128 0x49
 691 0033 13       		.uleb128 0x13
 692 0034 00       		.byte	0
 693 0035 00       		.byte	0
 694 0036 05       		.uleb128 0x5
 695 0037 35       		.uleb128 0x35
 696 0038 00       		.byte	0
 697 0039 49       		.uleb128 0x49
 698 003a 13       		.uleb128 0x13
 699 003b 00       		.byte	0
 700 003c 00       		.byte	0
 701 003d 06       		.uleb128 0x6
 702 003e 13       		.uleb128 0x13
 703 003f 01       		.byte	0x1
 704 0040 0B       		.uleb128 0xb
 705 0041 0B       		.uleb128 0xb
 706 0042 3A       		.uleb128 0x3a
 707 0043 0B       		.uleb128 0xb
 708 0044 3B       		.uleb128 0x3b
 709 0045 05       		.uleb128 0x5
 710 0046 01       		.uleb128 0x1
 711 0047 13       		.uleb128 0x13
 712 0048 00       		.byte	0
 713 0049 00       		.byte	0
 714 004a 07       		.uleb128 0x7
 715 004b 0D       		.uleb128 0xd
 716 004c 00       		.byte	0
 717 004d 03       		.uleb128 0x3
 718 004e 0E       		.uleb128 0xe
 719 004f 3A       		.uleb128 0x3a
 720 0050 0B       		.uleb128 0xb
 721 0051 3B       		.uleb128 0x3b
 722 0052 05       		.uleb128 0x5
 723 0053 49       		.uleb128 0x49
 724 0054 13       		.uleb128 0x13
 725 0055 38       		.uleb128 0x38
 726 0056 0B       		.uleb128 0xb
 727 0057 00       		.byte	0
 728 0058 00       		.byte	0
 729 0059 08       		.uleb128 0x8
 730 005a 16       		.uleb128 0x16
 731 005b 00       		.byte	0
 732 005c 03       		.uleb128 0x3
 733 005d 0E       		.uleb128 0xe
 734 005e 3A       		.uleb128 0x3a
 735 005f 0B       		.uleb128 0xb
 736 0060 3B       		.uleb128 0x3b
 737 0061 05       		.uleb128 0x5
 738 0062 49       		.uleb128 0x49
 739 0063 13       		.uleb128 0x13
 740 0064 00       		.byte	0
 741 0065 00       		.byte	0
ARM GAS  /tmp/cc6OI3cd.s 			page 14


 742 0066 09       		.uleb128 0x9
 743 0067 13       		.uleb128 0x13
 744 0068 01       		.byte	0x1
 745 0069 0B       		.uleb128 0xb
 746 006a 0B       		.uleb128 0xb
 747 006b 3A       		.uleb128 0x3a
 748 006c 0B       		.uleb128 0xb
 749 006d 3B       		.uleb128 0x3b
 750 006e 0B       		.uleb128 0xb
 751 006f 01       		.uleb128 0x1
 752 0070 13       		.uleb128 0x13
 753 0071 00       		.byte	0
 754 0072 00       		.byte	0
 755 0073 0A       		.uleb128 0xa
 756 0074 0D       		.uleb128 0xd
 757 0075 00       		.byte	0
 758 0076 03       		.uleb128 0x3
 759 0077 0E       		.uleb128 0xe
 760 0078 3A       		.uleb128 0x3a
 761 0079 0B       		.uleb128 0xb
 762 007a 3B       		.uleb128 0x3b
 763 007b 0B       		.uleb128 0xb
 764 007c 49       		.uleb128 0x49
 765 007d 13       		.uleb128 0x13
 766 007e 38       		.uleb128 0x38
 767 007f 0B       		.uleb128 0xb
 768 0080 00       		.byte	0
 769 0081 00       		.byte	0
 770 0082 0B       		.uleb128 0xb
 771 0083 0D       		.uleb128 0xd
 772 0084 00       		.byte	0
 773 0085 03       		.uleb128 0x3
 774 0086 08       		.uleb128 0x8
 775 0087 3A       		.uleb128 0x3a
 776 0088 0B       		.uleb128 0xb
 777 0089 3B       		.uleb128 0x3b
 778 008a 0B       		.uleb128 0xb
 779 008b 49       		.uleb128 0x49
 780 008c 13       		.uleb128 0x13
 781 008d 38       		.uleb128 0x38
 782 008e 0B       		.uleb128 0xb
 783 008f 00       		.byte	0
 784 0090 00       		.byte	0
 785 0091 0C       		.uleb128 0xc
 786 0092 2E       		.uleb128 0x2e
 787 0093 01       		.byte	0x1
 788 0094 3F       		.uleb128 0x3f
 789 0095 19       		.uleb128 0x19
 790 0096 03       		.uleb128 0x3
 791 0097 0E       		.uleb128 0xe
 792 0098 3A       		.uleb128 0x3a
 793 0099 0B       		.uleb128 0xb
 794 009a 3B       		.uleb128 0x3b
 795 009b 0B       		.uleb128 0xb
 796 009c 27       		.uleb128 0x27
 797 009d 19       		.uleb128 0x19
 798 009e 49       		.uleb128 0x49
ARM GAS  /tmp/cc6OI3cd.s 			page 15


 799 009f 13       		.uleb128 0x13
 800 00a0 20       		.uleb128 0x20
 801 00a1 0B       		.uleb128 0xb
 802 00a2 01       		.uleb128 0x1
 803 00a3 13       		.uleb128 0x13
 804 00a4 00       		.byte	0
 805 00a5 00       		.byte	0
 806 00a6 0D       		.uleb128 0xd
 807 00a7 05       		.uleb128 0x5
 808 00a8 00       		.byte	0
 809 00a9 03       		.uleb128 0x3
 810 00aa 0E       		.uleb128 0xe
 811 00ab 3A       		.uleb128 0x3a
 812 00ac 0B       		.uleb128 0xb
 813 00ad 3B       		.uleb128 0x3b
 814 00ae 0B       		.uleb128 0xb
 815 00af 49       		.uleb128 0x49
 816 00b0 13       		.uleb128 0x13
 817 00b1 00       		.byte	0
 818 00b2 00       		.byte	0
 819 00b3 0E       		.uleb128 0xe
 820 00b4 05       		.uleb128 0x5
 821 00b5 00       		.byte	0
 822 00b6 03       		.uleb128 0x3
 823 00b7 08       		.uleb128 0x8
 824 00b8 3A       		.uleb128 0x3a
 825 00b9 0B       		.uleb128 0xb
 826 00ba 3B       		.uleb128 0x3b
 827 00bb 0B       		.uleb128 0xb
 828 00bc 49       		.uleb128 0x49
 829 00bd 13       		.uleb128 0x13
 830 00be 00       		.byte	0
 831 00bf 00       		.byte	0
 832 00c0 0F       		.uleb128 0xf
 833 00c1 34       		.uleb128 0x34
 834 00c2 00       		.byte	0
 835 00c3 03       		.uleb128 0x3
 836 00c4 08       		.uleb128 0x8
 837 00c5 3A       		.uleb128 0x3a
 838 00c6 0B       		.uleb128 0xb
 839 00c7 3B       		.uleb128 0x3b
 840 00c8 0B       		.uleb128 0xb
 841 00c9 49       		.uleb128 0x49
 842 00ca 13       		.uleb128 0x13
 843 00cb 00       		.byte	0
 844 00cc 00       		.byte	0
 845 00cd 10       		.uleb128 0x10
 846 00ce 2E       		.uleb128 0x2e
 847 00cf 01       		.byte	0x1
 848 00d0 3F       		.uleb128 0x3f
 849 00d1 19       		.uleb128 0x19
 850 00d2 03       		.uleb128 0x3
 851 00d3 0E       		.uleb128 0xe
 852 00d4 3A       		.uleb128 0x3a
 853 00d5 0B       		.uleb128 0xb
 854 00d6 3B       		.uleb128 0x3b
 855 00d7 0B       		.uleb128 0xb
ARM GAS  /tmp/cc6OI3cd.s 			page 16


 856 00d8 27       		.uleb128 0x27
 857 00d9 19       		.uleb128 0x19
 858 00da 11       		.uleb128 0x11
 859 00db 01       		.uleb128 0x1
 860 00dc 12       		.uleb128 0x12
 861 00dd 06       		.uleb128 0x6
 862 00de 40       		.uleb128 0x40
 863 00df 18       		.uleb128 0x18
 864 00e0 9742     		.uleb128 0x2117
 865 00e2 19       		.uleb128 0x19
 866 00e3 01       		.uleb128 0x1
 867 00e4 13       		.uleb128 0x13
 868 00e5 00       		.byte	0
 869 00e6 00       		.byte	0
 870 00e7 11       		.uleb128 0x11
 871 00e8 898201   		.uleb128 0x4109
 872 00eb 00       		.byte	0
 873 00ec 11       		.uleb128 0x11
 874 00ed 01       		.uleb128 0x1
 875 00ee 31       		.uleb128 0x31
 876 00ef 13       		.uleb128 0x13
 877 00f0 00       		.byte	0
 878 00f1 00       		.byte	0
 879 00f2 12       		.uleb128 0x12
 880 00f3 898201   		.uleb128 0x4109
 881 00f6 00       		.byte	0
 882 00f7 11       		.uleb128 0x11
 883 00f8 01       		.uleb128 0x1
 884 00f9 9542     		.uleb128 0x2115
 885 00fb 19       		.uleb128 0x19
 886 00fc 31       		.uleb128 0x31
 887 00fd 13       		.uleb128 0x13
 888 00fe 00       		.byte	0
 889 00ff 00       		.byte	0
 890 0100 13       		.uleb128 0x13
 891 0101 2E       		.uleb128 0x2e
 892 0102 01       		.byte	0x1
 893 0103 31       		.uleb128 0x31
 894 0104 13       		.uleb128 0x13
 895 0105 11       		.uleb128 0x11
 896 0106 01       		.uleb128 0x1
 897 0107 12       		.uleb128 0x12
 898 0108 06       		.uleb128 0x6
 899 0109 40       		.uleb128 0x40
 900 010a 18       		.uleb128 0x18
 901 010b 9742     		.uleb128 0x2117
 902 010d 19       		.uleb128 0x19
 903 010e 01       		.uleb128 0x1
 904 010f 13       		.uleb128 0x13
 905 0110 00       		.byte	0
 906 0111 00       		.byte	0
 907 0112 14       		.uleb128 0x14
 908 0113 05       		.uleb128 0x5
 909 0114 00       		.byte	0
 910 0115 31       		.uleb128 0x31
 911 0116 13       		.uleb128 0x13
 912 0117 02       		.uleb128 0x2
ARM GAS  /tmp/cc6OI3cd.s 			page 17


 913 0118 17       		.uleb128 0x17
 914 0119 00       		.byte	0
 915 011a 00       		.byte	0
 916 011b 15       		.uleb128 0x15
 917 011c 05       		.uleb128 0x5
 918 011d 00       		.byte	0
 919 011e 31       		.uleb128 0x31
 920 011f 13       		.uleb128 0x13
 921 0120 02       		.uleb128 0x2
 922 0121 18       		.uleb128 0x18
 923 0122 00       		.byte	0
 924 0123 00       		.byte	0
 925 0124 16       		.uleb128 0x16
 926 0125 34       		.uleb128 0x34
 927 0126 00       		.byte	0
 928 0127 31       		.uleb128 0x31
 929 0128 13       		.uleb128 0x13
 930 0129 02       		.uleb128 0x2
 931 012a 18       		.uleb128 0x18
 932 012b 00       		.byte	0
 933 012c 00       		.byte	0
 934 012d 17       		.uleb128 0x17
 935 012e 05       		.uleb128 0x5
 936 012f 00       		.byte	0
 937 0130 03       		.uleb128 0x3
 938 0131 0E       		.uleb128 0xe
 939 0132 3A       		.uleb128 0x3a
 940 0133 0B       		.uleb128 0xb
 941 0134 3B       		.uleb128 0x3b
 942 0135 0B       		.uleb128 0xb
 943 0136 49       		.uleb128 0x49
 944 0137 13       		.uleb128 0x13
 945 0138 02       		.uleb128 0x2
 946 0139 17       		.uleb128 0x17
 947 013a 00       		.byte	0
 948 013b 00       		.byte	0
 949 013c 18       		.uleb128 0x18
 950 013d 34       		.uleb128 0x34
 951 013e 00       		.byte	0
 952 013f 03       		.uleb128 0x3
 953 0140 0E       		.uleb128 0xe
 954 0141 3A       		.uleb128 0x3a
 955 0142 0B       		.uleb128 0xb
 956 0143 3B       		.uleb128 0x3b
 957 0144 0B       		.uleb128 0xb
 958 0145 49       		.uleb128 0x49
 959 0146 13       		.uleb128 0x13
 960 0147 02       		.uleb128 0x2
 961 0148 18       		.uleb128 0x18
 962 0149 00       		.byte	0
 963 014a 00       		.byte	0
 964 014b 19       		.uleb128 0x19
 965 014c 1D       		.uleb128 0x1d
 966 014d 01       		.byte	0x1
 967 014e 31       		.uleb128 0x31
 968 014f 13       		.uleb128 0x13
 969 0150 52       		.uleb128 0x52
ARM GAS  /tmp/cc6OI3cd.s 			page 18


 970 0151 01       		.uleb128 0x1
 971 0152 55       		.uleb128 0x55
 972 0153 17       		.uleb128 0x17
 973 0154 58       		.uleb128 0x58
 974 0155 0B       		.uleb128 0xb
 975 0156 59       		.uleb128 0x59
 976 0157 0B       		.uleb128 0xb
 977 0158 00       		.byte	0
 978 0159 00       		.byte	0
 979 015a 1A       		.uleb128 0x1a
 980 015b 0B       		.uleb128 0xb
 981 015c 01       		.byte	0x1
 982 015d 55       		.uleb128 0x55
 983 015e 17       		.uleb128 0x17
 984 015f 00       		.byte	0
 985 0160 00       		.byte	0
 986 0161 1B       		.uleb128 0x1b
 987 0162 34       		.uleb128 0x34
 988 0163 00       		.byte	0
 989 0164 31       		.uleb128 0x31
 990 0165 13       		.uleb128 0x13
 991 0166 02       		.uleb128 0x2
 992 0167 17       		.uleb128 0x17
 993 0168 00       		.byte	0
 994 0169 00       		.byte	0
 995 016a 1C       		.uleb128 0x1c
 996 016b 34       		.uleb128 0x34
 997 016c 00       		.byte	0
 998 016d 03       		.uleb128 0x3
 999 016e 0E       		.uleb128 0xe
 1000 016f 3A       		.uleb128 0x3a
 1001 0170 0B       		.uleb128 0xb
 1002 0171 3B       		.uleb128 0x3b
 1003 0172 05       		.uleb128 0x5
 1004 0173 49       		.uleb128 0x49
 1005 0174 13       		.uleb128 0x13
 1006 0175 3F       		.uleb128 0x3f
 1007 0176 19       		.uleb128 0x19
 1008 0177 3C       		.uleb128 0x3c
 1009 0178 19       		.uleb128 0x19
 1010 0179 00       		.byte	0
 1011 017a 00       		.byte	0
 1012 017b 1D       		.uleb128 0x1d
 1013 017c 26       		.uleb128 0x26
 1014 017d 00       		.byte	0
 1015 017e 49       		.uleb128 0x49
 1016 017f 13       		.uleb128 0x13
 1017 0180 00       		.byte	0
 1018 0181 00       		.byte	0
 1019 0182 1E       		.uleb128 0x1e
 1020 0183 2E       		.uleb128 0x2e
 1021 0184 00       		.byte	0
 1022 0185 3F       		.uleb128 0x3f
 1023 0186 19       		.uleb128 0x19
 1024 0187 3C       		.uleb128 0x3c
 1025 0188 19       		.uleb128 0x19
 1026 0189 6E       		.uleb128 0x6e
ARM GAS  /tmp/cc6OI3cd.s 			page 19


 1027 018a 0E       		.uleb128 0xe
 1028 018b 03       		.uleb128 0x3
 1029 018c 0E       		.uleb128 0xe
 1030 018d 3A       		.uleb128 0x3a
 1031 018e 0B       		.uleb128 0xb
 1032 018f 3B       		.uleb128 0x3b
 1033 0190 05       		.uleb128 0x5
 1034 0191 00       		.byte	0
 1035 0192 00       		.byte	0
 1036 0193 00       		.byte	0
 1037              		.section	.debug_loc,"",%progbits
 1038              	.Ldebug_loc0:
 1039              	.LLST0:
 1040 0000 00000000 		.4byte	.LVL5
 1041 0004 12000000 		.4byte	.LVL7
 1042 0008 0100     		.2byte	0x1
 1043 000a 50       		.byte	0x50
 1044 000b 12000000 		.4byte	.LVL7
 1045 000f 16000000 		.4byte	.LVL8
 1046 0013 0400     		.2byte	0x4
 1047 0015 F3       		.byte	0xf3
 1048 0016 01       		.uleb128 0x1
 1049 0017 50       		.byte	0x50
 1050 0018 9F       		.byte	0x9f
 1051 0019 16000000 		.4byte	.LVL8
 1052 001d 1C000000 		.4byte	.LVL9
 1053 0021 0100     		.2byte	0x1
 1054 0023 50       		.byte	0x50
 1055 0024 1C000000 		.4byte	.LVL9
 1056 0028 1E000000 		.4byte	.LVL10
 1057 002c 0400     		.2byte	0x4
 1058 002e F3       		.byte	0xf3
 1059 002f 01       		.uleb128 0x1
 1060 0030 50       		.byte	0x50
 1061 0031 9F       		.byte	0x9f
 1062 0032 1E000000 		.4byte	.LVL10
 1063 0036 20000000 		.4byte	.LVL11
 1064 003a 0100     		.2byte	0x1
 1065 003c 50       		.byte	0x50
 1066 003d 20000000 		.4byte	.LVL11
 1067 0041 28000000 		.4byte	.LFE119
 1068 0045 0400     		.2byte	0x4
 1069 0047 F3       		.byte	0xf3
 1070 0048 01       		.uleb128 0x1
 1071 0049 50       		.byte	0x50
 1072 004a 9F       		.byte	0x9f
 1073 004b 00000000 		.4byte	0
 1074 004f 00000000 		.4byte	0
 1075              	.LLST1:
 1076 0053 00000000 		.4byte	.LVL12
 1077 0057 06000000 		.4byte	.LVL14
 1078 005b 0100     		.2byte	0x1
 1079 005d 50       		.byte	0x50
 1080 005e 06000000 		.4byte	.LVL14
 1081 0062 28000000 		.4byte	.LFE120
 1082 0066 0400     		.2byte	0x4
 1083 0068 F3       		.byte	0xf3
ARM GAS  /tmp/cc6OI3cd.s 			page 20


 1084 0069 01       		.uleb128 0x1
 1085 006a 50       		.byte	0x50
 1086 006b 9F       		.byte	0x9f
 1087 006c 00000000 		.4byte	0
 1088 0070 00000000 		.4byte	0
 1089              	.LLST2:
 1090 0074 06000000 		.4byte	.LVL14
 1091 0078 10000000 		.4byte	.LVL16
 1092 007c 0100     		.2byte	0x1
 1093 007e 50       		.byte	0x50
 1094 007f 1C000000 		.4byte	.LVL18
 1095 0083 28000000 		.4byte	.LFE120
 1096 0087 0100     		.2byte	0x1
 1097 0089 50       		.byte	0x50
 1098 008a 00000000 		.4byte	0
 1099 008e 00000000 		.4byte	0
 1100              	.LLST3:
 1101 0092 06000000 		.4byte	.LVL14
 1102 0096 10000000 		.4byte	.LVL16
 1103 009a 0100     		.2byte	0x1
 1104 009c 52       		.byte	0x52
 1105 009d 1C000000 		.4byte	.LVL18
 1106 00a1 28000000 		.4byte	.LFE120
 1107 00a5 0100     		.2byte	0x1
 1108 00a7 52       		.byte	0x52
 1109 00a8 00000000 		.4byte	0
 1110 00ac 00000000 		.4byte	0
 1111              	.LLST4:
 1112 00b0 0A000000 		.4byte	.LVL15
 1113 00b4 10000000 		.4byte	.LVL16
 1114 00b8 0100     		.2byte	0x1
 1115 00ba 53       		.byte	0x53
 1116 00bb 1C000000 		.4byte	.LVL18
 1117 00bf 28000000 		.4byte	.LFE120
 1118 00c3 0100     		.2byte	0x1
 1119 00c5 53       		.byte	0x53
 1120 00c6 00000000 		.4byte	0
 1121 00ca 00000000 		.4byte	0
 1122              		.section	.debug_aranges,"",%progbits
 1123 0000 2C000000 		.4byte	0x2c
 1124 0004 0200     		.2byte	0x2
 1125 0006 00000000 		.4byte	.Ldebug_info0
 1126 000a 04       		.byte	0x4
 1127 000b 00       		.byte	0
 1128 000c 0000     		.2byte	0
 1129 000e 0000     		.2byte	0
 1130 0010 00000000 		.4byte	.LFB118
 1131 0014 20000000 		.4byte	.LFE118-.LFB118
 1132 0018 00000000 		.4byte	.LFB119
 1133 001c 28000000 		.4byte	.LFE119-.LFB119
 1134 0020 00000000 		.4byte	.LFB120
 1135 0024 28000000 		.4byte	.LFE120-.LFB120
 1136 0028 00000000 		.4byte	0
 1137 002c 00000000 		.4byte	0
 1138              		.section	.debug_ranges,"",%progbits
 1139              	.Ldebug_ranges0:
 1140 0000 06000000 		.4byte	.LBB4
ARM GAS  /tmp/cc6OI3cd.s 			page 21


 1141 0004 16000000 		.4byte	.LBE4
 1142 0008 1C000000 		.4byte	.LBB7
 1143 000c 28000000 		.4byte	.LBE7
 1144 0010 00000000 		.4byte	0
 1145 0014 00000000 		.4byte	0
 1146 0018 00000000 		.4byte	.LFB118
 1147 001c 20000000 		.4byte	.LFE118
 1148 0020 00000000 		.4byte	.LFB119
 1149 0024 28000000 		.4byte	.LFE119
 1150 0028 00000000 		.4byte	.LFB120
 1151 002c 28000000 		.4byte	.LFE120
 1152 0030 00000000 		.4byte	0
 1153 0034 00000000 		.4byte	0
 1154              		.section	.debug_line,"",%progbits
 1155              	.Ldebug_line0:
 1156 0000 D2020000 		.section	.debug_str,"MS",%progbits,1
 1156      02006802 
 1156      00000201 
 1156      FB0E0D00 
 1156      01010101 
 1157              	.LASF61:
 1158 0000 7469636B 		.ascii	"ticks\000"
 1158      7300
 1159              	.LASF53:
 1160 0006 5F70616C 		.ascii	"_pal_lld_init\000"
 1160      5F6C6C64 
 1160      5F696E69 
 1160      7400
 1161              	.LASF59:
 1162 0014 2F686F6D 		.ascii	"/home/mark/repos/pc_gamecontroller\000"
 1162      652F6D61 
 1162      726B2F72 
 1162      65706F73 
 1162      2F70635F 
 1163              	.LASF5:
 1164 0037 73686F72 		.ascii	"short int\000"
 1164      7420696E 
 1164      7400
 1165              	.LASF17:
 1166 0041 73697A65 		.ascii	"sizetype\000"
 1166      74797065 
 1166      00
 1167              	.LASF25:
 1168 004a 50435352 		.ascii	"PCSR\000"
 1168      00
 1169              	.LASF41:
 1170 004f 50464461 		.ascii	"PFData\000"
 1170      746100
 1171              	.LASF44:
 1172 0056 50494461 		.ascii	"PIData\000"
 1172      746100
 1173              	.LASF24:
 1174 005d 464F4C44 		.ascii	"FOLDCNT\000"
 1174      434E5400 
 1175              	.LASF55:
 1176 0065 75736249 		.ascii	"usbInit\000"
 1176      6E697400 
ARM GAS  /tmp/cc6OI3cd.s 			page 22


 1177              	.LASF9:
 1178 006d 5F5F7569 		.ascii	"__uint32_t\000"
 1178      6E743332 
 1178      5F7400
 1179              	.LASF16:
 1180 0078 494F5245 		.ascii	"IOREG32\000"
 1180      47333200 
 1181              	.LASF36:
 1182 0080 50414461 		.ascii	"PAData\000"
 1182      746100
 1183              	.LASF1:
 1184 0087 6C6F6E67 		.ascii	"long long int\000"
 1184      206C6F6E 
 1184      6720696E 
 1184      7400
 1185              	.LASF47:
 1186 0095 68616C49 		.ascii	"halInit\000"
 1186      6E697400 
 1187              	.LASF19:
 1188 009d 43594343 		.ascii	"CYCCNT\000"
 1188      4E5400
 1189              	.LASF8:
 1190 00a4 5F5F696E 		.ascii	"__int32_t\000"
 1190      7433325F 
 1190      7400
 1191              	.LASF31:
 1192 00ae 6F737065 		.ascii	"ospeedr\000"
 1192      65647200 
 1193              	.LASF7:
 1194 00b6 6C6F6E67 		.ascii	"long int\000"
 1194      20696E74 
 1194      00
 1195              	.LASF39:
 1196 00bf 50444461 		.ascii	"PDData\000"
 1196      746100
 1197              	.LASF48:
 1198 00c6 68616C50 		.ascii	"halPolledDelay\000"
 1198      6F6C6C65 
 1198      6444656C 
 1198      617900
 1199              	.LASF56:
 1200 00d5 626F6172 		.ascii	"boardInit\000"
 1200      64496E69 
 1200      7400
 1201              	.LASF42:
 1202 00df 50474461 		.ascii	"PGData\000"
 1202      746100
 1203              	.LASF2:
 1204 00e6 6C6F6E67 		.ascii	"long double\000"
 1204      20646F75 
 1204      626C6500 
 1205              	.LASF38:
 1206 00f2 50434461 		.ascii	"PCData\000"
 1206      746100
 1207              	.LASF4:
 1208 00f9 756E7369 		.ascii	"unsigned char\000"
 1208      676E6564 
ARM GAS  /tmp/cc6OI3cd.s 			page 23


 1208      20636861 
 1208      7200
 1209              	.LASF18:
 1210 0107 4354524C 		.ascii	"CTRL\000"
 1210      00
 1211              	.LASF3:
 1212 010c 7369676E 		.ascii	"signed char\000"
 1212      65642063 
 1212      68617200 
 1213              	.LASF11:
 1214 0118 6C6F6E67 		.ascii	"long long unsigned int\000"
 1214      206C6F6E 
 1214      6720756E 
 1214      7369676E 
 1214      65642069 
 1215              	.LASF13:
 1216 012f 75696E74 		.ascii	"uint32_t\000"
 1216      33325F74 
 1216      00
 1217              	.LASF30:
 1218 0138 6F747970 		.ascii	"otyper\000"
 1218      657200
 1219              	.LASF35:
 1220 013f 73746D33 		.ascii	"stm32_gpio_setup_t\000"
 1220      325F6770 
 1220      696F5F73 
 1220      65747570 
 1220      5F7400
 1221              	.LASF52:
 1222 0152 68616C5F 		.ascii	"hal_lld_init\000"
 1222      6C6C645F 
 1222      696E6974 
 1222      00
 1223              	.LASF46:
 1224 015f 73746172 		.ascii	"start\000"
 1224      7400
 1225              	.LASF6:
 1226 0165 73686F72 		.ascii	"short unsigned int\000"
 1226      7420756E 
 1226      7369676E 
 1226      65642069 
 1226      6E7400
 1227              	.LASF27:
 1228 0178 63686172 		.ascii	"char\000"
 1228      00
 1229              	.LASF12:
 1230 017d 696E7433 		.ascii	"int32_t\000"
 1230      325F7400 
 1231              	.LASF14:
 1232 0185 626F6F6C 		.ascii	"bool_t\000"
 1232      5F7400
 1233              	.LASF45:
 1234 018c 50414C43 		.ascii	"PALConfig\000"
 1234      6F6E6669 
 1234      6700
 1235              	.LASF37:
 1236 0196 50424461 		.ascii	"PBData\000"
ARM GAS  /tmp/cc6OI3cd.s 			page 24


 1236      746100
 1237              	.LASF15:
 1238 019d 5F426F6F 		.ascii	"_Bool\000"
 1238      6C00
 1239              	.LASF57:
 1240 01a3 474E5520 		.ascii	"GNU C11 5.4.1 20160919 (release) [ARM/embedded-5-br"
 1240      43313120 
 1240      352E342E 
 1240      31203230 
 1240      31363039 
 1241 01d6 616E6368 		.ascii	"anch revision 240496] -mcpu=cortex-m4 -mno-thumb-in"
 1241      20726576 
 1241      6973696F 
 1241      6E203234 
 1241      30343936 
 1242 0209 74657277 		.ascii	"terwork -mthumb -ggdb -O2 -fomit-frame-pointer -fal"
 1242      6F726B20 
 1242      2D6D7468 
 1242      756D6220 
 1242      2D676764 
 1243 023c 69676E2D 		.ascii	"ign-functions=16 -ffunction-sections -fdata-section"
 1243      66756E63 
 1243      74696F6E 
 1243      733D3136 
 1243      202D6666 
 1244 026f 73202D66 		.ascii	"s -fno-common\000"
 1244      6E6F2D63 
 1244      6F6D6D6F 
 1244      6E00
 1245              	.LASF26:
 1246 027d 434D785F 		.ascii	"CMx_DWT\000"
 1246      44575400 
 1247              	.LASF40:
 1248 0285 50454461 		.ascii	"PEData\000"
 1248      746100
 1249              	.LASF20:
 1250 028c 43504943 		.ascii	"CPICNT\000"
 1250      4E5400
 1251              	.LASF10:
 1252 0293 6C6F6E67 		.ascii	"long unsigned int\000"
 1252      20756E73 
 1252      69676E65 
 1252      6420696E 
 1252      7400
 1253              	.LASF43:
 1254 02a5 50484461 		.ascii	"PHData\000"
 1254      746100
 1255              	.LASF28:
 1256 02ac 68616C72 		.ascii	"halrtcnt_t\000"
 1256      74636E74 
 1256      5F7400
 1257              	.LASF22:
 1258 02b7 534C4545 		.ascii	"SLEEPCNT\000"
 1258      50434E54 
 1258      00
 1259              	.LASF32:
 1260 02c0 70757064 		.ascii	"pupdr\000"
ARM GAS  /tmp/cc6OI3cd.s 			page 25


 1260      7200
 1261              	.LASF23:
 1262 02c6 4C535543 		.ascii	"LSUCNT\000"
 1262      4E5400
 1263              	.LASF34:
 1264 02cd 61667268 		.ascii	"afrh\000"
 1264      00
 1265              	.LASF54:
 1266 02d2 61646349 		.ascii	"adcInit\000"
 1266      6E697400 
 1267              	.LASF33:
 1268 02da 6166726C 		.ascii	"afrl\000"
 1268      00
 1269              	.LASF29:
 1270 02df 6D6F6465 		.ascii	"moder\000"
 1270      7200
 1271              	.LASF51:
 1272 02e5 70616C5F 		.ascii	"pal_default_config\000"
 1272      64656661 
 1272      756C745F 
 1272      636F6E66 
 1272      696700
 1273              	.LASF58:
 1274 02f8 2E2E2F43 		.ascii	"../ChibiOS_2.6.9/os/hal/src/hal.c\000"
 1274      68696269 
 1274      4F535F32 
 1274      2E362E39 
 1274      2F6F732F 
 1275              	.LASF50:
 1276 031a 49544D5F 		.ascii	"ITM_RxBuffer\000"
 1276      52784275 
 1276      66666572 
 1276      00
 1277              	.LASF0:
 1278 0327 756E7369 		.ascii	"unsigned int\000"
 1278      676E6564 
 1278      20696E74 
 1278      00
 1279              	.LASF60:
 1280 0334 68616C49 		.ascii	"halIsCounterWithin\000"
 1280      73436F75 
 1280      6E746572 
 1280      57697468 
 1280      696E00
 1281              	.LASF21:
 1282 0347 45584343 		.ascii	"EXCCNT\000"
 1282      4E5400
 1283              	.LASF49:
 1284 034e 74696D65 		.ascii	"timeout\000"
 1284      6F757400 
 1285              		.ident	"GCC: (GNU Tools for ARM Embedded Processors) 5.4.1 20160919 (release) [ARM/embedded-5-bran
ARM GAS  /tmp/cc6OI3cd.s 			page 26


DEFINED SYMBOLS
                            *ABS*:00000000 hal.c
     /tmp/cc6OI3cd.s:20     .text.halInit:00000000 $t
     /tmp/cc6OI3cd.s:26     .text.halInit:00000000 halInit
     /tmp/cc6OI3cd.s:61     .text.halInit:0000001c $d
     /tmp/cc6OI3cd.s:66     .text.halIsCounterWithin:00000000 $t
     /tmp/cc6OI3cd.s:72     .text.halIsCounterWithin:00000000 halIsCounterWithin
     /tmp/cc6OI3cd.s:116    .text.halIsCounterWithin:00000024 $d
     /tmp/cc6OI3cd.s:121    .text.halPolledDelay:00000000 $t
     /tmp/cc6OI3cd.s:127    .text.halPolledDelay:00000000 halPolledDelay
     /tmp/cc6OI3cd.s:180    .text.halPolledDelay:00000024 $d
                     .debug_frame:00000010 $d

UNDEFINED SYMBOLS
hal_lld_init
_pal_lld_init
adcInit
usbInit
boardInit
pal_default_config
