ARM GAS  /tmp/cc6OI3cd.s 			page 1


   1              		.syntax unified
   2              		.cpu cortex-m4
   3              		.fpu softvfp
   4              		.eabi_attribute 20, 1
   5              		.eabi_attribute 21, 1
   6              		.eabi_attribute 23, 3
   7              		.eabi_attribute 24, 1
   8              		.eabi_attribute 25, 1
   9              		.eabi_attribute 26, 1
  10              		.eabi_attribute 30, 2
  11              		.eabi_attribute 34, 1
  12              		.eabi_attribute 18, 4
  13              		.thumb
  14              		.syntax unified
  15              		.file	"hal.c"
  16              		.text
  17              	.Ltext0:
  18              		.cfi_sections	.debug_frame
  19              		.section	.text.halInit,"ax",%progbits
  20              		.align	2
  21              		.p2align 4,,15
  22              		.global	halInit
  23              		.thumb
  24              		.thumb_func
  25              		.type	halInit, %function
  26              	halInit:
  27              	.LFB118:
  28              		.file 1 "../ChibiOS_2.6.9/os/hal/src/hal.c"
  29              		.loc 1 68 0
  30              		.cfi_startproc
  31              		@ args = 0, pretend = 0, frame = 0
  32              		@ frame_needed = 0, uses_anonymous_args = 0
  33 0000 08B5     		push	{r3, lr}
  34              		.cfi_def_cfa_offset 8
  35              		.cfi_offset 3, -8
  36              		.cfi_offset 14, -4
  37              		.loc 1 70 0
  38 0002 FFF7FEFF 		bl	hal_lld_init
  39              	.LVL0:
  40              		.loc 1 76 0
  41 0006 0548     		ldr	r0, .L3
  42 0008 FFF7FEFF 		bl	_pal_lld_init
  43              	.LVL1:
  44              		.loc 1 79 0
  45 000c FFF7FEFF 		bl	adcInit
  46              	.LVL2:
  47              		.loc 1 115 0
  48 0010 FFF7FEFF 		bl	usbInit
  49              	.LVL3:
  50              		.loc 1 128 0
  51 0014 BDE80840 		pop	{r3, lr}
  52              		.cfi_restore 14
  53              		.cfi_restore 3
  54              		.cfi_def_cfa_offset 0
  55              		.loc 1 127 0
  56 0018 FFF7FEBF 		b	boardInit
  57              	.LVL4:
ARM GAS  /tmp/cc6OI3cd.s 			page 2


  58              	.L4:
  59              		.align	2
  60              	.L3:
  61 001c 00000000 		.word	pal_default_config
  62              		.cfi_endproc
  63              	.LFE118:
  64              		.size	halInit, .-halInit
  65              		.section	.text.halIsCounterWithin,"ax",%progbits
  66              		.align	2
  67              		.p2align 4,,15
  68              		.global	halIsCounterWithin
  69              		.thumb
  70              		.thumb_func
  71              		.type	halIsCounterWithin, %function
  72              	halIsCounterWithin:
  73              	.LFB119:
  74              		.loc 1 174 0
  75              		.cfi_startproc
  76              		@ args = 0, pretend = 0, frame = 0
  77              		@ frame_needed = 0, uses_anonymous_args = 0
  78              		@ link register save eliminated.
  79              	.LVL5:
  80              		.loc 1 175 0
  81 0000 084B     		ldr	r3, .L15
  82              		.loc 1 177 0
  83 0002 8142     		cmp	r1, r0
  84              		.loc 1 175 0
  85 0004 5B68     		ldr	r3, [r3, #4]
  86              	.LVL6:
  87              		.loc 1 177 0
  88 0006 06D9     		bls	.L6
  89              		.loc 1 177 0 is_stmt 0 discriminator 1
  90 0008 8342     		cmp	r3, r0
  91 000a 08D3     		bcc	.L14
  92              	.L12:
  93 000c 8B42     		cmp	r3, r1
  94 000e 2CBF     		ite	cs
  95 0010 0020     		movcs	r0, #0
  96              	.LVL7:
  97 0012 0120     		movcc	r0, #1
  98 0014 7047     		bx	lr
  99              	.LVL8:
 100              	.L6:
 101              		.loc 1 178 0 is_stmt 1
 102 0016 8342     		cmp	r3, r0
 103 0018 F8D3     		bcc	.L12
 104 001a 0120     		movs	r0, #1
 105              	.LVL9:
 106              		.loc 1 179 0
 107 001c 7047     		bx	lr
 108              	.LVL10:
 109              	.L14:
 110 001e 0020     		movs	r0, #0
 111              	.LVL11:
 112 0020 7047     		bx	lr
 113              	.L16:
 114 0022 00BF     		.align	2
ARM GAS  /tmp/cc6OI3cd.s 			page 3


 115              	.L15:
 116 0024 001000E0 		.word	-536866816
 117              		.cfi_endproc
 118              	.LFE119:
 119              		.size	halIsCounterWithin, .-halIsCounterWithin
 120              		.section	.text.halPolledDelay,"ax",%progbits
 121              		.align	2
 122              		.p2align 4,,15
 123              		.global	halPolledDelay
 124              		.thumb
 125              		.thumb_func
 126              		.type	halPolledDelay, %function
 127              	halPolledDelay:
 128              	.LFB120:
 129              		.loc 1 193 0
 130              		.cfi_startproc
 131              		@ args = 0, pretend = 0, frame = 0
 132              		@ frame_needed = 0, uses_anonymous_args = 0
 133              		@ link register save eliminated.
 134              	.LVL12:
 135              		.loc 1 194 0
 136 0000 0849     		ldr	r1, .L23
 137 0002 4A68     		ldr	r2, [r1, #4]
 138              	.LVL13:
 139              		.loc 1 195 0
 140 0004 1044     		add	r0, r0, r2
 141              	.LVL14:
 142              	.L21:
 143              	.LBB4:
 144              	.LBB5:
 145              		.loc 1 177 0 discriminator 1
 146 0006 8242     		cmp	r2, r0
 147              		.loc 1 175 0 discriminator 1
 148 0008 4B68     		ldr	r3, [r1, #4]
 149              	.LVL15:
 150              		.loc 1 177 0 discriminator 1
 151 000a 02D2     		bcs	.L18
 152              		.loc 1 177 0 is_stmt 0
 153 000c 9A42     		cmp	r2, r3
 154 000e 05D9     		bls	.L22
 155              	.LVL16:
 156              	.L17:
 157 0010 7047     		bx	lr
 158              	.LVL17:
 159              	.L18:
 160              		.loc 1 178 0 is_stmt 1
 161 0012 9A42     		cmp	r2, r3
 162 0014 F7D9     		bls	.L21
 163              	.LBE5:
 164              	.LBE4:
 165              		.loc 1 196 0
 166 0016 9842     		cmp	r0, r3
 167 0018 F5D8     		bhi	.L21
 168 001a F9E7     		b	.L17
 169              	.LVL18:
 170              	.L22:
 171              	.LBB7:
ARM GAS  /tmp/cc6OI3cd.s 			page 4


 172              	.LBB6:
 173              		.loc 1 177 0
 174 001c 9842     		cmp	r0, r3
 175 001e F2D8     		bhi	.L21
 176 0020 7047     		bx	lr
 177              	.L24:
 178 0022 00BF     		.align	2
 179              	.L23:
 180 0024 001000E0 		.word	-536866816
 181              	.LBE6:
 182              	.LBE7:
 183              		.cfi_endproc
 184              	.LFE120:
 185              		.size	halPolledDelay, .-halPolledDelay
 186              		.text
 187              	.Letext0:
 188              		.file 2 "/usr/local/gcc-arm-none-eabi-5_4-2016q3/arm-none-eabi/include/machine/_default_types.h"
 189              		.file 3 "/usr/local/gcc-arm-none-eabi-5_4-2016q3/arm-none-eabi/include/sys/_stdint.h"
 190              		.file 4 "../ChibiOS_2.6.9/os/ports/GCC/ARMCMx/chtypes.h"
 191              		.file 5 "../ChibiOS_2.6.9/os/ports/common/ARMCMx/nvic.h"
 192              		.file 6 "../ChibiOS_2.6.9/os/hal/platforms/STM32F4xx/hal_lld.h"
 193              		.file 7 "../ChibiOS_2.6.9/os/hal/platforms/STM32/GPIOv2/pal_lld.h"
 194              		.file 8 "../ChibiOS_2.6.9/os/ports/common/ARMCMx/CMSIS/include/core_cm4.h"
 195              		.file 9 "../ChibiOS_2.6.9/os/hal/include/adc.h"
 196              		.file 10 "../ChibiOS_2.6.9/os/hal/include/usb.h"
 197              		.file 11 "../ChibiOS_2.6.9/boards/ST_STM32F4_DISCOVERY/board.h"