ARM GAS  /tmp/ccNaYbnh.s 			page 1


   1              		.syntax unified
   2              		.cpu cortex-m4
   3              		.fpu softvfp
   4              		.eabi_attribute 20, 1
   5              		.eabi_attribute 21, 1
   6              		.eabi_attribute 23, 3
   7              		.eabi_attribute 24, 1
   8              		.eabi_attribute 25, 1
   9              		.eabi_attribute 26, 1
  10              		.eabi_attribute 30, 2
  11              		.eabi_attribute 34, 1
  12              		.eabi_attribute 18, 4
  13              		.thumb
  14              		.syntax unified
  15              		.file	"main.c"
  16              		.text
  17              	.Ltext0:
  18              		.cfi_sections	.debug_frame
  19              		.global	__aeabi_ui2d
  20              		.global	__aeabi_dmul
  21              		.global	__aeabi_d2iz
  22              		.section	.text.startup.main,"ax",%progbits
  23              		.align	2
  24              		.p2align 4,,15
  25              		.global	main
  26              		.thumb
  27              		.thumb_func
  28              		.type	main, %function
  29              	main:
  30              	.LFB118:
  31              		.file 1 "main.c"
  32              		.loc 1 86 0
  33              		.cfi_startproc
  34              		@ args = 0, pretend = 0, frame = 0
  35              		@ frame_needed = 0, uses_anonymous_args = 0
  36 0000 2DE9F047 		push	{r4, r5, r6, r7, r8, r9, r10, lr}
  37              		.cfi_def_cfa_offset 32
  38              		.cfi_offset 4, -32
  39              		.cfi_offset 5, -28
  40              		.cfi_offset 6, -24
  41              		.cfi_offset 7, -20
  42              		.cfi_offset 8, -16
  43              		.cfi_offset 9, -12
  44              		.cfi_offset 10, -8
  45              		.cfi_offset 14, -4
  46              		.loc 1 91 0
  47 0004 664E     		ldr	r6, .L18+8
  48 0006 674C     		ldr	r4, .L18+12
  49              		.loc 1 130 0
  50 0008 DFF8B091 		ldr	r9, .L18+36
  51              		.loc 1 87 0
  52 000c FFF7FEFF 		bl	halInit
  53              	.LVL0:
  54              		.loc 1 88 0
  55 0010 FFF7FEFF 		bl	chSysInit
  56              	.LVL1:
  57              		.loc 1 91 0
ARM GAS  /tmp/ccNaYbnh.s 			page 2


  58 0014 326D     		ldr	r2, [r6, #80]
  59              		.loc 1 89 0
  60 0016 6449     		ldr	r1, .L18+16
  61              		.loc 1 91 0
  62 0018 936B     		ldr	r3, [r2, #56]
  63 001a 23F40023 		bic	r3, r3, #524288
  64 001e 9363     		str	r3, [r2, #56]
  65              		.loc 1 89 0
  66 0020 0025     		movs	r5, #0
  67              		.loc 1 92 0
  68 0022 4FF47A70 		mov	r0, #1000
  69              		.loc 1 89 0
  70 0026 0D70     		strb	r5, [r1]
  71              	.LVL2:
  72              		.loc 1 92 0
  73 0028 FFF7FEFF 		bl	chThdSleep
  74              	.LVL3:
  75              		.loc 1 93 0
  76 002c 5F49     		ldr	r1, .L18+20
  77 002e 3046     		mov	r0, r6
  78 0030 FFF7FEFF 		bl	usbStart
  79              	.LVL4:
  80              		.loc 1 94 0
  81 0034 326D     		ldr	r2, [r6, #80]
  82 0036 936B     		ldr	r3, [r2, #56]
  83 0038 43F40023 		orr	r3, r3, #524288
  84 003c 9363     		str	r3, [r2, #56]
  85              		.loc 1 95 0
  86 003e 4FF47A70 		mov	r0, #1000
  87 0042 FFF7FEFF 		bl	chThdSleep
  88              	.LVL5:
  89              		.loc 1 122 0
  90 0046 2A46     		mov	r2, r5
  91 0048 FE21     		movs	r1, #254
  92 004a 5948     		ldr	r0, .L18+24
  93 004c FFF7FEFF 		bl	_pal_lld_setgroupmode
  94              	.LVL6:
  95              		.loc 1 159 0
  96 0050 A046     		mov	r8, r4
  97 0052 49E0     		b	.L14
  98              	.LVL7:
  99              	.L17:
 100              		.loc 1 139 0 discriminator 1
 101 0054 22F06002 		bic	r2, r2, #96
 102 0058 42F01000 		orr	r0, r2, #16
 103              	.L3:
 104              		.loc 1 146 0
 105 005c 042B     		cmp	r3, #4
 106              		.loc 1 143 0
 107 005e 00F01F01 		and	r1, r0, #31
 108              		.loc 1 146 0
 109 0062 59D1     		bne	.L5
 110              		.loc 1 151 0 discriminator 1
 111 0064 00F07D00 		and	r0, r0, #125
 112              		.loc 1 155 0 discriminator 1
 113 0068 98F90220 		ldrsb	r2, [r8, #2]
 114              		.loc 1 151 0 discriminator 1
ARM GAS  /tmp/ccNaYbnh.s 			page 3


 115 006c 40F00100 		orr	r0, r0, #1
 116 0070 88F80300 		strb	r0, [r8, #3]
 117              		.loc 1 155 0 discriminator 1
 118 0074 22F02002 		bic	r2, r2, #32
 119              	.L9:
 120              		.loc 1 166 0
 121 0078 092B     		cmp	r3, #9
 122              		.loc 1 159 0
 123 007a 22F03002 		bic	r2, r2, #48
 124              		.loc 1 166 0
 125 007e 57D1     		bne	.L10
 126              		.loc 1 166 0 is_stmt 0 discriminator 1
 127 0080 42F04002 		orr	r2, r2, #64
 128              	.L12:
 129              		.loc 1 171 0 is_stmt 1
 130 0084 02F07F02 		and	r2, r2, #127
 131 0088 A270     		strb	r2, [r4, #2]
 132              	.L13:
 133              		.loc 1 176 0
 134 008a 2846     		mov	r0, r5
 135 008c FFF7FEFF 		bl	__aeabi_ui2d
 136              	.LVL8:
 137 0090 0022     		movs	r2, #0
 138 0092 484B     		ldr	r3, .L18+28
 139 0094 0646     		mov	r6, r0
 140 0096 0F46     		mov	r7, r1
 141 0098 FFF7FEFF 		bl	__aeabi_dmul
 142              	.LVL9:
 143 009c FFF7FEFF 		bl	sin
 144              	.LVL10:
 145 00a0 3DA3     		adr	r3, .L18
 146 00a2 D3E90023 		ldrd	r2, [r3]
 147 00a6 FFF7FEFF 		bl	__aeabi_dmul
 148              	.LVL11:
 149 00aa FFF7FEFF 		bl	__aeabi_d2iz
 150              	.LVL12:
 151              		.loc 1 177 0
 152 00ae 0022     		movs	r2, #0
 153 00b0 414B     		ldr	r3, .L18+32
 154              		.loc 1 176 0
 155 00b2 1FFA80FA 		uxth	r10, r0
 156              		.loc 1 177 0
 157 00b6 3946     		mov	r1, r7
 158 00b8 3046     		mov	r0, r6
 159              		.loc 1 176 0
 160 00ba A4F806A0 		strh	r10, [r4, #6]	@ movhi
 161              		.loc 1 177 0
 162 00be FFF7FEFF 		bl	__aeabi_dmul
 163              	.LVL13:
 164 00c2 FFF7FEFF 		bl	sin
 165              	.LVL14:
 166 00c6 34A3     		adr	r3, .L18
 167 00c8 D3E90023 		ldrd	r2, [r3]
 168 00cc FFF7FEFF 		bl	__aeabi_dmul
 169              	.LVL15:
 170 00d0 FFF7FEFF 		bl	__aeabi_d2iz
 171              	.LVL16:
ARM GAS  /tmp/ccNaYbnh.s 			page 4


 172              		.loc 1 186 0
 173 00d4 1422     		movs	r2, #20
 174              		.loc 1 177 0
 175 00d6 83B2     		uxth	r3, r0
 176              		.loc 1 202 0
 177 00d8 3148     		ldr	r0, .L18+8
 178              		.loc 1 178 0
 179 00da A4F80AA0 		strh	r10, [r4, #10]	@ movhi
 180              		.loc 1 177 0
 181 00de 2381     		strh	r3, [r4, #8]	@ movhi
 182              		.loc 1 179 0
 183 00e0 A381     		strh	r3, [r4, #12]	@ movhi
 184              		.loc 1 186 0
 185 00e2 6270     		strb	r2, [r4, #1]
 186              		.loc 1 202 0
 187 00e4 FFF7FEFF 		bl	hid_transmit
 188              	.LVL17:
 189              	.L14:
 190              		.loc 1 128 0
 191 00e8 0135     		adds	r5, r5, #1
 192              	.LVL18:
 193 00ea ADB2     		uxth	r5, r5
 194              		.loc 1 127 0
 195 00ec 3220     		movs	r0, #50
 196 00ee FFF7FEFF 		bl	chThdSleep
 197              	.LVL19:
 198              		.loc 1 130 0
 199 00f2 A9FB0523 		umull	r2, r3, r9, r5
 200 00f6 9B08     		lsrs	r3, r3, #2
 201 00f8 03EB4302 		add	r2, r3, r3, lsl #1
 202 00fc 03EB8203 		add	r3, r3, r2, lsl #2
 203 0100 EB1A     		subs	r3, r5, r3
 204 0102 9BB2     		uxth	r3, r3
 205 0104 94F90320 		ldrsb	r2, [r4, #3]
 206 0108 002B     		cmp	r3, #0
 207 010a A3D0     		beq	.L17
 208              		.loc 1 134 0
 209 010c 012B     		cmp	r3, #1
 210 010e 18D1     		bne	.L4
 211              		.loc 1 143 0 discriminator 1
 212 0110 02F02F01 		and	r1, r2, #47
 213 0114 41F02001 		orr	r1, r1, #32
 214              	.L5:
 215              		.loc 1 150 0
 216 0118 052B     		cmp	r3, #5
 217              		.loc 1 147 0
 218 011a 01F07E01 		and	r1, r1, #126
 219              		.loc 1 150 0
 220 011e 16D1     		bne	.L7
 221              		.loc 1 155 0 discriminator 1
 222 0120 98F90220 		ldrsb	r2, [r8, #2]
 223              		.loc 1 150 0 discriminator 1
 224 0124 41F00201 		orr	r1, r1, #2
 225 0128 88F80310 		strb	r1, [r8, #3]
 226              		.loc 1 159 0 discriminator 1
 227 012c 22F03002 		bic	r2, r2, #48
 228              	.L10:
ARM GAS  /tmp/ccNaYbnh.s 			page 5


 229              		.loc 1 170 0
 230 0130 0A2B     		cmp	r3, #10
 231              		.loc 1 167 0
 232 0132 22F05002 		bic	r2, r2, #80
 233              		.loc 1 170 0
 234 0136 A5D1     		bne	.L12
 235              		.loc 1 170 0 is_stmt 0 discriminator 1
 236 0138 62F07F02 		orn	r2, r2, #127
 237 013c 88F80220 		strb	r2, [r8, #2]
 238 0140 A3E7     		b	.L13
 239              	.L4:
 240              		.loc 1 138 0 is_stmt 1
 241 0142 022B     		cmp	r3, #2
 242 0144 0FD1     		bne	.L6
 243              		.loc 1 147 0 discriminator 1
 244 0146 02F04E02 		and	r2, r2, #78
 245 014a 42F04001 		orr	r1, r2, #64
 246              	.L7:
 247              		.loc 1 151 0
 248 014e 21F00201 		bic	r1, r1, #2
 249              		.loc 1 154 0
 250 0152 062B     		cmp	r3, #6
 251              		.loc 1 151 0
 252 0154 E170     		strb	r1, [r4, #3]
 253              		.loc 1 154 0
 254 0156 11D1     		bne	.L8
 255              		.loc 1 154 0 is_stmt 0 discriminator 1
 256 0158 98F90220 		ldrsb	r2, [r8, #2]
 257              		.loc 1 167 0 is_stmt 1 discriminator 1
 258 015c 22F05002 		bic	r2, r2, #80
 259 0160 42F02002 		orr	r2, r2, #32
 260 0164 8EE7     		b	.L12
 261              	.L6:
 262              		.loc 1 142 0
 263 0166 032B     		cmp	r3, #3
 264              		.loc 1 139 0
 265 0168 22F07000 		bic	r0, r2, #112
 266              		.loc 1 142 0
 267 016c 7FF476AF 		bne	.L3
 268              		.loc 1 151 0 discriminator 1
 269 0170 22F07302 		bic	r2, r2, #115
 270 0174 62F07F02 		orn	r2, r2, #127
 271 0178 88F80320 		strb	r2, [r8, #3]
 272              	.L8:
 273              		.loc 1 155 0
 274 017c 94F90210 		ldrsb	r1, [r4, #2]
 275              		.loc 1 158 0
 276 0180 072B     		cmp	r3, #7
 277              		.loc 1 155 0
 278 0182 21F02002 		bic	r2, r1, #32
 279              		.loc 1 158 0
 280 0186 7FF477AF 		bne	.L9
 281              		.loc 1 167 0 discriminator 1
 282 018a 21F06002 		bic	r2, r1, #96
 283 018e 42F01002 		orr	r2, r2, #16
 284 0192 77E7     		b	.L12
 285              	.L19:
ARM GAS  /tmp/ccNaYbnh.s 			page 6


 286 0194 AFF30080 		.align	3
 287              	.L18:
 288 0198 00000000 		.word	0
 289 019c C0FFDF40 		.word	1088421824
 290 01a0 00000000 		.word	USBD1
 291 01a4 00000000 		.word	hid_in_data
 292 01a8 00000000 		.word	usbInitState
 293 01ac 00000000 		.word	usbcfg
 294 01b0 00000240 		.word	1073872896
 295 01b4 0000E03F 		.word	1071644672
 296 01b8 0000D03F 		.word	1070596096
 297 01bc 4FECC44E 		.word	1321528399
 298              		.cfi_endproc
 299              	.LFE118:
 300              		.size	main, .-main
 301              		.text
 302              	.Letext0:
 303              		.file 2 "/usr/local/gcc-arm-none-eabi-5_4-2016q3/lib/gcc/arm-none-eabi/5.4.1/include/stddef.h"
 304              		.file 3 "/usr/local/gcc-arm-none-eabi-5_4-2016q3/arm-none-eabi/include/machine/_default_types.h"
 305              		.file 4 "/usr/local/gcc-arm-none-eabi-5_4-2016q3/arm-none-eabi/include/sys/_stdint.h"
 306              		.file 5 "../ChibiOS_2.6.9/os/ports/GCC/ARMCMx/chtypes.h"
 307              		.file 6 "../ChibiOS_2.6.9/os/kernel/include/chlists.h"
 308              		.file 7 "../ChibiOS_2.6.9/os/kernel/include/chthreads.h"
 309              		.file 8 "../ChibiOS_2.6.9/os/ports/GCC/ARMCMx/chcore_v7m.h"
 310              		.file 9 "../ChibiOS_2.6.9/os/kernel/include/chmtx.h"
 311              		.file 10 "../ChibiOS_2.6.9/os/kernel/include/chqueues.h"
 312              		.file 11 "../ChibiOS_2.6.9/os/hal/platforms/STM32/GPIOv2/pal_lld.h"
 313              		.file 12 "../ChibiOS_2.6.9/os/hal/include/usb.h"
 314              		.file 13 "../ChibiOS_2.6.9/os/hal/platforms/STM32/OTGv1/usb_lld.h"
 315              		.file 14 "../ChibiOS_2.6.9/os/hal/platforms/STM32/OTGv1/stm32_otg.h"
 316              		.file 15 "usb_hid.h"
 317              		.file 16 "../ChibiOS_2.6.9/os/ports/common/ARMCMx/CMSIS/include/core_cm4.h"
 318              		.file 17 "usbcfg.h"
 319              		.file 18 "../ChibiOS_2.6.9/os/hal/include/hal.h"
 320              		.file 19 "../ChibiOS_2.6.9/os/kernel/include/chsys.h"
 321              		.file 20 "/usr/local/gcc-arm-none-eabi-5_4-2016q3/arm-none-eabi/include/math.h"
 322              		.section	.debug_info,"",%progbits
 323              	.Ldebug_info0:
 324 0000 EC120000 		.4byte	0x12ec
 325 0004 0400     		.2byte	0x4
 326 0006 00000000 		.4byte	.Ldebug_abbrev0
 327 000a 04       		.byte	0x4
 328 000b 01       		.uleb128 0x1
 329 000c 4C050000 		.4byte	.LASF269
 330 0010 0C       		.byte	0xc
 331 0011 78060000 		.4byte	.LASF270
 332 0015 7E000000 		.4byte	.LASF271
 333 0019 00000000 		.4byte	.Ldebug_ranges0+0
 334 001d 00000000 		.4byte	0
 335 0021 00000000 		.4byte	.Ldebug_line0
 336 0025 02       		.uleb128 0x2
 337 0026 04       		.byte	0x4
 338 0027 05       		.byte	0x5
 339 0028 696E7400 		.ascii	"int\000"
 340 002c 03       		.uleb128 0x3
 341 002d 0D000000 		.4byte	.LASF3
 342 0031 02       		.byte	0x2
ARM GAS  /tmp/ccNaYbnh.s 			page 7


 343 0032 D8       		.byte	0xd8
 344 0033 37000000 		.4byte	0x37
 345 0037 04       		.uleb128 0x4
 346 0038 04       		.byte	0x4
 347 0039 07       		.byte	0x7
 348 003a FB060000 		.4byte	.LASF0
 349 003e 04       		.uleb128 0x4
 350 003f 08       		.byte	0x8
 351 0040 05       		.byte	0x5
 352 0041 40060000 		.4byte	.LASF1
 353 0045 04       		.uleb128 0x4
 354 0046 08       		.byte	0x8
 355 0047 04       		.byte	0x4
 356 0048 A0070000 		.4byte	.LASF2
 357 004c 03       		.uleb128 0x3
 358 004d EA070000 		.4byte	.LASF4
 359 0051 03       		.byte	0x3
 360 0052 1B       		.byte	0x1b
 361 0053 57000000 		.4byte	0x57
 362 0057 04       		.uleb128 0x4
 363 0058 01       		.byte	0x1
 364 0059 06       		.byte	0x6
 365 005a E0010000 		.4byte	.LASF5
 366 005e 03       		.uleb128 0x3
 367 005f F5000000 		.4byte	.LASF6
 368 0063 03       		.byte	0x3
 369 0064 1D       		.byte	0x1d
 370 0065 69000000 		.4byte	0x69
 371 0069 04       		.uleb128 0x4
 372 006a 01       		.byte	0x1
 373 006b 08       		.byte	0x8
 374 006c 33020000 		.4byte	.LASF7
 375 0070 03       		.uleb128 0x3
 376 0071 B8080000 		.4byte	.LASF8
 377 0075 03       		.byte	0x3
 378 0076 29       		.byte	0x29
 379 0077 7B000000 		.4byte	0x7b
 380 007b 04       		.uleb128 0x4
 381 007c 02       		.byte	0x2
 382 007d 05       		.byte	0x5
 383 007e 3C090000 		.4byte	.LASF9
 384 0082 03       		.uleb128 0x3
 385 0083 DA020000 		.4byte	.LASF10
 386 0087 03       		.byte	0x3
 387 0088 2B       		.byte	0x2b
 388 0089 8D000000 		.4byte	0x8d
 389 008d 04       		.uleb128 0x4
 390 008e 02       		.byte	0x2
 391 008f 07       		.byte	0x7
 392 0090 7B0A0000 		.4byte	.LASF11
 393 0094 03       		.uleb128 0x3
 394 0095 BB0A0000 		.4byte	.LASF12
 395 0099 03       		.byte	0x3
 396 009a 3F       		.byte	0x3f
 397 009b 9F000000 		.4byte	0x9f
 398 009f 04       		.uleb128 0x4
 399 00a0 04       		.byte	0x4
ARM GAS  /tmp/ccNaYbnh.s 			page 8


 400 00a1 05       		.byte	0x5
 401 00a2 47010000 		.4byte	.LASF13
 402 00a6 03       		.uleb128 0x3
 403 00a7 26060000 		.4byte	.LASF14
 404 00ab 03       		.byte	0x3
 405 00ac 41       		.byte	0x41
 406 00ad B1000000 		.4byte	0xb1
 407 00b1 04       		.uleb128 0x4
 408 00b2 04       		.byte	0x4
 409 00b3 07       		.byte	0x7
 410 00b4 62040000 		.4byte	.LASF15
 411 00b8 03       		.uleb128 0x3
 412 00b9 4F040000 		.4byte	.LASF16
 413 00bd 03       		.byte	0x3
 414 00be 5B       		.byte	0x5b
 415 00bf C3000000 		.4byte	0xc3
 416 00c3 04       		.uleb128 0x4
 417 00c4 08       		.byte	0x8
 418 00c5 07       		.byte	0x7
 419 00c6 FC070000 		.4byte	.LASF17
 420 00ca 03       		.uleb128 0x3
 421 00cb 00000000 		.4byte	.LASF18
 422 00cf 04       		.byte	0x4
 423 00d0 14       		.byte	0x14
 424 00d1 4C000000 		.4byte	0x4c
 425 00d5 03       		.uleb128 0x3
 426 00d6 F6010000 		.4byte	.LASF19
 427 00da 04       		.byte	0x4
 428 00db 18       		.byte	0x18
 429 00dc 5E000000 		.4byte	0x5e
 430 00e0 03       		.uleb128 0x3
 431 00e1 74090000 		.4byte	.LASF20
 432 00e5 04       		.byte	0x4
 433 00e6 20       		.byte	0x20
 434 00e7 70000000 		.4byte	0x70
 435 00eb 03       		.uleb128 0x3
 436 00ec 24080000 		.4byte	.LASF21
 437 00f0 04       		.byte	0x4
 438 00f1 24       		.byte	0x24
 439 00f2 82000000 		.4byte	0x82
 440 00f6 03       		.uleb128 0x3
 441 00f7 4D000000 		.4byte	.LASF22
 442 00fb 04       		.byte	0x4
 443 00fc 2C       		.byte	0x2c
 444 00fd 94000000 		.4byte	0x94
 445 0101 03       		.uleb128 0x3
 446 0102 440A0000 		.4byte	.LASF23
 447 0106 04       		.byte	0x4
 448 0107 30       		.byte	0x30
 449 0108 A6000000 		.4byte	0xa6
 450 010c 03       		.uleb128 0x3
 451 010d 4E090000 		.4byte	.LASF24
 452 0111 04       		.byte	0x4
 453 0112 3C       		.byte	0x3c
 454 0113 B8000000 		.4byte	0xb8
 455 0117 03       		.uleb128 0x3
 456 0118 A4090000 		.4byte	.LASF25
ARM GAS  /tmp/ccNaYbnh.s 			page 9


 457 011c 05       		.byte	0x5
 458 011d 2B       		.byte	0x2b
 459 011e 22010000 		.4byte	0x122
 460 0122 04       		.uleb128 0x4
 461 0123 01       		.byte	0x1
 462 0124 02       		.byte	0x2
 463 0125 84020000 		.4byte	.LASF26
 464 0129 03       		.uleb128 0x3
 465 012a 03090000 		.4byte	.LASF27
 466 012e 05       		.byte	0x5
 467 012f 2C       		.byte	0x2c
 468 0130 D5000000 		.4byte	0xd5
 469 0134 03       		.uleb128 0x3
 470 0135 6C010000 		.4byte	.LASF28
 471 0139 05       		.byte	0x5
 472 013a 2D       		.byte	0x2d
 473 013b D5000000 		.4byte	0xd5
 474 013f 03       		.uleb128 0x3
 475 0140 090A0000 		.4byte	.LASF29
 476 0144 05       		.byte	0x5
 477 0145 2E       		.byte	0x2e
 478 0146 D5000000 		.4byte	0xd5
 479 014a 03       		.uleb128 0x3
 480 014b 70080000 		.4byte	.LASF30
 481 014f 05       		.byte	0x5
 482 0150 2F       		.byte	0x2f
 483 0151 D5000000 		.4byte	0xd5
 484 0155 03       		.uleb128 0x3
 485 0156 2D000000 		.4byte	.LASF31
 486 015a 05       		.byte	0x5
 487 015b 30       		.byte	0x30
 488 015c 01010000 		.4byte	0x101
 489 0160 03       		.uleb128 0x3
 490 0161 3A080000 		.4byte	.LASF32
 491 0165 05       		.byte	0x5
 492 0166 31       		.byte	0x31
 493 0167 F6000000 		.4byte	0xf6
 494 016b 03       		.uleb128 0x3
 495 016c 18020000 		.4byte	.LASF33
 496 0170 05       		.byte	0x5
 497 0171 33       		.byte	0x33
 498 0172 01010000 		.4byte	0x101
 499 0176 03       		.uleb128 0x3
 500 0177 1D000000 		.4byte	.LASF34
 501 017b 05       		.byte	0x5
 502 017c 35       		.byte	0x35
 503 017d 01010000 		.4byte	0x101
 504 0181 03       		.uleb128 0x3
 505 0182 D6090000 		.4byte	.LASF35
 506 0186 06       		.byte	0x6
 507 0187 2A       		.byte	0x2a
 508 0188 8C010000 		.4byte	0x18c
 509 018c 05       		.uleb128 0x5
 510 018d D6090000 		.4byte	.LASF35
 511 0191 44       		.byte	0x44
 512 0192 07       		.byte	0x7
 513 0193 5E       		.byte	0x5e
ARM GAS  /tmp/ccNaYbnh.s 			page 10


 514 0194 7D020000 		.4byte	0x27d
 515 0198 06       		.uleb128 0x6
 516 0199 50010000 		.4byte	.LASF36
 517 019d 07       		.byte	0x7
 518 019e 5F       		.byte	0x5f
 519 019f 9E020000 		.4byte	0x29e
 520 01a3 00       		.byte	0
 521 01a4 06       		.uleb128 0x6
 522 01a5 65010000 		.4byte	.LASF37
 523 01a9 07       		.byte	0x7
 524 01aa 61       		.byte	0x61
 525 01ab 9E020000 		.4byte	0x29e
 526 01af 04       		.byte	0x4
 527 01b0 06       		.uleb128 0x6
 528 01b1 C9020000 		.4byte	.LASF38
 529 01b5 07       		.byte	0x7
 530 01b6 63       		.byte	0x63
 531 01b7 55010000 		.4byte	0x155
 532 01bb 08       		.byte	0x8
 533 01bc 06       		.uleb128 0x6
 534 01bd 27000000 		.4byte	.LASF39
 535 01c1 07       		.byte	0x7
 536 01c2 64       		.byte	0x64
 537 01c3 63030000 		.4byte	0x363
 538 01c7 0C       		.byte	0xc
 539 01c8 06       		.uleb128 0x6
 540 01c9 3F010000 		.4byte	.LASF40
 541 01cd 07       		.byte	0x7
 542 01ce 66       		.byte	0x66
 543 01cf 9E020000 		.4byte	0x29e
 544 01d3 10       		.byte	0x10
 545 01d4 06       		.uleb128 0x6
 546 01d5 1C080000 		.4byte	.LASF41
 547 01d9 07       		.byte	0x7
 548 01da 67       		.byte	0x67
 549 01db 9E020000 		.4byte	0x29e
 550 01df 14       		.byte	0x14
 551 01e0 06       		.uleb128 0x6
 552 01e1 020B0000 		.4byte	.LASF42
 553 01e5 07       		.byte	0x7
 554 01e6 6E       		.byte	0x6e
 555 01e7 07040000 		.4byte	0x407
 556 01eb 18       		.byte	0x18
 557 01ec 06       		.uleb128 0x6
 558 01ed 420B0000 		.4byte	.LASF43
 559 01f1 07       		.byte	0x7
 560 01f2 79       		.byte	0x79
 561 01f3 34010000 		.4byte	0x134
 562 01f7 1C       		.byte	0x1c
 563 01f8 06       		.uleb128 0x6
 564 01f9 E4060000 		.4byte	.LASF44
 565 01fd 07       		.byte	0x7
 566 01fe 7D       		.byte	0x7d
 567 01ff 29010000 		.4byte	0x129
 568 0203 1D       		.byte	0x1d
 569 0204 06       		.uleb128 0x6
 570 0205 30070000 		.4byte	.LASF45
ARM GAS  /tmp/ccNaYbnh.s 			page 11


 571 0209 07       		.byte	0x7
 572 020a 82       		.byte	0x82
 573 020b 3F010000 		.4byte	0x13f
 574 020f 1E       		.byte	0x1e
 575 0210 06       		.uleb128 0x6
 576 0211 EC010000 		.4byte	.LASF46
 577 0215 07       		.byte	0x7
 578 0216 88       		.byte	0x88
 579 0217 4A010000 		.4byte	0x14a
 580 021b 1F       		.byte	0x1f
 581 021c 07       		.uleb128 0x7
 582 021d 705F7500 		.ascii	"p_u\000"
 583 0221 07       		.byte	0x7
 584 0222 B4       		.byte	0xb4
 585 0223 D2030000 		.4byte	0x3d2
 586 0227 20       		.byte	0x20
 587 0228 06       		.uleb128 0x6
 588 0229 D4060000 		.4byte	.LASF47
 589 022d 07       		.byte	0x7
 590 022e B9       		.byte	0xb9
 591 022f C4020000 		.4byte	0x2c4
 592 0233 24       		.byte	0x24
 593 0234 06       		.uleb128 0x6
 594 0235 35000000 		.4byte	.LASF48
 595 0239 07       		.byte	0x7
 596 023a BF       		.byte	0xbf
 597 023b A4020000 		.4byte	0x2a4
 598 023f 28       		.byte	0x28
 599 0240 06       		.uleb128 0x6
 600 0241 3C0B0000 		.4byte	.LASF49
 601 0245 07       		.byte	0x7
 602 0246 C3       		.byte	0xc3
 603 0247 60010000 		.4byte	0x160
 604 024b 30       		.byte	0x30
 605 024c 06       		.uleb128 0x6
 606 024d E4030000 		.4byte	.LASF50
 607 0251 07       		.byte	0x7
 608 0252 C9       		.byte	0xc9
 609 0253 6B010000 		.4byte	0x16b
 610 0257 34       		.byte	0x34
 611 0258 06       		.uleb128 0x6
 612 0259 86010000 		.4byte	.LASF51
 613 025d 07       		.byte	0x7
 614 025e D0       		.byte	0xd0
 615 025f 19040000 		.4byte	0x419
 616 0263 38       		.byte	0x38
 617 0264 06       		.uleb128 0x6
 618 0265 AC070000 		.4byte	.LASF52
 619 0269 07       		.byte	0x7
 620 026a D4       		.byte	0xd4
 621 026b 55010000 		.4byte	0x155
 622 026f 3C       		.byte	0x3c
 623 0270 06       		.uleb128 0x6
 624 0271 1C070000 		.4byte	.LASF53
 625 0275 07       		.byte	0x7
 626 0276 DA       		.byte	0xda
 627 0277 DA020000 		.4byte	0x2da
ARM GAS  /tmp/ccNaYbnh.s 			page 12


 628 027b 40       		.byte	0x40
 629 027c 00       		.byte	0
 630 027d 08       		.uleb128 0x8
 631 027e 08       		.byte	0x8
 632 027f 06       		.byte	0x6
 633 0280 61       		.byte	0x61
 634 0281 9E020000 		.4byte	0x29e
 635 0285 06       		.uleb128 0x6
 636 0286 50010000 		.4byte	.LASF36
 637 028a 06       		.byte	0x6
 638 028b 62       		.byte	0x62
 639 028c 9E020000 		.4byte	0x29e
 640 0290 00       		.byte	0
 641 0291 06       		.uleb128 0x6
 642 0292 65010000 		.4byte	.LASF37
 643 0296 06       		.byte	0x6
 644 0297 64       		.byte	0x64
 645 0298 9E020000 		.4byte	0x29e
 646 029c 04       		.byte	0x4
 647 029d 00       		.byte	0
 648 029e 09       		.uleb128 0x9
 649 029f 04       		.byte	0x4
 650 02a0 81010000 		.4byte	0x181
 651 02a4 03       		.uleb128 0x3
 652 02a5 550A0000 		.4byte	.LASF54
 653 02a9 06       		.byte	0x6
 654 02aa 66       		.byte	0x66
 655 02ab 7D020000 		.4byte	0x27d
 656 02af 08       		.uleb128 0x8
 657 02b0 04       		.byte	0x4
 658 02b1 06       		.byte	0x6
 659 02b2 6B       		.byte	0x6b
 660 02b3 C4020000 		.4byte	0x2c4
 661 02b7 06       		.uleb128 0x6
 662 02b8 50010000 		.4byte	.LASF36
 663 02bc 06       		.byte	0x6
 664 02bd 6D       		.byte	0x6d
 665 02be 9E020000 		.4byte	0x29e
 666 02c2 00       		.byte	0
 667 02c3 00       		.byte	0
 668 02c4 03       		.uleb128 0x3
 669 02c5 4B070000 		.4byte	.LASF55
 670 02c9 06       		.byte	0x6
 671 02ca 70       		.byte	0x70
 672 02cb AF020000 		.4byte	0x2af
 673 02cf 03       		.uleb128 0x3
 674 02d0 9F010000 		.4byte	.LASF56
 675 02d4 08       		.byte	0x8
 676 02d5 E5       		.byte	0xe5
 677 02d6 DA020000 		.4byte	0x2da
 678 02da 0A       		.uleb128 0xa
 679 02db 04       		.byte	0x4
 680 02dc 03       		.uleb128 0x3
 681 02dd 19030000 		.4byte	.LASF57
 682 02e1 08       		.byte	0x8
 683 02e2 EB       		.byte	0xeb
 684 02e3 0C010000 		.4byte	0x10c
ARM GAS  /tmp/ccNaYbnh.s 			page 13


 685 02e7 0B       		.uleb128 0xb
 686 02e8 DD030000 		.4byte	.LASF58
 687 02ec 24       		.byte	0x24
 688 02ed 08       		.byte	0x8
 689 02ee 0C01     		.2byte	0x10c
 690 02f0 63030000 		.4byte	0x363
 691 02f4 0C       		.uleb128 0xc
 692 02f5 723400   		.ascii	"r4\000"
 693 02f8 08       		.byte	0x8
 694 02f9 1F01     		.2byte	0x11f
 695 02fb CF020000 		.4byte	0x2cf
 696 02ff 00       		.byte	0
 697 0300 0C       		.uleb128 0xc
 698 0301 723500   		.ascii	"r5\000"
 699 0304 08       		.byte	0x8
 700 0305 2001     		.2byte	0x120
 701 0307 CF020000 		.4byte	0x2cf
 702 030b 04       		.byte	0x4
 703 030c 0C       		.uleb128 0xc
 704 030d 723600   		.ascii	"r6\000"
 705 0310 08       		.byte	0x8
 706 0311 2101     		.2byte	0x121
 707 0313 CF020000 		.4byte	0x2cf
 708 0317 08       		.byte	0x8
 709 0318 0C       		.uleb128 0xc
 710 0319 723700   		.ascii	"r7\000"
 711 031c 08       		.byte	0x8
 712 031d 2201     		.2byte	0x122
 713 031f CF020000 		.4byte	0x2cf
 714 0323 0C       		.byte	0xc
 715 0324 0C       		.uleb128 0xc
 716 0325 723800   		.ascii	"r8\000"
 717 0328 08       		.byte	0x8
 718 0329 2301     		.2byte	0x123
 719 032b CF020000 		.4byte	0x2cf
 720 032f 10       		.byte	0x10
 721 0330 0C       		.uleb128 0xc
 722 0331 723900   		.ascii	"r9\000"
 723 0334 08       		.byte	0x8
 724 0335 2401     		.2byte	0x124
 725 0337 CF020000 		.4byte	0x2cf
 726 033b 14       		.byte	0x14
 727 033c 0C       		.uleb128 0xc
 728 033d 72313000 		.ascii	"r10\000"
 729 0341 08       		.byte	0x8
 730 0342 2501     		.2byte	0x125
 731 0344 CF020000 		.4byte	0x2cf
 732 0348 18       		.byte	0x18
 733 0349 0C       		.uleb128 0xc
 734 034a 72313100 		.ascii	"r11\000"
 735 034e 08       		.byte	0x8
 736 034f 2601     		.2byte	0x126
 737 0351 CF020000 		.4byte	0x2cf
 738 0355 1C       		.byte	0x1c
 739 0356 0C       		.uleb128 0xc
 740 0357 6C7200   		.ascii	"lr\000"
 741 035a 08       		.byte	0x8
ARM GAS  /tmp/ccNaYbnh.s 			page 14


 742 035b 2701     		.2byte	0x127
 743 035d CF020000 		.4byte	0x2cf
 744 0361 20       		.byte	0x20
 745 0362 00       		.byte	0
 746 0363 0B       		.uleb128 0xb
 747 0364 24020000 		.4byte	.LASF59
 748 0368 04       		.byte	0x4
 749 0369 08       		.byte	0x8
 750 036a 3101     		.2byte	0x131
 751 036c 7E030000 		.4byte	0x37e
 752 0370 0C       		.uleb128 0xc
 753 0371 72313300 		.ascii	"r13\000"
 754 0375 08       		.byte	0x8
 755 0376 3201     		.2byte	0x132
 756 0378 7E030000 		.4byte	0x37e
 757 037c 00       		.byte	0
 758 037d 00       		.byte	0
 759 037e 09       		.uleb128 0x9
 760 037f 04       		.byte	0x4
 761 0380 E7020000 		.4byte	0x2e7
 762 0384 0D       		.uleb128 0xd
 763 0385 01010000 		.4byte	0x101
 764 0389 04       		.uleb128 0x4
 765 038a 04       		.byte	0x4
 766 038b 07       		.byte	0x7
 767 038c 14000000 		.4byte	.LASF60
 768 0390 05       		.uleb128 0x5
 769 0391 3A060000 		.4byte	.LASF61
 770 0395 10       		.byte	0x10
 771 0396 09       		.byte	0x9
 772 0397 2C       		.byte	0x2c
 773 0398 C1030000 		.4byte	0x3c1
 774 039c 06       		.uleb128 0x6
 775 039d 58060000 		.4byte	.LASF62
 776 03a1 09       		.byte	0x9
 777 03a2 2D       		.byte	0x2d
 778 03a3 A4020000 		.4byte	0x2a4
 779 03a7 00       		.byte	0
 780 03a8 06       		.uleb128 0x6
 781 03a9 D6000000 		.4byte	.LASF63
 782 03ad 09       		.byte	0x9
 783 03ae 2F       		.byte	0x2f
 784 03af 9E020000 		.4byte	0x29e
 785 03b3 08       		.byte	0x8
 786 03b4 06       		.uleb128 0x6
 787 03b5 090B0000 		.4byte	.LASF64
 788 03b9 09       		.byte	0x9
 789 03ba 31       		.byte	0x31
 790 03bb C1030000 		.4byte	0x3c1
 791 03bf 0C       		.byte	0xc
 792 03c0 00       		.byte	0
 793 03c1 09       		.uleb128 0x9
 794 03c2 04       		.byte	0x4
 795 03c3 90030000 		.4byte	0x390
 796 03c7 03       		.uleb128 0x3
 797 03c8 3A060000 		.4byte	.LASF61
 798 03cc 09       		.byte	0x9
ARM GAS  /tmp/ccNaYbnh.s 			page 15


 799 03cd 33       		.byte	0x33
 800 03ce 90030000 		.4byte	0x390
 801 03d2 0E       		.uleb128 0xe
 802 03d3 04       		.byte	0x4
 803 03d4 07       		.byte	0x7
 804 03d5 96       		.byte	0x96
 805 03d6 07040000 		.4byte	0x407
 806 03da 0F       		.uleb128 0xf
 807 03db 740A0000 		.4byte	.LASF65
 808 03df 07       		.byte	0x7
 809 03e0 9D       		.byte	0x9d
 810 03e1 60010000 		.4byte	0x160
 811 03e5 0F       		.uleb128 0xf
 812 03e6 DE000000 		.4byte	.LASF66
 813 03ea 07       		.byte	0x7
 814 03eb A4       		.byte	0xa4
 815 03ec 60010000 		.4byte	0x160
 816 03f0 0F       		.uleb128 0xf
 817 03f1 F2020000 		.4byte	.LASF67
 818 03f5 07       		.byte	0x7
 819 03f6 AB       		.byte	0xab
 820 03f7 DA020000 		.4byte	0x2da
 821 03fb 0F       		.uleb128 0xf
 822 03fc 05010000 		.4byte	.LASF68
 823 0400 07       		.byte	0x7
 824 0401 B2       		.byte	0xb2
 825 0402 6B010000 		.4byte	0x16b
 826 0406 00       		.byte	0
 827 0407 09       		.uleb128 0x9
 828 0408 04       		.byte	0x4
 829 0409 14040000 		.4byte	0x414
 830 040d 04       		.uleb128 0x4
 831 040e 01       		.byte	0x1
 832 040f 08       		.byte	0x8
 833 0410 A9020000 		.4byte	.LASF69
 834 0414 10       		.uleb128 0x10
 835 0415 0D040000 		.4byte	0x40d
 836 0419 09       		.uleb128 0x9
 837 041a 04       		.byte	0x4
 838 041b C7030000 		.4byte	0x3c7
 839 041f 03       		.uleb128 0x3
 840 0420 E5020000 		.4byte	.LASF70
 841 0424 0A       		.byte	0xa
 842 0425 37       		.byte	0x37
 843 0426 2A040000 		.4byte	0x42a
 844 042a 05       		.uleb128 0x5
 845 042b E5020000 		.4byte	.LASF70
 846 042f 24       		.byte	0x24
 847 0430 0A       		.byte	0xa
 848 0431 45       		.byte	0x45
 849 0432 97040000 		.4byte	0x497
 850 0436 06       		.uleb128 0x6
 851 0437 F9080000 		.4byte	.LASF71
 852 043b 0A       		.byte	0xa
 853 043c 46       		.byte	0x46
 854 043d A4020000 		.4byte	0x2a4
 855 0441 00       		.byte	0
ARM GAS  /tmp/ccNaYbnh.s 			page 16


 856 0442 06       		.uleb128 0x6
 857 0443 3C040000 		.4byte	.LASF72
 858 0447 0A       		.byte	0xa
 859 0448 47       		.byte	0x47
 860 0449 2C000000 		.4byte	0x2c
 861 044d 08       		.byte	0x8
 862 044e 06       		.uleb128 0x6
 863 044f 12010000 		.4byte	.LASF73
 864 0453 0A       		.byte	0xa
 865 0454 48       		.byte	0x48
 866 0455 B9040000 		.4byte	0x4b9
 867 0459 0C       		.byte	0xc
 868 045a 06       		.uleb128 0x6
 869 045b FF000000 		.4byte	.LASF74
 870 045f 0A       		.byte	0xa
 871 0460 49       		.byte	0x49
 872 0461 B9040000 		.4byte	0x4b9
 873 0465 10       		.byte	0x10
 874 0466 06       		.uleb128 0x6
 875 0467 BD040000 		.4byte	.LASF75
 876 046b 0A       		.byte	0xa
 877 046c 4B       		.byte	0x4b
 878 046d B9040000 		.4byte	0x4b9
 879 0471 14       		.byte	0x14
 880 0472 06       		.uleb128 0x6
 881 0473 57010000 		.4byte	.LASF76
 882 0477 0A       		.byte	0xa
 883 0478 4C       		.byte	0x4c
 884 0479 B9040000 		.4byte	0x4b9
 885 047d 18       		.byte	0x18
 886 047e 06       		.uleb128 0x6
 887 047f 36010000 		.4byte	.LASF77
 888 0483 0A       		.byte	0xa
 889 0484 4D       		.byte	0x4d
 890 0485 97040000 		.4byte	0x497
 891 0489 1C       		.byte	0x1c
 892 048a 06       		.uleb128 0x6
 893 048b 4F020000 		.4byte	.LASF78
 894 048f 0A       		.byte	0xa
 895 0490 4E       		.byte	0x4e
 896 0491 DA020000 		.4byte	0x2da
 897 0495 20       		.byte	0x20
 898 0496 00       		.byte	0
 899 0497 03       		.uleb128 0x3
 900 0498 CA060000 		.4byte	.LASF79
 901 049c 0A       		.byte	0xa
 902 049d 3A       		.byte	0x3a
 903 049e A2040000 		.4byte	0x4a2
 904 04a2 09       		.uleb128 0x9
 905 04a3 04       		.byte	0x4
 906 04a4 A8040000 		.4byte	0x4a8
 907 04a8 11       		.uleb128 0x11
 908 04a9 B3040000 		.4byte	0x4b3
 909 04ad 12       		.uleb128 0x12
 910 04ae B3040000 		.4byte	0x4b3
 911 04b2 00       		.byte	0
 912 04b3 09       		.uleb128 0x9
ARM GAS  /tmp/ccNaYbnh.s 			page 17


 913 04b4 04       		.byte	0x4
 914 04b5 1F040000 		.4byte	0x41f
 915 04b9 09       		.uleb128 0x9
 916 04ba 04       		.byte	0x4
 917 04bb D5000000 		.4byte	0xd5
 918 04bf 03       		.uleb128 0x3
 919 04c0 A50A0000 		.4byte	.LASF80
 920 04c4 0A       		.byte	0xa
 921 04c5 82       		.byte	0x82
 922 04c6 1F040000 		.4byte	0x41f
 923 04ca 03       		.uleb128 0x3
 924 04cb 24030000 		.4byte	.LASF81
 925 04cf 0A       		.byte	0xa
 926 04d0 F5       		.byte	0xf5
 927 04d1 1F040000 		.4byte	0x41f
 928 04d5 09       		.uleb128 0x9
 929 04d6 04       		.byte	0x4
 930 04d7 DB040000 		.4byte	0x4db
 931 04db 10       		.uleb128 0x10
 932 04dc D5000000 		.4byte	0xd5
 933 04e0 0D       		.uleb128 0xd
 934 04e1 F6000000 		.4byte	0xf6
 935 04e5 08       		.uleb128 0x8
 936 04e6 04       		.byte	0x4
 937 04e7 0B       		.byte	0xb
 938 04e8 96       		.byte	0x96
 939 04e9 06050000 		.4byte	0x506
 940 04ed 07       		.uleb128 0x7
 941 04ee 73657400 		.ascii	"set\000"
 942 04f2 0B       		.byte	0xb
 943 04f3 97       		.byte	0x97
 944 04f4 EB000000 		.4byte	0xeb
 945 04f8 00       		.byte	0
 946 04f9 06       		.uleb128 0x6
 947 04fa 13040000 		.4byte	.LASF82
 948 04fe 0B       		.byte	0xb
 949 04ff 98       		.byte	0x98
 950 0500 EB000000 		.4byte	0xeb
 951 0504 02       		.byte	0x2
 952 0505 00       		.byte	0
 953 0506 0E       		.uleb128 0xe
 954 0507 04       		.byte	0x4
 955 0508 0B       		.byte	0xb
 956 0509 94       		.byte	0x94
 957 050a 21050000 		.4byte	0x521
 958 050e 13       		.uleb128 0x13
 959 050f 5700     		.ascii	"W\000"
 960 0511 0B       		.byte	0xb
 961 0512 95       		.byte	0x95
 962 0513 01010000 		.4byte	0x101
 963 0517 13       		.uleb128 0x13
 964 0518 4800     		.ascii	"H\000"
 965 051a 0B       		.byte	0xb
 966 051b 99       		.byte	0x99
 967 051c E5040000 		.4byte	0x4e5
 968 0520 00       		.byte	0
 969 0521 08       		.uleb128 0x8
ARM GAS  /tmp/ccNaYbnh.s 			page 18


 970 0522 28       		.byte	0x28
 971 0523 0B       		.byte	0xb
 972 0524 8C       		.byte	0x8c
 973 0525 A2050000 		.4byte	0x5a2
 974 0529 06       		.uleb128 0x6
 975 052a DE060000 		.4byte	.LASF83
 976 052e 0B       		.byte	0xb
 977 052f 8E       		.byte	0x8e
 978 0530 84030000 		.4byte	0x384
 979 0534 00       		.byte	0
 980 0535 06       		.uleb128 0x6
 981 0536 E9080000 		.4byte	.LASF84
 982 053a 0B       		.byte	0xb
 983 053b 8F       		.byte	0x8f
 984 053c 84030000 		.4byte	0x384
 985 0540 04       		.byte	0x4
 986 0541 06       		.uleb128 0x6
 987 0542 04050000 		.4byte	.LASF85
 988 0546 0B       		.byte	0xb
 989 0547 90       		.byte	0x90
 990 0548 84030000 		.4byte	0x384
 991 054c 08       		.byte	0x8
 992 054d 06       		.uleb128 0x6
 993 054e 0C010000 		.4byte	.LASF86
 994 0552 0B       		.byte	0xb
 995 0553 91       		.byte	0x91
 996 0554 84030000 		.4byte	0x384
 997 0558 0C       		.byte	0xc
 998 0559 07       		.uleb128 0x7
 999 055a 49445200 		.ascii	"IDR\000"
 1000 055e 0B       		.byte	0xb
 1001 055f 92       		.byte	0x92
 1002 0560 84030000 		.4byte	0x384
 1003 0564 10       		.byte	0x10
 1004 0565 07       		.uleb128 0x7
 1005 0566 4F445200 		.ascii	"ODR\000"
 1006 056a 0B       		.byte	0xb
 1007 056b 93       		.byte	0x93
 1008 056c 84030000 		.4byte	0x384
 1009 0570 14       		.byte	0x14
 1010 0571 06       		.uleb128 0x6
 1011 0572 C3090000 		.4byte	.LASF87
 1012 0576 0B       		.byte	0xb
 1013 0577 9A       		.byte	0x9a
 1014 0578 A2050000 		.4byte	0x5a2
 1015 057c 18       		.byte	0x18
 1016 057d 06       		.uleb128 0x6
 1017 057e CE040000 		.4byte	.LASF88
 1018 0582 0B       		.byte	0xb
 1019 0583 9B       		.byte	0x9b
 1020 0584 84030000 		.4byte	0x384
 1021 0588 1C       		.byte	0x1c
 1022 0589 06       		.uleb128 0x6
 1023 058a 87080000 		.4byte	.LASF89
 1024 058e 0B       		.byte	0xb
 1025 058f 9C       		.byte	0x9c
 1026 0590 84030000 		.4byte	0x384
ARM GAS  /tmp/ccNaYbnh.s 			page 19


 1027 0594 20       		.byte	0x20
 1028 0595 06       		.uleb128 0x6
 1029 0596 82080000 		.4byte	.LASF90
 1030 059a 0B       		.byte	0xb
 1031 059b 9D       		.byte	0x9d
 1032 059c 84030000 		.4byte	0x384
 1033 05a0 24       		.byte	0x24
 1034 05a1 00       		.byte	0
 1035 05a2 0D       		.uleb128 0xd
 1036 05a3 06050000 		.4byte	0x506
 1037 05a7 03       		.uleb128 0x3
 1038 05a8 E5090000 		.4byte	.LASF91
 1039 05ac 0B       		.byte	0xb
 1040 05ad 9E       		.byte	0x9e
 1041 05ae 21050000 		.4byte	0x521
 1042 05b2 03       		.uleb128 0x3
 1043 05b3 7F030000 		.4byte	.LASF92
 1044 05b7 0B       		.byte	0xb
 1045 05b8 F0       		.byte	0xf0
 1046 05b9 01010000 		.4byte	0x101
 1047 05bd 03       		.uleb128 0x3
 1048 05be 67070000 		.4byte	.LASF93
 1049 05c2 0C       		.byte	0xc
 1050 05c3 E9       		.byte	0xe9
 1051 05c4 C8050000 		.4byte	0x5c8
 1052 05c8 14       		.uleb128 0x14
 1053 05c9 67070000 		.4byte	.LASF93
 1054 05cd B001     		.2byte	0x1b0
 1055 05cf 0D       		.byte	0xd
 1056 05d0 7701     		.2byte	0x177
 1057 05d2 F5060000 		.4byte	0x6f5
 1058 05d6 15       		.uleb128 0x15
 1059 05d7 A1000000 		.4byte	.LASF94
 1060 05db 0D       		.byte	0xd
 1061 05dc 7B01     		.2byte	0x17b
 1062 05de 2B070000 		.4byte	0x72b
 1063 05e2 00       		.byte	0
 1064 05e3 15       		.uleb128 0x15
 1065 05e4 F9020000 		.4byte	.LASF95
 1066 05e8 0D       		.byte	0xd
 1067 05e9 7F01     		.2byte	0x17f
 1068 05eb 60100000 		.4byte	0x1060
 1069 05ef 04       		.byte	0x4
 1070 05f0 15       		.uleb128 0x15
 1071 05f1 58030000 		.4byte	.LASF96
 1072 05f5 0D       		.byte	0xd
 1073 05f6 8301     		.2byte	0x183
 1074 05f8 EB000000 		.4byte	0xeb
 1075 05fc 08       		.byte	0x8
 1076 05fd 15       		.uleb128 0x15
 1077 05fe D0020000 		.4byte	.LASF97
 1078 0602 0D       		.byte	0xd
 1079 0603 8701     		.2byte	0x187
 1080 0605 EB000000 		.4byte	0xeb
 1081 0609 0A       		.byte	0xa
 1082 060a 0C       		.uleb128 0xc
 1083 060b 65706300 		.ascii	"epc\000"
ARM GAS  /tmp/ccNaYbnh.s 			page 20


 1084 060f 0D       		.byte	0xd
 1085 0610 8B01     		.2byte	0x18b
 1086 0612 6B100000 		.4byte	0x106b
 1087 0616 0C       		.byte	0xc
 1088 0617 15       		.uleb128 0x15
 1089 0618 26090000 		.4byte	.LASF98
 1090 061c 0D       		.byte	0xd
 1091 061d 9201     		.2byte	0x192
 1092 061f 86100000 		.4byte	0x1086
 1093 0623 1C       		.byte	0x1c
 1094 0624 15       		.uleb128 0x15
 1095 0625 B00A0000 		.4byte	.LASF99
 1096 0629 0D       		.byte	0xd
 1097 062a 9901     		.2byte	0x199
 1098 062c 86100000 		.4byte	0x1086
 1099 0630 28       		.byte	0x28
 1100 0631 15       		.uleb128 0x15
 1101 0632 61020000 		.4byte	.LASF100
 1102 0636 0D       		.byte	0xd
 1103 0637 9D01     		.2byte	0x19d
 1104 0639 6E070000 		.4byte	0x76e
 1105 063d 34       		.byte	0x34
 1106 063e 15       		.uleb128 0x15
 1107 063f 69060000 		.4byte	.LASF101
 1108 0643 0D       		.byte	0xd
 1109 0644 A101     		.2byte	0x1a1
 1110 0646 B9040000 		.4byte	0x4b9
 1111 064a 38       		.byte	0x38
 1112 064b 15       		.uleb128 0x15
 1113 064c B6020000 		.4byte	.LASF102
 1114 0650 0D       		.byte	0xd
 1115 0651 A501     		.2byte	0x1a5
 1116 0653 2C000000 		.4byte	0x2c
 1117 0657 3C       		.byte	0x3c
 1118 0658 15       		.uleb128 0x15
 1119 0659 83040000 		.4byte	.LASF103
 1120 065d 0D       		.byte	0xd
 1121 065e A901     		.2byte	0x1a9
 1122 0660 E8070000 		.4byte	0x7e8
 1123 0664 40       		.byte	0x40
 1124 0665 15       		.uleb128 0x15
 1125 0666 D7030000 		.4byte	.LASF104
 1126 066a 0D       		.byte	0xd
 1127 066b AD01     		.2byte	0x1ad
 1128 066d 96100000 		.4byte	0x1096
 1129 0671 44       		.byte	0x44
 1130 0672 15       		.uleb128 0x15
 1131 0673 74040000 		.4byte	.LASF105
 1132 0677 0D       		.byte	0xd
 1133 0678 B101     		.2byte	0x1b1
 1134 067a EB000000 		.4byte	0xeb
 1135 067e 4C       		.byte	0x4c
 1136 067f 15       		.uleb128 0x15
 1137 0680 7B040000 		.4byte	.LASF106
 1138 0684 0D       		.byte	0xd
 1139 0685 B501     		.2byte	0x1b5
 1140 0687 D5000000 		.4byte	0xd5
ARM GAS  /tmp/ccNaYbnh.s 			page 21


 1141 068b 4E       		.byte	0x4e
 1142 068c 15       		.uleb128 0x15
 1143 068d 26040000 		.4byte	.LASF107
 1144 0691 0D       		.byte	0xd
 1145 0692 B901     		.2byte	0x1b9
 1146 0694 D5000000 		.4byte	0xd5
 1147 0698 4F       		.byte	0x4f
 1148 0699 0C       		.uleb128 0xc
 1149 069a 6F746700 		.ascii	"otg\000"
 1150 069e 0D       		.byte	0xd
 1151 069f C101     		.2byte	0x1c1
 1152 06a1 A6100000 		.4byte	0x10a6
 1153 06a5 50       		.byte	0x50
 1154 06a6 15       		.uleb128 0x15
 1155 06a7 41070000 		.4byte	.LASF108
 1156 06ab 0D       		.byte	0xd
 1157 06ac C501     		.2byte	0x1c5
 1158 06ae AC100000 		.4byte	0x10ac
 1159 06b2 54       		.byte	0x54
 1160 06b3 15       		.uleb128 0x15
 1161 06b4 100B0000 		.4byte	.LASF109
 1162 06b8 0D       		.byte	0xd
 1163 06b9 C901     		.2byte	0x1c9
 1164 06bb 01010000 		.4byte	0x101
 1165 06bf 58       		.byte	0x58
 1166 06c0 15       		.uleb128 0x15
 1167 06c1 12070000 		.4byte	.LASF110
 1168 06c5 0D       		.byte	0xd
 1169 06c6 CD01     		.2byte	0x1cd
 1170 06c8 01010000 		.4byte	0x101
 1171 06cc 5C       		.byte	0x5c
 1172 06cd 15       		.uleb128 0x15
 1173 06ce D3040000 		.4byte	.LASF111
 1174 06d2 0D       		.byte	0xd
 1175 06d3 D101     		.2byte	0x1d1
 1176 06d5 9E020000 		.4byte	0x29e
 1177 06d9 60       		.byte	0x60
 1178 06da 15       		.uleb128 0x15
 1179 06db 90010000 		.4byte	.LASF112
 1180 06df 0D       		.byte	0xd
 1181 06e0 D501     		.2byte	0x1d5
 1182 06e2 9E020000 		.4byte	0x29e
 1183 06e6 64       		.byte	0x64
 1184 06e7 15       		.uleb128 0x15
 1185 06e8 1E090000 		.4byte	.LASF113
 1186 06ec 0D       		.byte	0xd
 1187 06ed D901     		.2byte	0x1d9
 1188 06ef B7100000 		.4byte	0x10b7
 1189 06f3 68       		.byte	0x68
 1190 06f4 00       		.byte	0
 1191 06f5 03       		.uleb128 0x3
 1192 06f6 4D0A0000 		.4byte	.LASF114
 1193 06fa 0C       		.byte	0xc
 1194 06fb EE       		.byte	0xee
 1195 06fc D5000000 		.4byte	0xd5
 1196 0700 16       		.uleb128 0x16
 1197 0701 01       		.byte	0x1
ARM GAS  /tmp/ccNaYbnh.s 			page 22


 1198 0702 69000000 		.4byte	0x69
 1199 0706 0C       		.byte	0xc
 1200 0707 F3       		.byte	0xf3
 1201 0708 2B070000 		.4byte	0x72b
 1202 070c 17       		.uleb128 0x17
 1203 070d CB070000 		.4byte	.LASF115
 1204 0711 00       		.byte	0
 1205 0712 17       		.uleb128 0x17
 1206 0713 7A070000 		.4byte	.LASF116
 1207 0717 01       		.byte	0x1
 1208 0718 17       		.uleb128 0x17
 1209 0719 4E060000 		.4byte	.LASF117
 1210 071d 02       		.byte	0x2
 1211 071e 17       		.uleb128 0x17
 1212 071f 19040000 		.4byte	.LASF118
 1213 0723 03       		.byte	0x3
 1214 0724 17       		.uleb128 0x17
 1215 0725 AF000000 		.4byte	.LASF119
 1216 0729 04       		.byte	0x4
 1217 072a 00       		.byte	0
 1218 072b 03       		.uleb128 0x3
 1219 072c E9040000 		.4byte	.LASF120
 1220 0730 0C       		.byte	0xc
 1221 0731 F9       		.byte	0xf9
 1222 0732 00070000 		.4byte	0x700
 1223 0736 18       		.uleb128 0x18
 1224 0737 01       		.byte	0x1
 1225 0738 69000000 		.4byte	0x69
 1226 073c 0C       		.byte	0xc
 1227 073d 0701     		.2byte	0x107
 1228 073f 6E070000 		.4byte	0x76e
 1229 0743 17       		.uleb128 0x17
 1230 0744 AE010000 		.4byte	.LASF121
 1231 0748 00       		.byte	0
 1232 0749 17       		.uleb128 0x17
 1233 074a 6A000000 		.4byte	.LASF122
 1234 074e 01       		.byte	0x1
 1235 074f 17       		.uleb128 0x17
 1236 0750 B7070000 		.4byte	.LASF123
 1237 0754 02       		.byte	0x2
 1238 0755 17       		.uleb128 0x17
 1239 0756 EE0A0000 		.4byte	.LASF124
 1240 075a 03       		.byte	0x3
 1241 075b 17       		.uleb128 0x17
 1242 075c 280B0000 		.4byte	.LASF125
 1243 0760 04       		.byte	0x4
 1244 0761 17       		.uleb128 0x17
 1245 0762 D50A0000 		.4byte	.LASF126
 1246 0766 05       		.byte	0x5
 1247 0767 17       		.uleb128 0x17
 1248 0768 41020000 		.4byte	.LASF127
 1249 076c 06       		.byte	0x6
 1250 076d 00       		.byte	0
 1251 076e 19       		.uleb128 0x19
 1252 076f E7000000 		.4byte	.LASF128
 1253 0773 0C       		.byte	0xc
 1254 0774 0F01     		.2byte	0x10f
ARM GAS  /tmp/ccNaYbnh.s 			page 23


 1255 0776 36070000 		.4byte	0x736
 1256 077a 18       		.uleb128 0x18
 1257 077b 01       		.byte	0x1
 1258 077c 69000000 		.4byte	0x69
 1259 0780 0C       		.byte	0xc
 1260 0781 1401     		.2byte	0x114
 1261 0783 AC070000 		.4byte	0x7ac
 1262 0787 17       		.uleb128 0x17
 1263 0788 5C090000 		.4byte	.LASF129
 1264 078c 00       		.byte	0
 1265 078d 17       		.uleb128 0x17
 1266 078e 1B010000 		.4byte	.LASF130
 1267 0792 01       		.byte	0x1
 1268 0793 17       		.uleb128 0x17
 1269 0794 CF080000 		.4byte	.LASF131
 1270 0798 02       		.byte	0x2
 1271 0799 17       		.uleb128 0x17
 1272 079a 620A0000 		.4byte	.LASF132
 1273 079e 03       		.byte	0x3
 1274 079f 17       		.uleb128 0x17
 1275 07a0 33050000 		.4byte	.LASF133
 1276 07a4 04       		.byte	0x4
 1277 07a5 17       		.uleb128 0x17
 1278 07a6 FE010000 		.4byte	.LASF134
 1279 07aa 05       		.byte	0x5
 1280 07ab 00       		.byte	0
 1281 07ac 19       		.uleb128 0x19
 1282 07ad F7030000 		.4byte	.LASF135
 1283 07b1 0C       		.byte	0xc
 1284 07b2 1B01     		.2byte	0x11b
 1285 07b4 7A070000 		.4byte	0x77a
 1286 07b8 1A       		.uleb128 0x1a
 1287 07b9 08       		.byte	0x8
 1288 07ba 0C       		.byte	0xc
 1289 07bb 2001     		.2byte	0x120
 1290 07bd DC070000 		.4byte	0x7dc
 1291 07c1 15       		.uleb128 0x15
 1292 07c2 0B040000 		.4byte	.LASF136
 1293 07c6 0C       		.byte	0xc
 1294 07c7 2401     		.2byte	0x124
 1295 07c9 2C000000 		.4byte	0x2c
 1296 07cd 00       		.byte	0
 1297 07ce 15       		.uleb128 0x15
 1298 07cf 09030000 		.4byte	.LASF137
 1299 07d3 0C       		.byte	0xc
 1300 07d4 2801     		.2byte	0x128
 1301 07d6 D5040000 		.4byte	0x4d5
 1302 07da 04       		.byte	0x4
 1303 07db 00       		.byte	0
 1304 07dc 19       		.uleb128 0x19
 1305 07dd B6030000 		.4byte	.LASF138
 1306 07e1 0C       		.byte	0xc
 1307 07e2 2901     		.2byte	0x129
 1308 07e4 B8070000 		.4byte	0x7b8
 1309 07e8 19       		.uleb128 0x19
 1310 07e9 C8090000 		.4byte	.LASF139
 1311 07ed 0C       		.byte	0xc
ARM GAS  /tmp/ccNaYbnh.s 			page 24


 1312 07ee 3101     		.2byte	0x131
 1313 07f0 F4070000 		.4byte	0x7f4
 1314 07f4 09       		.uleb128 0x9
 1315 07f5 04       		.byte	0x4
 1316 07f6 FA070000 		.4byte	0x7fa
 1317 07fa 11       		.uleb128 0x11
 1318 07fb 05080000 		.4byte	0x805
 1319 07ff 12       		.uleb128 0x12
 1320 0800 05080000 		.4byte	0x805
 1321 0804 00       		.byte	0
 1322 0805 09       		.uleb128 0x9
 1323 0806 04       		.byte	0x4
 1324 0807 BD050000 		.4byte	0x5bd
 1325 080b 19       		.uleb128 0x19
 1326 080c 88060000 		.4byte	.LASF140
 1327 0810 0C       		.byte	0xc
 1328 0811 3A01     		.2byte	0x13a
 1329 0813 17080000 		.4byte	0x817
 1330 0817 09       		.uleb128 0x9
 1331 0818 04       		.byte	0x4
 1332 0819 1D080000 		.4byte	0x81d
 1333 081d 11       		.uleb128 0x11
 1334 081e 2D080000 		.4byte	0x82d
 1335 0822 12       		.uleb128 0x12
 1336 0823 05080000 		.4byte	0x805
 1337 0827 12       		.uleb128 0x12
 1338 0828 F5060000 		.4byte	0x6f5
 1339 082c 00       		.byte	0
 1340 082d 19       		.uleb128 0x19
 1341 082e 36030000 		.4byte	.LASF141
 1342 0832 0C       		.byte	0xc
 1343 0833 4301     		.2byte	0x143
 1344 0835 39080000 		.4byte	0x839
 1345 0839 09       		.uleb128 0x9
 1346 083a 04       		.byte	0x4
 1347 083b 3F080000 		.4byte	0x83f
 1348 083f 11       		.uleb128 0x11
 1349 0840 4F080000 		.4byte	0x84f
 1350 0844 12       		.uleb128 0x12
 1351 0845 05080000 		.4byte	0x805
 1352 0849 12       		.uleb128 0x12
 1353 084a AC070000 		.4byte	0x7ac
 1354 084e 00       		.byte	0
 1355 084f 19       		.uleb128 0x19
 1356 0850 B3090000 		.4byte	.LASF142
 1357 0854 0C       		.byte	0xc
 1358 0855 4F01     		.2byte	0x14f
 1359 0857 5B080000 		.4byte	0x85b
 1360 085b 09       		.uleb128 0x9
 1361 085c 04       		.byte	0x4
 1362 085d 61080000 		.4byte	0x861
 1363 0861 1B       		.uleb128 0x1b
 1364 0862 17010000 		.4byte	0x117
 1365 0866 70080000 		.4byte	0x870
 1366 086a 12       		.uleb128 0x12
 1367 086b 05080000 		.4byte	0x805
 1368 086f 00       		.byte	0
ARM GAS  /tmp/ccNaYbnh.s 			page 25


 1369 0870 19       		.uleb128 0x19
 1370 0871 0B090000 		.4byte	.LASF143
 1371 0875 0C       		.byte	0xc
 1372 0876 5401     		.2byte	0x154
 1373 0878 7C080000 		.4byte	0x87c
 1374 087c 09       		.uleb128 0x9
 1375 087d 04       		.byte	0x4
 1376 087e 82080000 		.4byte	0x882
 1377 0882 1B       		.uleb128 0x1b
 1378 0883 A0080000 		.4byte	0x8a0
 1379 0887 A0080000 		.4byte	0x8a0
 1380 088b 12       		.uleb128 0x12
 1381 088c 05080000 		.4byte	0x805
 1382 0890 12       		.uleb128 0x12
 1383 0891 D5000000 		.4byte	0xd5
 1384 0895 12       		.uleb128 0x12
 1385 0896 D5000000 		.4byte	0xd5
 1386 089a 12       		.uleb128 0x12
 1387 089b EB000000 		.4byte	0xeb
 1388 089f 00       		.byte	0
 1389 08a0 09       		.uleb128 0x9
 1390 08a1 04       		.byte	0x4
 1391 08a2 A6080000 		.4byte	0x8a6
 1392 08a6 10       		.uleb128 0x10
 1393 08a7 DC070000 		.4byte	0x7dc
 1394 08ab 08       		.uleb128 0x8
 1395 08ac 20       		.byte	0x20
 1396 08ad 0E       		.byte	0xe
 1397 08ae 35       		.byte	0x35
 1398 08af 14090000 		.4byte	0x914
 1399 08b3 06       		.uleb128 0x6
 1400 08b4 8F020000 		.4byte	.LASF144
 1401 08b8 0E       		.byte	0xe
 1402 08b9 36       		.byte	0x36
 1403 08ba 84030000 		.4byte	0x384
 1404 08be 00       		.byte	0
 1405 08bf 06       		.uleb128 0x6
 1406 08c0 5C000000 		.4byte	.LASF145
 1407 08c4 0E       		.byte	0xe
 1408 08c5 38       		.byte	0x38
 1409 08c6 84030000 		.4byte	0x384
 1410 08ca 04       		.byte	0x4
 1411 08cb 06       		.uleb128 0x6
 1412 08cc 2D080000 		.4byte	.LASF146
 1413 08d0 0E       		.byte	0xe
 1414 08d1 39       		.byte	0x39
 1415 08d2 84030000 		.4byte	0x384
 1416 08d6 08       		.byte	0x8
 1417 08d7 06       		.uleb128 0x6
 1418 08d8 57080000 		.4byte	.LASF147
 1419 08dc 0E       		.byte	0xe
 1420 08dd 3A       		.byte	0x3a
 1421 08de 84030000 		.4byte	0x384
 1422 08e2 0C       		.byte	0xc
 1423 08e3 06       		.uleb128 0x6
 1424 08e4 65030000 		.4byte	.LASF148
 1425 08e8 0E       		.byte	0xe
ARM GAS  /tmp/ccNaYbnh.s 			page 26


 1426 08e9 3C       		.byte	0x3c
 1427 08ea 84030000 		.4byte	0x384
 1428 08ee 10       		.byte	0x10
 1429 08ef 06       		.uleb128 0x6
 1430 08f0 6C090000 		.4byte	.LASF149
 1431 08f4 0E       		.byte	0xe
 1432 08f5 3E       		.byte	0x3e
 1433 08f6 84030000 		.4byte	0x384
 1434 08fa 14       		.byte	0x14
 1435 08fb 06       		.uleb128 0x6
 1436 08fc 7C090000 		.4byte	.LASF150
 1437 0900 0E       		.byte	0xe
 1438 0901 3F       		.byte	0x3f
 1439 0902 84030000 		.4byte	0x384
 1440 0906 18       		.byte	0x18
 1441 0907 06       		.uleb128 0x6
 1442 0908 AB090000 		.4byte	.LASF151
 1443 090c 0E       		.byte	0xe
 1444 090d 40       		.byte	0x40
 1445 090e 84030000 		.4byte	0x384
 1446 0912 1C       		.byte	0x1c
 1447 0913 00       		.byte	0
 1448 0914 03       		.uleb128 0x3
 1449 0915 43030000 		.4byte	.LASF152
 1450 0919 0E       		.byte	0xe
 1451 091a 41       		.byte	0x41
 1452 091b AB080000 		.4byte	0x8ab
 1453 091f 08       		.uleb128 0x8
 1454 0920 20       		.byte	0x20
 1455 0921 0E       		.byte	0xe
 1456 0922 46       		.byte	0x46
 1457 0923 88090000 		.4byte	0x988
 1458 0927 06       		.uleb128 0x6
 1459 0928 AE020000 		.4byte	.LASF153
 1460 092c 0E       		.byte	0xe
 1461 092d 47       		.byte	0x47
 1462 092e 84030000 		.4byte	0x384
 1463 0932 00       		.byte	0
 1464 0933 06       		.uleb128 0x6
 1465 0934 55000000 		.4byte	.LASF154
 1466 0938 0E       		.byte	0xe
 1467 0939 49       		.byte	0x49
 1468 093a 84030000 		.4byte	0x384
 1469 093e 04       		.byte	0x4
 1470 093f 06       		.uleb128 0x6
 1471 0940 F2090000 		.4byte	.LASF155
 1472 0944 0E       		.byte	0xe
 1473 0945 4A       		.byte	0x4a
 1474 0946 84030000 		.4byte	0x384
 1475 094a 08       		.byte	0x8
 1476 094b 06       		.uleb128 0x6
 1477 094c 63000000 		.4byte	.LASF156
 1478 0950 0E       		.byte	0xe
 1479 0951 4C       		.byte	0x4c
 1480 0952 84030000 		.4byte	0x384
 1481 0956 0C       		.byte	0xc
 1482 0957 06       		.uleb128 0x6
ARM GAS  /tmp/ccNaYbnh.s 			page 27


 1483 0958 6A020000 		.4byte	.LASF157
 1484 095c 0E       		.byte	0xe
 1485 095d 4D       		.byte	0x4d
 1486 095e 84030000 		.4byte	0x384
 1487 0962 10       		.byte	0x10
 1488 0963 06       		.uleb128 0x6
 1489 0964 6C090000 		.4byte	.LASF149
 1490 0968 0E       		.byte	0xe
 1491 0969 4F       		.byte	0x4f
 1492 096a 84030000 		.4byte	0x384
 1493 096e 14       		.byte	0x14
 1494 096f 06       		.uleb128 0x6
 1495 0970 84090000 		.4byte	.LASF158
 1496 0974 0E       		.byte	0xe
 1497 0975 50       		.byte	0x50
 1498 0976 84030000 		.4byte	0x384
 1499 097a 18       		.byte	0x18
 1500 097b 06       		.uleb128 0x6
 1501 097c 94090000 		.4byte	.LASF159
 1502 0980 0E       		.byte	0xe
 1503 0981 52       		.byte	0x52
 1504 0982 84030000 		.4byte	0x384
 1505 0986 1C       		.byte	0x1c
 1506 0987 00       		.byte	0
 1507 0988 03       		.uleb128 0x3
 1508 0989 A6080000 		.4byte	.LASF160
 1509 098d 0E       		.byte	0xe
 1510 098e 53       		.byte	0x53
 1511 098f 1F090000 		.4byte	0x91f
 1512 0993 08       		.uleb128 0x8
 1513 0994 20       		.byte	0x20
 1514 0995 0E       		.byte	0xe
 1515 0996 58       		.byte	0x58
 1516 0997 FC090000 		.4byte	0x9fc
 1517 099b 06       		.uleb128 0x6
 1518 099c CC010000 		.4byte	.LASF161
 1519 09a0 0E       		.byte	0xe
 1520 09a1 59       		.byte	0x59
 1521 09a2 84030000 		.4byte	0x384
 1522 09a6 00       		.byte	0
 1523 09a7 06       		.uleb128 0x6
 1524 09a8 55000000 		.4byte	.LASF154
 1525 09ac 0E       		.byte	0xe
 1526 09ad 5B       		.byte	0x5b
 1527 09ae 84030000 		.4byte	0x384
 1528 09b2 04       		.byte	0x4
 1529 09b3 06       		.uleb128 0x6
 1530 09b4 10020000 		.4byte	.LASF162
 1531 09b8 0E       		.byte	0xe
 1532 09b9 5C       		.byte	0x5c
 1533 09ba 84030000 		.4byte	0x384
 1534 09be 08       		.byte	0x8
 1535 09bf 06       		.uleb128 0x6
 1536 09c0 63000000 		.4byte	.LASF156
 1537 09c4 0E       		.byte	0xe
 1538 09c5 5E       		.byte	0x5e
 1539 09c6 84030000 		.4byte	0x384
ARM GAS  /tmp/ccNaYbnh.s 			page 28


 1540 09ca 0C       		.byte	0xc
 1541 09cb 06       		.uleb128 0x6
 1542 09cc EC060000 		.4byte	.LASF163
 1543 09d0 0E       		.byte	0xe
 1544 09d1 5F       		.byte	0x5f
 1545 09d2 84030000 		.4byte	0x384
 1546 09d6 10       		.byte	0x10
 1547 09d7 06       		.uleb128 0x6
 1548 09d8 6C090000 		.4byte	.LASF149
 1549 09dc 0E       		.byte	0xe
 1550 09dd 61       		.byte	0x61
 1551 09de 84030000 		.4byte	0x384
 1552 09e2 14       		.byte	0x14
 1553 09e3 06       		.uleb128 0x6
 1554 09e4 7C090000 		.4byte	.LASF150
 1555 09e8 0E       		.byte	0xe
 1556 09e9 62       		.byte	0x62
 1557 09ea 84030000 		.4byte	0x384
 1558 09ee 18       		.byte	0x18
 1559 09ef 06       		.uleb128 0x6
 1560 09f0 94090000 		.4byte	.LASF159
 1561 09f4 0E       		.byte	0xe
 1562 09f5 63       		.byte	0x63
 1563 09f6 84030000 		.4byte	0x384
 1564 09fa 1C       		.byte	0x1c
 1565 09fb 00       		.byte	0
 1566 09fc 03       		.uleb128 0x3
 1567 09fd 96020000 		.4byte	.LASF164
 1568 0a01 0E       		.byte	0xe
 1569 0a02 64       		.byte	0x64
 1570 0a03 93090000 		.4byte	0x993
 1571 0a07 1C       		.uleb128 0x1c
 1572 0a08 00100100 		.4byte	0x11000
 1573 0a0c 0E       		.byte	0xe
 1574 0a0d 69       		.byte	0x69
 1575 0a0e E40C0000 		.4byte	0xce4
 1576 0a12 06       		.uleb128 0x6
 1577 0a13 0C050000 		.4byte	.LASF165
 1578 0a17 0E       		.byte	0xe
 1579 0a18 6A       		.byte	0x6a
 1580 0a19 84030000 		.4byte	0x384
 1581 0a1d 00       		.byte	0
 1582 0a1e 06       		.uleb128 0x6
 1583 0a1f 7A080000 		.4byte	.LASF166
 1584 0a23 0E       		.byte	0xe
 1585 0a24 6B       		.byte	0x6b
 1586 0a25 84030000 		.4byte	0x384
 1587 0a29 04       		.byte	0x4
 1588 0a2a 06       		.uleb128 0x6
 1589 0a2b 8C040000 		.4byte	.LASF167
 1590 0a2f 0E       		.byte	0xe
 1591 0a30 6C       		.byte	0x6c
 1592 0a31 84030000 		.4byte	0x384
 1593 0a35 08       		.byte	0x8
 1594 0a36 06       		.uleb128 0x6
 1595 0a37 200B0000 		.4byte	.LASF168
 1596 0a3b 0E       		.byte	0xe
ARM GAS  /tmp/ccNaYbnh.s 			page 29


 1597 0a3c 6D       		.byte	0x6d
 1598 0a3d 84030000 		.4byte	0x384
 1599 0a41 0C       		.byte	0xc
 1600 0a42 06       		.uleb128 0x6
 1601 0a43 EF030000 		.4byte	.LASF169
 1602 0a47 0E       		.byte	0xe
 1603 0a48 6E       		.byte	0x6e
 1604 0a49 84030000 		.4byte	0x384
 1605 0a4d 10       		.byte	0x10
 1606 0a4e 06       		.uleb128 0x6
 1607 0a4f DD090000 		.4byte	.LASF170
 1608 0a53 0E       		.byte	0xe
 1609 0a54 6F       		.byte	0x6f
 1610 0a55 84030000 		.4byte	0x384
 1611 0a59 14       		.byte	0x14
 1612 0a5a 06       		.uleb128 0x6
 1613 0a5b 8E070000 		.4byte	.LASF171
 1614 0a5f 0E       		.byte	0xe
 1615 0a60 70       		.byte	0x70
 1616 0a61 84030000 		.4byte	0x384
 1617 0a65 18       		.byte	0x18
 1618 0a66 06       		.uleb128 0x6
 1619 0a67 2B050000 		.4byte	.LASF172
 1620 0a6b 0E       		.byte	0xe
 1621 0a6c 71       		.byte	0x71
 1622 0a6d 84030000 		.4byte	0x384
 1623 0a71 1C       		.byte	0x1c
 1624 0a72 06       		.uleb128 0x6
 1625 0a73 1A050000 		.4byte	.LASF173
 1626 0a77 0E       		.byte	0xe
 1627 0a78 73       		.byte	0x73
 1628 0a79 84030000 		.4byte	0x384
 1629 0a7d 20       		.byte	0x20
 1630 0a7e 06       		.uleb128 0x6
 1631 0a7f 34040000 		.4byte	.LASF174
 1632 0a83 0E       		.byte	0xe
 1633 0a84 75       		.byte	0x75
 1634 0a85 84030000 		.4byte	0x384
 1635 0a89 24       		.byte	0x24
 1636 0a8a 06       		.uleb128 0x6
 1637 0a8b 2D010000 		.4byte	.LASF175
 1638 0a8f 0E       		.byte	0xe
 1639 0a90 76       		.byte	0x76
 1640 0a91 84030000 		.4byte	0x384
 1641 0a95 28       		.byte	0x28
 1642 0a96 06       		.uleb128 0x6
 1643 0a97 FA090000 		.4byte	.LASF176
 1644 0a9b 0E       		.byte	0xe
 1645 0a9c 78       		.byte	0x78
 1646 0a9d 84030000 		.4byte	0x384
 1647 0aa1 2C       		.byte	0x2c
 1648 0aa2 06       		.uleb128 0x6
 1649 0aa3 210A0000 		.4byte	.LASF177
 1650 0aa7 0E       		.byte	0xe
 1651 0aa8 7A       		.byte	0x7a
 1652 0aa9 84030000 		.4byte	0x384
 1653 0aad 30       		.byte	0x30
ARM GAS  /tmp/ccNaYbnh.s 			page 30


 1654 0aae 06       		.uleb128 0x6
 1655 0aaf 320A0000 		.4byte	.LASF178
 1656 0ab3 0E       		.byte	0xe
 1657 0ab4 7B       		.byte	0x7b
 1658 0ab5 84030000 		.4byte	0x384
 1659 0ab9 34       		.byte	0x34
 1660 0aba 06       		.uleb128 0x6
 1661 0abb 5B020000 		.4byte	.LASF179
 1662 0abf 0E       		.byte	0xe
 1663 0ac0 7C       		.byte	0x7c
 1664 0ac1 84030000 		.4byte	0x384
 1665 0ac5 38       		.byte	0x38
 1666 0ac6 07       		.uleb128 0x7
 1667 0ac7 43494400 		.ascii	"CID\000"
 1668 0acb 0E       		.byte	0xe
 1669 0acc 7D       		.byte	0x7d
 1670 0acd 84030000 		.4byte	0x384
 1671 0ad1 3C       		.byte	0x3c
 1672 0ad2 06       		.uleb128 0x6
 1673 0ad3 CD0A0000 		.4byte	.LASF180
 1674 0ad7 0E       		.byte	0xe
 1675 0ad8 7E       		.byte	0x7e
 1676 0ad9 F40C0000 		.4byte	0xcf4
 1677 0add 40       		.byte	0x40
 1678 0ade 1D       		.uleb128 0x1d
 1679 0adf 13080000 		.4byte	.LASF181
 1680 0ae3 0E       		.byte	0xe
 1681 0ae4 7F       		.byte	0x7f
 1682 0ae5 84030000 		.4byte	0x384
 1683 0ae9 0001     		.2byte	0x100
 1684 0aeb 1D       		.uleb128 0x1d
 1685 0aec 5A040000 		.4byte	.LASF182
 1686 0af0 0E       		.byte	0xe
 1687 0af1 81       		.byte	0x81
 1688 0af2 090D0000 		.4byte	0xd09
 1689 0af6 0401     		.2byte	0x104
 1690 0af8 1D       		.uleb128 0x1d
 1691 0af9 330B0000 		.4byte	.LASF183
 1692 0afd 0E       		.byte	0xe
 1693 0afe 83       		.byte	0x83
 1694 0aff 1E0D0000 		.4byte	0xd1e
 1695 0b03 4001     		.2byte	0x140
 1696 0b05 1D       		.uleb128 0x1d
 1697 0b06 8A020000 		.4byte	.LASF184
 1698 0b0a 0E       		.byte	0xe
 1699 0b0b 84       		.byte	0x84
 1700 0b0c 84030000 		.4byte	0x384
 1701 0b10 0004     		.2byte	0x400
 1702 0b12 1D       		.uleb128 0x1d
 1703 0b13 E90A0000 		.4byte	.LASF185
 1704 0b17 0E       		.byte	0xe
 1705 0b18 85       		.byte	0x85
 1706 0b19 84030000 		.4byte	0x384
 1707 0b1d 0404     		.2byte	0x404
 1708 0b1f 1D       		.uleb128 0x1d
 1709 0b20 30030000 		.4byte	.LASF186
 1710 0b24 0E       		.byte	0xe
ARM GAS  /tmp/ccNaYbnh.s 			page 31


 1711 0b25 86       		.byte	0x86
 1712 0b26 84030000 		.4byte	0x384
 1713 0b2a 0804     		.2byte	0x408
 1714 0b2c 1D       		.uleb128 0x1d
 1715 0b2d FB040000 		.4byte	.LASF187
 1716 0b31 0E       		.byte	0xe
 1717 0b32 88       		.byte	0x88
 1718 0b33 84030000 		.4byte	0x384
 1719 0b37 0C04     		.2byte	0x40c
 1720 0b39 1D       		.uleb128 0x1d
 1721 0b3a C50A0000 		.4byte	.LASF188
 1722 0b3e 0E       		.byte	0xe
 1723 0b3f 89       		.byte	0x89
 1724 0b40 84030000 		.4byte	0x384
 1725 0b44 1004     		.2byte	0x410
 1726 0b46 1D       		.uleb128 0x1d
 1727 0b47 F5060000 		.4byte	.LASF189
 1728 0b4b 0E       		.byte	0xe
 1729 0b4c 8B       		.byte	0x8b
 1730 0b4d 84030000 		.4byte	0x384
 1731 0b51 1404     		.2byte	0x414
 1732 0b53 1D       		.uleb128 0x1d
 1733 0b54 71070000 		.4byte	.LASF190
 1734 0b58 0E       		.byte	0xe
 1735 0b59 8D       		.byte	0x8d
 1736 0b5a 84030000 		.4byte	0x384
 1737 0b5e 1804     		.2byte	0x418
 1738 0b60 1D       		.uleb128 0x1d
 1739 0b61 60060000 		.4byte	.LASF191
 1740 0b65 0E       		.byte	0xe
 1741 0b66 8F       		.byte	0x8f
 1742 0b67 330D0000 		.4byte	0xd33
 1743 0b6b 1C04     		.2byte	0x41c
 1744 0b6d 1D       		.uleb128 0x1d
 1745 0b6e C4020000 		.4byte	.LASF192
 1746 0b72 0E       		.byte	0xe
 1747 0b73 90       		.byte	0x90
 1748 0b74 84030000 		.4byte	0x384
 1749 0b78 4004     		.2byte	0x440
 1750 0b7a 1D       		.uleb128 0x1d
 1751 0b7b 57070000 		.4byte	.LASF193
 1752 0b7f 0E       		.byte	0xe
 1753 0b80 92       		.byte	0x92
 1754 0b81 480D0000 		.4byte	0xd48
 1755 0b85 4404     		.2byte	0x444
 1756 0b87 1E       		.uleb128 0x1e
 1757 0b88 686300   		.ascii	"hc\000"
 1758 0b8b 0E       		.byte	0xe
 1759 0b8c 93       		.byte	0x93
 1760 0b8d 4D0D0000 		.4byte	0xd4d
 1761 0b91 0005     		.2byte	0x500
 1762 0b93 1D       		.uleb128 0x1d
 1763 0b94 75000000 		.4byte	.LASF194
 1764 0b98 0E       		.byte	0xe
 1765 0b99 94       		.byte	0x94
 1766 0b9a 6D0D0000 		.4byte	0xd6d
 1767 0b9e 0007     		.2byte	0x700
ARM GAS  /tmp/ccNaYbnh.s 			page 32


 1768 0ba0 1D       		.uleb128 0x1d
 1769 0ba1 56020000 		.4byte	.LASF195
 1770 0ba5 0E       		.byte	0xe
 1771 0ba6 95       		.byte	0x95
 1772 0ba7 84030000 		.4byte	0x384
 1773 0bab 0008     		.2byte	0x800
 1774 0bad 1D       		.uleb128 0x1d
 1775 0bae 40080000 		.4byte	.LASF196
 1776 0bb2 0E       		.byte	0xe
 1777 0bb3 96       		.byte	0x96
 1778 0bb4 84030000 		.4byte	0x384
 1779 0bb8 0408     		.2byte	0x804
 1780 0bba 1D       		.uleb128 0x1d
 1781 0bbb 8E0A0000 		.4byte	.LASF197
 1782 0bbf 0E       		.byte	0xe
 1783 0bc0 97       		.byte	0x97
 1784 0bc1 84030000 		.4byte	0x384
 1785 0bc5 0808     		.2byte	0x808
 1786 0bc7 1D       		.uleb128 0x1d
 1787 0bc8 BB020000 		.4byte	.LASF198
 1788 0bcc 0E       		.byte	0xe
 1789 0bcd 98       		.byte	0x98
 1790 0bce 84030000 		.4byte	0x384
 1791 0bd2 0C08     		.2byte	0x80c
 1792 0bd4 1D       		.uleb128 0x1d
 1793 0bd5 9C090000 		.4byte	.LASF199
 1794 0bd9 0E       		.byte	0xe
 1795 0bda 99       		.byte	0x99
 1796 0bdb 84030000 		.4byte	0x384
 1797 0bdf 1008     		.2byte	0x810
 1798 0be1 1D       		.uleb128 0x1d
 1799 0be2 C4010000 		.4byte	.LASF200
 1800 0be6 0E       		.byte	0xe
 1801 0be7 9B       		.byte	0x9b
 1802 0be8 84030000 		.4byte	0x384
 1803 0bec 1408     		.2byte	0x814
 1804 0bee 1D       		.uleb128 0x1d
 1805 0bef A8010000 		.4byte	.LASF201
 1806 0bf3 0E       		.byte	0xe
 1807 0bf4 9D       		.byte	0x9d
 1808 0bf5 84030000 		.4byte	0x384
 1809 0bf9 1808     		.2byte	0x818
 1810 0bfb 1D       		.uleb128 0x1d
 1811 0bfc 94080000 		.4byte	.LASF202
 1812 0c00 0E       		.byte	0xe
 1813 0c01 9F       		.byte	0x9f
 1814 0c02 84030000 		.4byte	0x384
 1815 0c06 1C08     		.2byte	0x81c
 1816 0c08 1D       		.uleb128 0x1d
 1817 0c09 C5040000 		.4byte	.LASF203
 1818 0c0d 0E       		.byte	0xe
 1819 0c0e A1       		.byte	0xa1
 1820 0c0f 84030000 		.4byte	0x384
 1821 0c13 2008     		.2byte	0x820
 1822 0c15 1D       		.uleb128 0x1d
 1823 0c16 8C030000 		.4byte	.LASF204
 1824 0c1a 0E       		.byte	0xe
ARM GAS  /tmp/ccNaYbnh.s 			page 33


 1825 0c1b A2       		.byte	0xa2
 1826 0c1c 84030000 		.4byte	0x384
 1827 0c20 2408     		.2byte	0x824
 1828 0c22 1D       		.uleb128 0x1d
 1829 0c23 9D080000 		.4byte	.LASF205
 1830 0c27 0E       		.byte	0xe
 1831 0c28 A3       		.byte	0xa3
 1832 0c29 84030000 		.4byte	0x384
 1833 0c2d 2808     		.2byte	0x828
 1834 0c2f 1D       		.uleb128 0x1d
 1835 0c30 95030000 		.4byte	.LASF206
 1836 0c34 0E       		.byte	0xe
 1837 0c35 A5       		.byte	0xa5
 1838 0c36 84030000 		.4byte	0x384
 1839 0c3a 2C08     		.2byte	0x82c
 1840 0c3c 1D       		.uleb128 0x1d
 1841 0c3d 7F060000 		.4byte	.LASF207
 1842 0c41 0E       		.byte	0xe
 1843 0c42 A7       		.byte	0xa7
 1844 0c43 84030000 		.4byte	0x384
 1845 0c47 3008     		.2byte	0x830
 1846 0c49 1D       		.uleb128 0x1d
 1847 0c4a AB030000 		.4byte	.LASF208
 1848 0c4e 0E       		.byte	0xe
 1849 0c4f A8       		.byte	0xa8
 1850 0c50 84030000 		.4byte	0x384
 1851 0c54 3408     		.2byte	0x834
 1852 0c56 1D       		.uleb128 0x1d
 1853 0c57 02040000 		.4byte	.LASF209
 1854 0c5b 0E       		.byte	0xe
 1855 0c5c AA       		.byte	0xaa
 1856 0c5d 84030000 		.4byte	0x384
 1857 0c61 3808     		.2byte	0x838
 1858 0c63 1D       		.uleb128 0x1d
 1859 0c64 BB060000 		.4byte	.LASF210
 1860 0c68 0E       		.byte	0xe
 1861 0c69 AB       		.byte	0xab
 1862 0c6a 84030000 		.4byte	0x384
 1863 0c6e 3C08     		.2byte	0x83c
 1864 0c70 1D       		.uleb128 0x1d
 1865 0c71 46040000 		.4byte	.LASF211
 1866 0c75 0E       		.byte	0xe
 1867 0c76 AC       		.byte	0xac
 1868 0c77 820D0000 		.4byte	0xd82
 1869 0c7b 4008     		.2byte	0x840
 1870 0c7d 1D       		.uleb128 0x1d
 1871 0c7e 98060000 		.4byte	.LASF212
 1872 0c82 0E       		.byte	0xe
 1873 0c83 AD       		.byte	0xad
 1874 0c84 870D0000 		.4byte	0xd87
 1875 0c88 8008     		.2byte	0x880
 1876 0c8a 1D       		.uleb128 0x1d
 1877 0c8b 290A0000 		.4byte	.LASF213
 1878 0c8f 0E       		.byte	0xe
 1879 0c90 AE       		.byte	0xae
 1880 0c91 8C0D0000 		.4byte	0xd8c
 1881 0c95 C008     		.2byte	0x8c0
ARM GAS  /tmp/ccNaYbnh.s 			page 34


 1882 0c97 1E       		.uleb128 0x1e
 1883 0c98 696500   		.ascii	"ie\000"
 1884 0c9b 0E       		.byte	0xe
 1885 0c9c AF       		.byte	0xaf
 1886 0c9d 910D0000 		.4byte	0xd91
 1887 0ca1 0009     		.2byte	0x900
 1888 0ca3 1E       		.uleb128 0x1e
 1889 0ca4 6F6500   		.ascii	"oe\000"
 1890 0ca7 0E       		.byte	0xe
 1891 0ca8 B0       		.byte	0xb0
 1892 0ca9 A10D0000 		.4byte	0xda1
 1893 0cad 000B     		.2byte	0xb00
 1894 0caf 1D       		.uleb128 0x1d
 1895 0cb0 F3070000 		.4byte	.LASF214
 1896 0cb4 0E       		.byte	0xe
 1897 0cb5 B1       		.byte	0xb1
 1898 0cb6 B10D0000 		.4byte	0xdb1
 1899 0cba 000D     		.2byte	0xd00
 1900 0cbc 1D       		.uleb128 0x1d
 1901 0cbd 44050000 		.4byte	.LASF215
 1902 0cc1 0E       		.byte	0xe
 1903 0cc2 B2       		.byte	0xb2
 1904 0cc3 84030000 		.4byte	0x384
 1905 0cc7 000E     		.2byte	0xe00
 1906 0cc9 1D       		.uleb128 0x1d
 1907 0cca 180A0000 		.4byte	.LASF216
 1908 0cce 0E       		.byte	0xe
 1909 0ccf B4       		.byte	0xb4
 1910 0cd0 C60D0000 		.4byte	0xdc6
 1911 0cd4 040E     		.2byte	0xe04
 1912 0cd6 1D       		.uleb128 0x1d
 1913 0cd7 E4080000 		.4byte	.LASF217
 1914 0cdb 0E       		.byte	0xe
 1915 0cdc B5       		.byte	0xb5
 1916 0cdd E20D0000 		.4byte	0xde2
 1917 0ce1 0010     		.2byte	0x1000
 1918 0ce3 00       		.byte	0
 1919 0ce4 1F       		.uleb128 0x1f
 1920 0ce5 84030000 		.4byte	0x384
 1921 0ce9 F40C0000 		.4byte	0xcf4
 1922 0ced 20       		.uleb128 0x20
 1923 0cee 89030000 		.4byte	0x389
 1924 0cf2 2F       		.byte	0x2f
 1925 0cf3 00       		.byte	0
 1926 0cf4 0D       		.uleb128 0xd
 1927 0cf5 E40C0000 		.4byte	0xce4
 1928 0cf9 1F       		.uleb128 0x1f
 1929 0cfa 84030000 		.4byte	0x384
 1930 0cfe 090D0000 		.4byte	0xd09
 1931 0d02 20       		.uleb128 0x20
 1932 0d03 89030000 		.4byte	0x389
 1933 0d07 0E       		.byte	0xe
 1934 0d08 00       		.byte	0
 1935 0d09 0D       		.uleb128 0xd
 1936 0d0a F90C0000 		.4byte	0xcf9
 1937 0d0e 1F       		.uleb128 0x1f
 1938 0d0f 84030000 		.4byte	0x384
ARM GAS  /tmp/ccNaYbnh.s 			page 35


 1939 0d13 1E0D0000 		.4byte	0xd1e
 1940 0d17 20       		.uleb128 0x20
 1941 0d18 89030000 		.4byte	0x389
 1942 0d1c AF       		.byte	0xaf
 1943 0d1d 00       		.byte	0
 1944 0d1e 0D       		.uleb128 0xd
 1945 0d1f 0E0D0000 		.4byte	0xd0e
 1946 0d23 1F       		.uleb128 0x1f
 1947 0d24 84030000 		.4byte	0x384
 1948 0d28 330D0000 		.4byte	0xd33
 1949 0d2c 20       		.uleb128 0x20
 1950 0d2d 89030000 		.4byte	0x389
 1951 0d31 08       		.byte	0x8
 1952 0d32 00       		.byte	0
 1953 0d33 0D       		.uleb128 0xd
 1954 0d34 230D0000 		.4byte	0xd23
 1955 0d38 1F       		.uleb128 0x1f
 1956 0d39 84030000 		.4byte	0x384
 1957 0d3d 480D0000 		.4byte	0xd48
 1958 0d41 20       		.uleb128 0x20
 1959 0d42 89030000 		.4byte	0x389
 1960 0d46 2E       		.byte	0x2e
 1961 0d47 00       		.byte	0
 1962 0d48 0D       		.uleb128 0xd
 1963 0d49 380D0000 		.4byte	0xd38
 1964 0d4d 1F       		.uleb128 0x1f
 1965 0d4e 14090000 		.4byte	0x914
 1966 0d52 5D0D0000 		.4byte	0xd5d
 1967 0d56 20       		.uleb128 0x20
 1968 0d57 89030000 		.4byte	0x389
 1969 0d5b 0F       		.byte	0xf
 1970 0d5c 00       		.byte	0
 1971 0d5d 1F       		.uleb128 0x1f
 1972 0d5e 84030000 		.4byte	0x384
 1973 0d62 6D0D0000 		.4byte	0xd6d
 1974 0d66 20       		.uleb128 0x20
 1975 0d67 89030000 		.4byte	0x389
 1976 0d6b 3F       		.byte	0x3f
 1977 0d6c 00       		.byte	0
 1978 0d6d 0D       		.uleb128 0xd
 1979 0d6e 5D0D0000 		.4byte	0xd5d
 1980 0d72 1F       		.uleb128 0x1f
 1981 0d73 84030000 		.4byte	0x384
 1982 0d77 820D0000 		.4byte	0xd82
 1983 0d7b 20       		.uleb128 0x20
 1984 0d7c 89030000 		.4byte	0x389
 1985 0d80 0F       		.byte	0xf
 1986 0d81 00       		.byte	0
 1987 0d82 0D       		.uleb128 0xd
 1988 0d83 720D0000 		.4byte	0xd72
 1989 0d87 0D       		.uleb128 0xd
 1990 0d88 720D0000 		.4byte	0xd72
 1991 0d8c 0D       		.uleb128 0xd
 1992 0d8d 720D0000 		.4byte	0xd72
 1993 0d91 1F       		.uleb128 0x1f
 1994 0d92 88090000 		.4byte	0x988
 1995 0d96 A10D0000 		.4byte	0xda1
ARM GAS  /tmp/ccNaYbnh.s 			page 36


 1996 0d9a 20       		.uleb128 0x20
 1997 0d9b 89030000 		.4byte	0x389
 1998 0d9f 0F       		.byte	0xf
 1999 0da0 00       		.byte	0
 2000 0da1 1F       		.uleb128 0x1f
 2001 0da2 FC090000 		.4byte	0x9fc
 2002 0da6 B10D0000 		.4byte	0xdb1
 2003 0daa 20       		.uleb128 0x20
 2004 0dab 89030000 		.4byte	0x389
 2005 0daf 0F       		.byte	0xf
 2006 0db0 00       		.byte	0
 2007 0db1 0D       		.uleb128 0xd
 2008 0db2 5D0D0000 		.4byte	0xd5d
 2009 0db6 1F       		.uleb128 0x1f
 2010 0db7 84030000 		.4byte	0x384
 2011 0dbb C60D0000 		.4byte	0xdc6
 2012 0dbf 20       		.uleb128 0x20
 2013 0dc0 89030000 		.4byte	0x389
 2014 0dc4 7E       		.byte	0x7e
 2015 0dc5 00       		.byte	0
 2016 0dc6 0D       		.uleb128 0xd
 2017 0dc7 B60D0000 		.4byte	0xdb6
 2018 0dcb 1F       		.uleb128 0x1f
 2019 0dcc 84030000 		.4byte	0x384
 2020 0dd0 E20D0000 		.4byte	0xde2
 2021 0dd4 20       		.uleb128 0x20
 2022 0dd5 89030000 		.4byte	0x389
 2023 0dd9 0F       		.byte	0xf
 2024 0dda 21       		.uleb128 0x21
 2025 0ddb 89030000 		.4byte	0x389
 2026 0ddf FF03     		.2byte	0x3ff
 2027 0de1 00       		.byte	0
 2028 0de2 0D       		.uleb128 0xd
 2029 0de3 CB0D0000 		.4byte	0xdcb
 2030 0de7 03       		.uleb128 0x3
 2031 0de8 24070000 		.4byte	.LASF218
 2032 0dec 0E       		.byte	0xe
 2033 0ded B6       		.byte	0xb6
 2034 0dee 070A0000 		.4byte	0xa07
 2035 0df2 08       		.uleb128 0x8
 2036 0df3 0C       		.byte	0xc
 2037 0df4 0D       		.byte	0xd
 2038 0df5 C6       		.byte	0xc6
 2039 0df6 1F0E0000 		.4byte	0xe1f
 2040 0dfa 06       		.uleb128 0x6
 2041 0dfb 40000000 		.4byte	.LASF219
 2042 0dff 0D       		.byte	0xd
 2043 0e00 C7       		.byte	0xc7
 2044 0e01 01010000 		.4byte	0x101
 2045 0e05 00       		.byte	0
 2046 0e06 06       		.uleb128 0x6
 2047 0e07 C2080000 		.4byte	.LASF220
 2048 0e0b 0D       		.byte	0xd
 2049 0e0c C8       		.byte	0xc8
 2050 0e0d 01010000 		.4byte	0x101
 2051 0e11 04       		.byte	0x4
 2052 0e12 06       		.uleb128 0x6
ARM GAS  /tmp/ccNaYbnh.s 			page 37


 2053 0e13 AF040000 		.4byte	.LASF221
 2054 0e17 0D       		.byte	0xd
 2055 0e18 C9       		.byte	0xc9
 2056 0e19 01010000 		.4byte	0x101
 2057 0e1d 08       		.byte	0x8
 2058 0e1e 00       		.byte	0
 2059 0e1f 03       		.uleb128 0x3
 2060 0e20 C4030000 		.4byte	.LASF222
 2061 0e24 0D       		.byte	0xd
 2062 0e25 CA       		.byte	0xca
 2063 0e26 F20D0000 		.4byte	0xdf2
 2064 0e2a 08       		.uleb128 0x8
 2065 0e2b 04       		.byte	0x4
 2066 0e2c 0D       		.byte	0xd
 2067 0e2d DD       		.byte	0xdd
 2068 0e2e 3F0E0000 		.4byte	0xe3f
 2069 0e32 06       		.uleb128 0x6
 2070 0e33 99010000 		.4byte	.LASF223
 2071 0e37 0D       		.byte	0xd
 2072 0e38 E1       		.byte	0xe1
 2073 0e39 D5040000 		.4byte	0x4d5
 2074 0e3d 00       		.byte	0
 2075 0e3e 00       		.byte	0
 2076 0e3f 08       		.uleb128 0x8
 2077 0e40 04       		.byte	0x4
 2078 0e41 0D       		.byte	0xd
 2079 0e42 E3       		.byte	0xe3
 2080 0e43 540E0000 		.4byte	0xe54
 2081 0e47 06       		.uleb128 0x6
 2082 0e48 8C090000 		.4byte	.LASF224
 2083 0e4c 0D       		.byte	0xd
 2084 0e4d E7       		.byte	0xe7
 2085 0e4e 540E0000 		.4byte	0xe54
 2086 0e52 00       		.byte	0
 2087 0e53 00       		.byte	0
 2088 0e54 09       		.uleb128 0x9
 2089 0e55 04       		.byte	0x4
 2090 0e56 CA040000 		.4byte	0x4ca
 2091 0e5a 0E       		.uleb128 0xe
 2092 0e5b 04       		.byte	0x4
 2093 0e5c 0D       		.byte	0xd
 2094 0e5d DC       		.byte	0xdc
 2095 0e5e 790E0000 		.4byte	0xe79
 2096 0e62 0F       		.uleb128 0xf
 2097 0e63 33080000 		.4byte	.LASF225
 2098 0e67 0D       		.byte	0xd
 2099 0e68 E2       		.byte	0xe2
 2100 0e69 2A0E0000 		.4byte	0xe2a
 2101 0e6d 0F       		.uleb128 0xf
 2102 0e6e 07000000 		.4byte	.LASF226
 2103 0e72 0D       		.byte	0xd
 2104 0e73 E8       		.byte	0xe8
 2105 0e74 3F0E0000 		.4byte	0xe3f
 2106 0e78 00       		.byte	0
 2107 0e79 08       		.uleb128 0x8
 2108 0e7a 14       		.byte	0x14
 2109 0e7b 0D       		.byte	0xd
ARM GAS  /tmp/ccNaYbnh.s 			page 38


 2110 0e7c CF       		.byte	0xcf
 2111 0e7d BE0E0000 		.4byte	0xebe
 2112 0e81 06       		.uleb128 0x6
 2113 0e82 170B0000 		.4byte	.LASF227
 2114 0e86 0D       		.byte	0xd
 2115 0e87 D3       		.byte	0xd3
 2116 0e88 17010000 		.4byte	0x117
 2117 0e8c 00       		.byte	0
 2118 0e8d 06       		.uleb128 0x6
 2119 0e8e F4040000 		.4byte	.LASF228
 2120 0e92 0D       		.byte	0xd
 2121 0e93 D7       		.byte	0xd7
 2122 0e94 2C000000 		.4byte	0x2c
 2123 0e98 04       		.byte	0x4
 2124 0e99 06       		.uleb128 0x6
 2125 0e9a 5F010000 		.4byte	.LASF229
 2126 0e9e 0D       		.byte	0xd
 2127 0e9f DB       		.byte	0xdb
 2128 0ea0 2C000000 		.4byte	0x2c
 2129 0ea4 08       		.byte	0x8
 2130 0ea5 06       		.uleb128 0x6
 2131 0ea6 57090000 		.4byte	.LASF230
 2132 0eaa 0D       		.byte	0xd
 2133 0eab E9       		.byte	0xe9
 2134 0eac 5A0E0000 		.4byte	0xe5a
 2135 0eb0 0C       		.byte	0xc
 2136 0eb1 06       		.uleb128 0x6
 2137 0eb2 46090000 		.4byte	.LASF231
 2138 0eb6 0D       		.byte	0xd
 2139 0eb7 ED       		.byte	0xed
 2140 0eb8 2C000000 		.4byte	0x2c
 2141 0ebc 10       		.byte	0x10
 2142 0ebd 00       		.byte	0
 2143 0ebe 03       		.uleb128 0x3
 2144 0ebf 6C030000 		.4byte	.LASF232
 2145 0ec3 0D       		.byte	0xd
 2146 0ec4 EE       		.byte	0xee
 2147 0ec5 790E0000 		.4byte	0xe79
 2148 0ec9 1A       		.uleb128 0x1a
 2149 0eca 04       		.byte	0x4
 2150 0ecb 0D       		.byte	0xd
 2151 0ecc 0101     		.2byte	0x101
 2152 0ece E00E0000 		.4byte	0xee0
 2153 0ed2 15       		.uleb128 0x15
 2154 0ed3 14050000 		.4byte	.LASF233
 2155 0ed7 0D       		.byte	0xd
 2156 0ed8 0501     		.2byte	0x105
 2157 0eda B9040000 		.4byte	0x4b9
 2158 0ede 00       		.byte	0
 2159 0edf 00       		.byte	0
 2160 0ee0 1A       		.uleb128 0x1a
 2161 0ee1 04       		.byte	0x4
 2162 0ee2 0D       		.byte	0xd
 2163 0ee3 0701     		.2byte	0x107
 2164 0ee5 F70E0000 		.4byte	0xef7
 2165 0ee9 15       		.uleb128 0x15
 2166 0eea 8C080000 		.4byte	.LASF234
ARM GAS  /tmp/ccNaYbnh.s 			page 39


 2167 0eee 0D       		.byte	0xd
 2168 0eef 0B01     		.2byte	0x10b
 2169 0ef1 F70E0000 		.4byte	0xef7
 2170 0ef5 00       		.byte	0
 2171 0ef6 00       		.byte	0
 2172 0ef7 09       		.uleb128 0x9
 2173 0ef8 04       		.byte	0x4
 2174 0ef9 BF040000 		.4byte	0x4bf
 2175 0efd 22       		.uleb128 0x22
 2176 0efe 04       		.byte	0x4
 2177 0eff 0D       		.byte	0xd
 2178 0f00 0001     		.2byte	0x100
 2179 0f02 1F0F0000 		.4byte	0xf1f
 2180 0f06 23       		.uleb128 0x23
 2181 0f07 33080000 		.4byte	.LASF225
 2182 0f0b 0D       		.byte	0xd
 2183 0f0c 0601     		.2byte	0x106
 2184 0f0e C90E0000 		.4byte	0xec9
 2185 0f12 23       		.uleb128 0x23
 2186 0f13 07000000 		.4byte	.LASF226
 2187 0f17 0D       		.byte	0xd
 2188 0f18 0C01     		.2byte	0x10c
 2189 0f1a E00E0000 		.4byte	0xee0
 2190 0f1e 00       		.byte	0
 2191 0f1f 08       		.uleb128 0x8
 2192 0f20 14       		.byte	0x14
 2193 0f21 0D       		.byte	0xd
 2194 0f22 F3       		.byte	0xf3
 2195 0f23 660F0000 		.4byte	0xf66
 2196 0f27 06       		.uleb128 0x6
 2197 0f28 60080000 		.4byte	.LASF235
 2198 0f2c 0D       		.byte	0xd
 2199 0f2d F7       		.byte	0xf7
 2200 0f2e 17010000 		.4byte	0x117
 2201 0f32 00       		.byte	0
 2202 0f33 06       		.uleb128 0x6
 2203 0f34 2C020000 		.4byte	.LASF236
 2204 0f38 0D       		.byte	0xd
 2205 0f39 FB       		.byte	0xfb
 2206 0f3a 2C000000 		.4byte	0x2c
 2207 0f3e 04       		.byte	0x4
 2208 0f3f 06       		.uleb128 0x6
 2209 0f40 E3040000 		.4byte	.LASF237
 2210 0f44 0D       		.byte	0xd
 2211 0f45 FF       		.byte	0xff
 2212 0f46 2C000000 		.4byte	0x2c
 2213 0f4a 08       		.byte	0x8
 2214 0f4b 15       		.uleb128 0x15
 2215 0f4c 57090000 		.4byte	.LASF230
 2216 0f50 0D       		.byte	0xd
 2217 0f51 0D01     		.2byte	0x10d
 2218 0f53 FD0E0000 		.4byte	0xefd
 2219 0f57 0C       		.byte	0xc
 2220 0f58 15       		.uleb128 0x15
 2221 0f59 46090000 		.4byte	.LASF231
 2222 0f5d 0D       		.byte	0xd
 2223 0f5e 1101     		.2byte	0x111
ARM GAS  /tmp/ccNaYbnh.s 			page 40


 2224 0f60 2C000000 		.4byte	0x2c
 2225 0f64 10       		.byte	0x10
 2226 0f65 00       		.byte	0
 2227 0f66 19       		.uleb128 0x19
 2228 0f67 D6070000 		.4byte	.LASF238
 2229 0f6b 0D       		.byte	0xd
 2230 0f6c 1201     		.2byte	0x112
 2231 0f6e 1F0F0000 		.4byte	0xf1f
 2232 0f72 1A       		.uleb128 0x1a
 2233 0f73 24       		.byte	0x24
 2234 0f74 0D       		.byte	0xd
 2235 0f75 1801     		.2byte	0x118
 2236 0f77 FE0F0000 		.4byte	0xffe
 2237 0f7b 15       		.uleb128 0x15
 2238 0f7c A7000000 		.4byte	.LASF239
 2239 0f80 0D       		.byte	0xd
 2240 0f81 1C01     		.2byte	0x11c
 2241 0f83 01010000 		.4byte	0x101
 2242 0f87 00       		.byte	0
 2243 0f88 15       		.uleb128 0x15
 2244 0f89 00030000 		.4byte	.LASF240
 2245 0f8d 0D       		.byte	0xd
 2246 0f8e 2701     		.2byte	0x127
 2247 0f90 0B080000 		.4byte	0x80b
 2248 0f94 04       		.byte	0x4
 2249 0f95 15       		.uleb128 0x15
 2250 0f96 13030000 		.4byte	.LASF241
 2251 0f9a 0D       		.byte	0xd
 2252 0f9b 2D01     		.2byte	0x12d
 2253 0f9d 0B080000 		.4byte	0x80b
 2254 0fa1 08       		.byte	0x8
 2255 0fa2 15       		.uleb128 0x15
 2256 0fa3 60070000 		.4byte	.LASF242
 2257 0fa7 0D       		.byte	0xd
 2258 0fa8 3301     		.2byte	0x133
 2259 0faa 0B080000 		.4byte	0x80b
 2260 0fae 0C       		.byte	0xc
 2261 0faf 15       		.uleb128 0x15
 2262 0fb0 83070000 		.4byte	.LASF243
 2263 0fb4 0D       		.byte	0xd
 2264 0fb5 3901     		.2byte	0x139
 2265 0fb7 EB000000 		.4byte	0xeb
 2266 0fbb 10       		.byte	0x10
 2267 0fbc 15       		.uleb128 0x15
 2268 0fbd 7A010000 		.4byte	.LASF244
 2269 0fc1 0D       		.byte	0xd
 2270 0fc2 3F01     		.2byte	0x13f
 2271 0fc4 EB000000 		.4byte	0xeb
 2272 0fc8 12       		.byte	0x12
 2273 0fc9 15       		.uleb128 0x15
 2274 0fca 22050000 		.4byte	.LASF245
 2275 0fce 0D       		.byte	0xd
 2276 0fcf 4401     		.2byte	0x144
 2277 0fd1 FE0F0000 		.4byte	0xffe
 2278 0fd5 14       		.byte	0x14
 2279 0fd6 15       		.uleb128 0x15
 2280 0fd7 96070000 		.4byte	.LASF246
ARM GAS  /tmp/ccNaYbnh.s 			page 41


 2281 0fdb 0D       		.byte	0xd
 2282 0fdc 4901     		.2byte	0x149
 2283 0fde 04100000 		.4byte	0x1004
 2284 0fe2 18       		.byte	0x18
 2285 0fe3 15       		.uleb128 0x15
 2286 0fe4 94040000 		.4byte	.LASF247
 2287 0fe8 0D       		.byte	0xd
 2288 0fe9 5001     		.2byte	0x150
 2289 0feb EB000000 		.4byte	0xeb
 2290 0fef 1C       		.byte	0x1c
 2291 0ff0 15       		.uleb128 0x15
 2292 0ff1 37070000 		.4byte	.LASF248
 2293 0ff5 0D       		.byte	0xd
 2294 0ff6 5601     		.2byte	0x156
 2295 0ff8 B9040000 		.4byte	0x4b9
 2296 0ffc 20       		.byte	0x20
 2297 0ffd 00       		.byte	0
 2298 0ffe 09       		.uleb128 0x9
 2299 0fff 04       		.byte	0x4
 2300 1000 BE0E0000 		.4byte	0xebe
 2301 1004 09       		.uleb128 0x9
 2302 1005 04       		.byte	0x4
 2303 1006 660F0000 		.4byte	0xf66
 2304 100a 19       		.uleb128 0x19
 2305 100b 45080000 		.4byte	.LASF249
 2306 100f 0D       		.byte	0xd
 2307 1010 5701     		.2byte	0x157
 2308 1012 720F0000 		.4byte	0xf72
 2309 1016 1A       		.uleb128 0x1a
 2310 1017 10       		.byte	0x10
 2311 1018 0D       		.byte	0xd
 2312 1019 5C01     		.2byte	0x15c
 2313 101b 54100000 		.4byte	0x1054
 2314 101f 15       		.uleb128 0x15
 2315 1020 31060000 		.4byte	.LASF250
 2316 1024 0D       		.byte	0xd
 2317 1025 6101     		.2byte	0x161
 2318 1027 2D080000 		.4byte	0x82d
 2319 102b 00       		.byte	0
 2320 102c 15       		.uleb128 0x15
 2321 102d 930A0000 		.4byte	.LASF251
 2322 1031 0D       		.byte	0xd
 2323 1032 6601     		.2byte	0x166
 2324 1034 70080000 		.4byte	0x870
 2325 1038 04       		.byte	0x4
 2326 1039 15       		.uleb128 0x15
 2327 103a 73020000 		.4byte	.LASF252
 2328 103e 0D       		.byte	0xd
 2329 103f 6C01     		.2byte	0x16c
 2330 1041 4F080000 		.4byte	0x84f
 2331 1045 08       		.byte	0x8
 2332 1046 15       		.uleb128 0x15
 2333 1047 110A0000 		.4byte	.LASF253
 2334 104b 0D       		.byte	0xd
 2335 104c 7001     		.2byte	0x170
 2336 104e E8070000 		.4byte	0x7e8
 2337 1052 0C       		.byte	0xc
ARM GAS  /tmp/ccNaYbnh.s 			page 42


 2338 1053 00       		.byte	0
 2339 1054 19       		.uleb128 0x19
 2340 1055 08070000 		.4byte	.LASF254
 2341 1059 0D       		.byte	0xd
 2342 105a 7201     		.2byte	0x172
 2343 105c 16100000 		.4byte	0x1016
 2344 1060 09       		.uleb128 0x9
 2345 1061 04       		.byte	0x4
 2346 1062 66100000 		.4byte	0x1066
 2347 1066 10       		.uleb128 0x10
 2348 1067 54100000 		.4byte	0x1054
 2349 106b 1F       		.uleb128 0x1f
 2350 106c 7B100000 		.4byte	0x107b
 2351 1070 7B100000 		.4byte	0x107b
 2352 1074 20       		.uleb128 0x20
 2353 1075 89030000 		.4byte	0x389
 2354 1079 03       		.byte	0x3
 2355 107a 00       		.byte	0
 2356 107b 09       		.uleb128 0x9
 2357 107c 04       		.byte	0x4
 2358 107d 81100000 		.4byte	0x1081
 2359 1081 10       		.uleb128 0x10
 2360 1082 0A100000 		.4byte	0x100a
 2361 1086 1F       		.uleb128 0x1f
 2362 1087 DA020000 		.4byte	0x2da
 2363 108b 96100000 		.4byte	0x1096
 2364 108f 20       		.uleb128 0x20
 2365 1090 89030000 		.4byte	0x389
 2366 1094 02       		.byte	0x2
 2367 1095 00       		.byte	0
 2368 1096 1F       		.uleb128 0x1f
 2369 1097 D5000000 		.4byte	0xd5
 2370 109b A6100000 		.4byte	0x10a6
 2371 109f 20       		.uleb128 0x20
 2372 10a0 89030000 		.4byte	0x389
 2373 10a4 07       		.byte	0x7
 2374 10a5 00       		.byte	0
 2375 10a6 09       		.uleb128 0x9
 2376 10a7 04       		.byte	0x4
 2377 10a8 E70D0000 		.4byte	0xde7
 2378 10ac 09       		.uleb128 0x9
 2379 10ad 04       		.byte	0x4
 2380 10ae B2100000 		.4byte	0x10b2
 2381 10b2 10       		.uleb128 0x10
 2382 10b3 1F0E0000 		.4byte	0xe1f
 2383 10b7 1F       		.uleb128 0x1f
 2384 10b8 DC020000 		.4byte	0x2dc
 2385 10bc C7100000 		.4byte	0x10c7
 2386 10c0 20       		.uleb128 0x20
 2387 10c1 89030000 		.4byte	0x389
 2388 10c5 28       		.byte	0x28
 2389 10c6 00       		.byte	0
 2390 10c7 04       		.uleb128 0x4
 2391 10c8 08       		.byte	0x8
 2392 10c9 04       		.byte	0x4
 2393 10ca 71060000 		.4byte	.LASF255
 2394 10ce 04       		.uleb128 0x4
ARM GAS  /tmp/ccNaYbnh.s 			page 43


 2395 10cf 04       		.byte	0x4
 2396 10d0 04       		.byte	0x4
 2397 10d1 C4060000 		.4byte	.LASF256
 2398 10d5 08       		.uleb128 0x8
 2399 10d6 14       		.byte	0x14
 2400 10d7 0F       		.byte	0xf
 2401 10d8 AA       		.byte	0xaa
 2402 10d9 94110000 		.4byte	0x1194
 2403 10dd 07       		.uleb128 0x7
 2404 10de 613000   		.ascii	"a0\000"
 2405 10e1 0F       		.byte	0xf
 2406 10e2 AB       		.byte	0xab
 2407 10e3 CA000000 		.4byte	0xca
 2408 10e7 00       		.byte	0
 2409 10e8 07       		.uleb128 0x7
 2410 10e9 613100   		.ascii	"a1\000"
 2411 10ec 0F       		.byte	0xf
 2412 10ed AC       		.byte	0xac
 2413 10ee CA000000 		.4byte	0xca
 2414 10f2 01       		.byte	0x1
 2415 10f3 07       		.uleb128 0x7
 2416 10f4 613200   		.ascii	"a2\000"
 2417 10f7 0F       		.byte	0xf
 2418 10f8 AD       		.byte	0xad
 2419 10f9 CA000000 		.4byte	0xca
 2420 10fd 02       		.byte	0x2
 2421 10fe 07       		.uleb128 0x7
 2422 10ff 613300   		.ascii	"a3\000"
 2423 1102 0F       		.byte	0xf
 2424 1103 AE       		.byte	0xae
 2425 1104 CA000000 		.4byte	0xca
 2426 1108 03       		.byte	0x3
 2427 1109 07       		.uleb128 0x7
 2428 110a 613400   		.ascii	"a4\000"
 2429 110d 0F       		.byte	0xf
 2430 110e AF       		.byte	0xaf
 2431 110f CA000000 		.4byte	0xca
 2432 1113 04       		.byte	0x4
 2433 1114 07       		.uleb128 0x7
 2434 1115 613500   		.ascii	"a5\000"
 2435 1118 0F       		.byte	0xf
 2436 1119 B0       		.byte	0xb0
 2437 111a CA000000 		.4byte	0xca
 2438 111e 05       		.byte	0x5
 2439 111f 07       		.uleb128 0x7
 2440 1120 613600   		.ascii	"a6\000"
 2441 1123 0F       		.byte	0xf
 2442 1124 B1       		.byte	0xb1
 2443 1125 EB000000 		.4byte	0xeb
 2444 1129 06       		.byte	0x6
 2445 112a 07       		.uleb128 0x7
 2446 112b 613700   		.ascii	"a7\000"
 2447 112e 0F       		.byte	0xf
 2448 112f B2       		.byte	0xb2
 2449 1130 EB000000 		.4byte	0xeb
 2450 1134 08       		.byte	0x8
 2451 1135 07       		.uleb128 0x7
ARM GAS  /tmp/ccNaYbnh.s 			page 44


 2452 1136 613800   		.ascii	"a8\000"
 2453 1139 0F       		.byte	0xf
 2454 113a B3       		.byte	0xb3
 2455 113b EB000000 		.4byte	0xeb
 2456 113f 0A       		.byte	0xa
 2457 1140 07       		.uleb128 0x7
 2458 1141 613900   		.ascii	"a9\000"
 2459 1144 0F       		.byte	0xf
 2460 1145 B4       		.byte	0xb4
 2461 1146 EB000000 		.4byte	0xeb
 2462 114a 0C       		.byte	0xc
 2463 114b 07       		.uleb128 0x7
 2464 114c 61313000 		.ascii	"a10\000"
 2465 1150 0F       		.byte	0xf
 2466 1151 B5       		.byte	0xb5
 2467 1152 CA000000 		.4byte	0xca
 2468 1156 0E       		.byte	0xe
 2469 1157 07       		.uleb128 0x7
 2470 1158 61313100 		.ascii	"a11\000"
 2471 115c 0F       		.byte	0xf
 2472 115d B6       		.byte	0xb6
 2473 115e CA000000 		.4byte	0xca
 2474 1162 0F       		.byte	0xf
 2475 1163 07       		.uleb128 0x7
 2476 1164 61313200 		.ascii	"a12\000"
 2477 1168 0F       		.byte	0xf
 2478 1169 B7       		.byte	0xb7
 2479 116a CA000000 		.4byte	0xca
 2480 116e 10       		.byte	0x10
 2481 116f 07       		.uleb128 0x7
 2482 1170 61313300 		.ascii	"a13\000"
 2483 1174 0F       		.byte	0xf
 2484 1175 B8       		.byte	0xb8
 2485 1176 CA000000 		.4byte	0xca
 2486 117a 11       		.byte	0x11
 2487 117b 07       		.uleb128 0x7
 2488 117c 61313400 		.ascii	"a14\000"
 2489 1180 0F       		.byte	0xf
 2490 1181 B9       		.byte	0xb9
 2491 1182 CA000000 		.4byte	0xca
 2492 1186 12       		.byte	0x12
 2493 1187 07       		.uleb128 0x7
 2494 1188 61313500 		.ascii	"a15\000"
 2495 118c 0F       		.byte	0xf
 2496 118d BA       		.byte	0xba
 2497 118e CA000000 		.4byte	0xca
 2498 1192 13       		.byte	0x13
 2499 1193 00       		.byte	0
 2500 1194 03       		.uleb128 0x3
 2501 1195 30090000 		.4byte	.LASF257
 2502 1199 0F       		.byte	0xf
 2503 119a BF       		.byte	0xbf
 2504 119b D5100000 		.4byte	0x10d5
 2505 119f 24       		.uleb128 0x24
 2506 11a0 75010000 		.4byte	.LASF272
 2507 11a4 01       		.byte	0x1
 2508 11a5 56       		.byte	0x56
ARM GAS  /tmp/ccNaYbnh.s 			page 45


 2509 11a6 25000000 		.4byte	0x25
 2510 11aa 00000000 		.4byte	.LFB118
 2511 11ae C0010000 		.4byte	.LFE118-.LFB118
 2512 11b2 01       		.uleb128 0x1
 2513 11b3 9C       		.byte	0x9c
 2514 11b4 66120000 		.4byte	0x1266
 2515 11b8 25       		.uleb128 0x25
 2516 11b9 D0000000 		.4byte	.LASF273
 2517 11bd 01       		.byte	0x1
 2518 11be 5A       		.byte	0x5a
 2519 11bf EB000000 		.4byte	0xeb
 2520 11c3 00000000 		.4byte	.LLST0
 2521 11c7 26       		.uleb128 0x26
 2522 11c8 10000000 		.4byte	.LVL0
 2523 11cc 9F120000 		.4byte	0x129f
 2524 11d0 26       		.uleb128 0x26
 2525 11d1 14000000 		.4byte	.LVL1
 2526 11d5 AA120000 		.4byte	0x12aa
 2527 11d9 27       		.uleb128 0x27
 2528 11da 2C000000 		.4byte	.LVL3
 2529 11de B5120000 		.4byte	0x12b5
 2530 11e2 EE110000 		.4byte	0x11ee
 2531 11e6 28       		.uleb128 0x28
 2532 11e7 01       		.uleb128 0x1
 2533 11e8 50       		.byte	0x50
 2534 11e9 03       		.uleb128 0x3
 2535 11ea 0A       		.byte	0xa
 2536 11eb E803     		.2byte	0x3e8
 2537 11ed 00       		.byte	0
 2538 11ee 27       		.uleb128 0x27
 2539 11ef 34000000 		.4byte	.LVL4
 2540 11f3 C1120000 		.4byte	0x12c1
 2541 11f7 02120000 		.4byte	0x1202
 2542 11fb 28       		.uleb128 0x28
 2543 11fc 01       		.uleb128 0x1
 2544 11fd 50       		.byte	0x50
 2545 11fe 02       		.uleb128 0x2
 2546 11ff 76       		.byte	0x76
 2547 1200 00       		.sleb128 0
 2548 1201 00       		.byte	0
 2549 1202 27       		.uleb128 0x27
 2550 1203 46000000 		.4byte	.LVL5
 2551 1207 B5120000 		.4byte	0x12b5
 2552 120b 17120000 		.4byte	0x1217
 2553 120f 28       		.uleb128 0x28
 2554 1210 01       		.uleb128 0x1
 2555 1211 50       		.byte	0x50
 2556 1212 03       		.uleb128 0x3
 2557 1213 0A       		.byte	0xa
 2558 1214 E803     		.2byte	0x3e8
 2559 1216 00       		.byte	0
 2560 1217 27       		.uleb128 0x27
 2561 1218 50000000 		.4byte	.LVL6
 2562 121c CD120000 		.4byte	0x12cd
 2563 1220 3A120000 		.4byte	0x123a
 2564 1224 28       		.uleb128 0x28
 2565 1225 01       		.uleb128 0x1
ARM GAS  /tmp/ccNaYbnh.s 			page 46


 2566 1226 50       		.byte	0x50
 2567 1227 05       		.uleb128 0x5
 2568 1228 0C       		.byte	0xc
 2569 1229 00000240 		.4byte	0x40020000
 2570 122d 28       		.uleb128 0x28
 2571 122e 01       		.uleb128 0x1
 2572 122f 51       		.byte	0x51
 2573 1230 02       		.uleb128 0x2
 2574 1231 08       		.byte	0x8
 2575 1232 FE       		.byte	0xfe
 2576 1233 28       		.uleb128 0x28
 2577 1234 01       		.uleb128 0x1
 2578 1235 52       		.byte	0x52
 2579 1236 02       		.uleb128 0x2
 2580 1237 75       		.byte	0x75
 2581 1238 00       		.sleb128 0
 2582 1239 00       		.byte	0
 2583 123a 26       		.uleb128 0x26
 2584 123b A0000000 		.4byte	.LVL10
 2585 123f D9120000 		.4byte	0x12d9
 2586 1243 26       		.uleb128 0x26
 2587 1244 C6000000 		.4byte	.LVL14
 2588 1248 D9120000 		.4byte	0x12d9
 2589 124c 26       		.uleb128 0x26
 2590 124d E8000000 		.4byte	.LVL17
 2591 1251 E4120000 		.4byte	0x12e4
 2592 1255 29       		.uleb128 0x29
 2593 1256 F2000000 		.4byte	.LVL19
 2594 125a B5120000 		.4byte	0x12b5
 2595 125e 28       		.uleb128 0x28
 2596 125f 01       		.uleb128 0x1
 2597 1260 50       		.byte	0x50
 2598 1261 02       		.uleb128 0x2
 2599 1262 08       		.byte	0x8
 2600 1263 32       		.byte	0x32
 2601 1264 00       		.byte	0
 2602 1265 00       		.byte	0
 2603 1266 2A       		.uleb128 0x2a
 2604 1267 AE060000 		.4byte	.LASF258
 2605 126b 10       		.byte	0x10
 2606 126c 9806     		.2byte	0x698
 2607 126e E0040000 		.4byte	0x4e0
 2608 1272 2A       		.uleb128 0x2a
 2609 1273 030A0000 		.4byte	.LASF259
 2610 1277 0D       		.byte	0xd
 2611 1278 0402     		.2byte	0x204
 2612 127a BD050000 		.4byte	0x5bd
 2613 127e 2B       		.uleb128 0x2b
 2614 127f A2040000 		.4byte	.LASF260
 2615 1283 0F       		.byte	0xf
 2616 1284 C6       		.byte	0xc6
 2617 1285 D5000000 		.4byte	0xd5
 2618 1289 2B       		.uleb128 0x2b
 2619 128a D4010000 		.4byte	.LASF261
 2620 128e 0F       		.byte	0xf
 2621 128f C8       		.byte	0xc8
 2622 1290 94110000 		.4byte	0x1194
ARM GAS  /tmp/ccNaYbnh.s 			page 47


 2623 1294 2B       		.uleb128 0x2b
 2624 1295 69080000 		.4byte	.LASF262
 2625 1299 11       		.byte	0x11
 2626 129a 1C       		.byte	0x1c
 2627 129b 66100000 		.4byte	0x1066
 2628 129f 2C       		.uleb128 0x2c
 2629 12a0 DB040000 		.4byte	.LASF263
 2630 12a4 DB040000 		.4byte	.LASF263
 2631 12a8 12       		.byte	0x12
 2632 12a9 D0       		.byte	0xd0
 2633 12aa 2C       		.uleb128 0x2c
 2634 12ab 3A0A0000 		.4byte	.LASF264
 2635 12af 3A0A0000 		.4byte	.LASF264
 2636 12b3 13       		.byte	0x13
 2637 12b4 F6       		.byte	0xf6
 2638 12b5 2D       		.uleb128 0x2d
 2639 12b6 A0030000 		.4byte	.LASF265
 2640 12ba A0030000 		.4byte	.LASF265
 2641 12be 07       		.byte	0x7
 2642 12bf 7501     		.2byte	0x175
 2643 12c1 2D       		.uleb128 0x2d
 2644 12c2 F0080000 		.4byte	.LASF266
 2645 12c6 F0080000 		.4byte	.LASF266
 2646 12ca 0C       		.byte	0xc
 2647 12cb 2B02     		.2byte	0x22b
 2648 12cd 2D       		.uleb128 0x2d
 2649 12ce BA000000 		.4byte	.LASF267
 2650 12d2 BA000000 		.4byte	.LASF267
 2651 12d6 0B       		.byte	0xb
 2652 12d7 C201     		.2byte	0x1c2
 2653 12d9 2E       		.uleb128 0x2e
 2654 12da 73696E00 		.ascii	"sin\000"
 2655 12de 73696E00 		.ascii	"sin\000"
 2656 12e2 14       		.byte	0x14
 2657 12e3 6F       		.byte	0x6f
 2658 12e4 2C       		.uleb128 0x2c
 2659 12e5 A1060000 		.4byte	.LASF268
 2660 12e9 A1060000 		.4byte	.LASF268
 2661 12ed 0F       		.byte	0xf
 2662 12ee D1       		.byte	0xd1
 2663 12ef 00       		.byte	0
 2664              		.section	.debug_abbrev,"",%progbits
 2665              	.Ldebug_abbrev0:
 2666 0000 01       		.uleb128 0x1
 2667 0001 11       		.uleb128 0x11
 2668 0002 01       		.byte	0x1
 2669 0003 25       		.uleb128 0x25
 2670 0004 0E       		.uleb128 0xe
 2671 0005 13       		.uleb128 0x13
 2672 0006 0B       		.uleb128 0xb
 2673 0007 03       		.uleb128 0x3
 2674 0008 0E       		.uleb128 0xe
 2675 0009 1B       		.uleb128 0x1b
 2676 000a 0E       		.uleb128 0xe
 2677 000b 55       		.uleb128 0x55
 2678 000c 17       		.uleb128 0x17
 2679 000d 11       		.uleb128 0x11
ARM GAS  /tmp/ccNaYbnh.s 			page 48


 2680 000e 01       		.uleb128 0x1
 2681 000f 10       		.uleb128 0x10
 2682 0010 17       		.uleb128 0x17
 2683 0011 00       		.byte	0
 2684 0012 00       		.byte	0
 2685 0013 02       		.uleb128 0x2
 2686 0014 24       		.uleb128 0x24
 2687 0015 00       		.byte	0
 2688 0016 0B       		.uleb128 0xb
 2689 0017 0B       		.uleb128 0xb
 2690 0018 3E       		.uleb128 0x3e
 2691 0019 0B       		.uleb128 0xb
 2692 001a 03       		.uleb128 0x3
 2693 001b 08       		.uleb128 0x8
 2694 001c 00       		.byte	0
 2695 001d 00       		.byte	0
 2696 001e 03       		.uleb128 0x3
 2697 001f 16       		.uleb128 0x16
 2698 0020 00       		.byte	0
 2699 0021 03       		.uleb128 0x3
 2700 0022 0E       		.uleb128 0xe
 2701 0023 3A       		.uleb128 0x3a
 2702 0024 0B       		.uleb128 0xb
 2703 0025 3B       		.uleb128 0x3b
 2704 0026 0B       		.uleb128 0xb
 2705 0027 49       		.uleb128 0x49
 2706 0028 13       		.uleb128 0x13
 2707 0029 00       		.byte	0
 2708 002a 00       		.byte	0
 2709 002b 04       		.uleb128 0x4
 2710 002c 24       		.uleb128 0x24
 2711 002d 00       		.byte	0
 2712 002e 0B       		.uleb128 0xb
 2713 002f 0B       		.uleb128 0xb
 2714 0030 3E       		.uleb128 0x3e
 2715 0031 0B       		.uleb128 0xb
 2716 0032 03       		.uleb128 0x3
 2717 0033 0E       		.uleb128 0xe
 2718 0034 00       		.byte	0
 2719 0035 00       		.byte	0
 2720 0036 05       		.uleb128 0x5
 2721 0037 13       		.uleb128 0x13
 2722 0038 01       		.byte	0x1
 2723 0039 03       		.uleb128 0x3
 2724 003a 0E       		.uleb128 0xe
 2725 003b 0B       		.uleb128 0xb
 2726 003c 0B       		.uleb128 0xb
 2727 003d 3A       		.uleb128 0x3a
 2728 003e 0B       		.uleb128 0xb
 2729 003f 3B       		.uleb128 0x3b
 2730 0040 0B       		.uleb128 0xb
 2731 0041 01       		.uleb128 0x1
 2732 0042 13       		.uleb128 0x13
 2733 0043 00       		.byte	0
 2734 0044 00       		.byte	0
 2735 0045 06       		.uleb128 0x6
 2736 0046 0D       		.uleb128 0xd
ARM GAS  /tmp/ccNaYbnh.s 			page 49


 2737 0047 00       		.byte	0
 2738 0048 03       		.uleb128 0x3
 2739 0049 0E       		.uleb128 0xe
 2740 004a 3A       		.uleb128 0x3a
 2741 004b 0B       		.uleb128 0xb
 2742 004c 3B       		.uleb128 0x3b
 2743 004d 0B       		.uleb128 0xb
 2744 004e 49       		.uleb128 0x49
 2745 004f 13       		.uleb128 0x13
 2746 0050 38       		.uleb128 0x38
 2747 0051 0B       		.uleb128 0xb
 2748 0052 00       		.byte	0
 2749 0053 00       		.byte	0
 2750 0054 07       		.uleb128 0x7
 2751 0055 0D       		.uleb128 0xd
 2752 0056 00       		.byte	0
 2753 0057 03       		.uleb128 0x3
 2754 0058 08       		.uleb128 0x8
 2755 0059 3A       		.uleb128 0x3a
 2756 005a 0B       		.uleb128 0xb
 2757 005b 3B       		.uleb128 0x3b
 2758 005c 0B       		.uleb128 0xb
 2759 005d 49       		.uleb128 0x49
 2760 005e 13       		.uleb128 0x13
 2761 005f 38       		.uleb128 0x38
 2762 0060 0B       		.uleb128 0xb
 2763 0061 00       		.byte	0
 2764 0062 00       		.byte	0
 2765 0063 08       		.uleb128 0x8
 2766 0064 13       		.uleb128 0x13
 2767 0065 01       		.byte	0x1
 2768 0066 0B       		.uleb128 0xb
 2769 0067 0B       		.uleb128 0xb
 2770 0068 3A       		.uleb128 0x3a
 2771 0069 0B       		.uleb128 0xb
 2772 006a 3B       		.uleb128 0x3b
 2773 006b 0B       		.uleb128 0xb
 2774 006c 01       		.uleb128 0x1
 2775 006d 13       		.uleb128 0x13
 2776 006e 00       		.byte	0
 2777 006f 00       		.byte	0
 2778 0070 09       		.uleb128 0x9
 2779 0071 0F       		.uleb128 0xf
 2780 0072 00       		.byte	0
 2781 0073 0B       		.uleb128 0xb
 2782 0074 0B       		.uleb128 0xb
 2783 0075 49       		.uleb128 0x49
 2784 0076 13       		.uleb128 0x13
 2785 0077 00       		.byte	0
 2786 0078 00       		.byte	0
 2787 0079 0A       		.uleb128 0xa
 2788 007a 0F       		.uleb128 0xf
 2789 007b 00       		.byte	0
 2790 007c 0B       		.uleb128 0xb
 2791 007d 0B       		.uleb128 0xb
 2792 007e 00       		.byte	0
 2793 007f 00       		.byte	0
ARM GAS  /tmp/ccNaYbnh.s 			page 50


 2794 0080 0B       		.uleb128 0xb
 2795 0081 13       		.uleb128 0x13
 2796 0082 01       		.byte	0x1
 2797 0083 03       		.uleb128 0x3
 2798 0084 0E       		.uleb128 0xe
 2799 0085 0B       		.uleb128 0xb
 2800 0086 0B       		.uleb128 0xb
 2801 0087 3A       		.uleb128 0x3a
 2802 0088 0B       		.uleb128 0xb
 2803 0089 3B       		.uleb128 0x3b
 2804 008a 05       		.uleb128 0x5
 2805 008b 01       		.uleb128 0x1
 2806 008c 13       		.uleb128 0x13
 2807 008d 00       		.byte	0
 2808 008e 00       		.byte	0
 2809 008f 0C       		.uleb128 0xc
 2810 0090 0D       		.uleb128 0xd
 2811 0091 00       		.byte	0
 2812 0092 03       		.uleb128 0x3
 2813 0093 08       		.uleb128 0x8
 2814 0094 3A       		.uleb128 0x3a
 2815 0095 0B       		.uleb128 0xb
 2816 0096 3B       		.uleb128 0x3b
 2817 0097 05       		.uleb128 0x5
 2818 0098 49       		.uleb128 0x49
 2819 0099 13       		.uleb128 0x13
 2820 009a 38       		.uleb128 0x38
 2821 009b 0B       		.uleb128 0xb
 2822 009c 00       		.byte	0
 2823 009d 00       		.byte	0
 2824 009e 0D       		.uleb128 0xd
 2825 009f 35       		.uleb128 0x35
 2826 00a0 00       		.byte	0
 2827 00a1 49       		.uleb128 0x49
 2828 00a2 13       		.uleb128 0x13
 2829 00a3 00       		.byte	0
 2830 00a4 00       		.byte	0
 2831 00a5 0E       		.uleb128 0xe
 2832 00a6 17       		.uleb128 0x17
 2833 00a7 01       		.byte	0x1
 2834 00a8 0B       		.uleb128 0xb
 2835 00a9 0B       		.uleb128 0xb
 2836 00aa 3A       		.uleb128 0x3a
 2837 00ab 0B       		.uleb128 0xb
 2838 00ac 3B       		.uleb128 0x3b
 2839 00ad 0B       		.uleb128 0xb
 2840 00ae 01       		.uleb128 0x1
 2841 00af 13       		.uleb128 0x13
 2842 00b0 00       		.byte	0
 2843 00b1 00       		.byte	0
 2844 00b2 0F       		.uleb128 0xf
 2845 00b3 0D       		.uleb128 0xd
 2846 00b4 00       		.byte	0
 2847 00b5 03       		.uleb128 0x3
 2848 00b6 0E       		.uleb128 0xe
 2849 00b7 3A       		.uleb128 0x3a
 2850 00b8 0B       		.uleb128 0xb
ARM GAS  /tmp/ccNaYbnh.s 			page 51


 2851 00b9 3B       		.uleb128 0x3b
 2852 00ba 0B       		.uleb128 0xb
 2853 00bb 49       		.uleb128 0x49
 2854 00bc 13       		.uleb128 0x13
 2855 00bd 00       		.byte	0
 2856 00be 00       		.byte	0
 2857 00bf 10       		.uleb128 0x10
 2858 00c0 26       		.uleb128 0x26
 2859 00c1 00       		.byte	0
 2860 00c2 49       		.uleb128 0x49
 2861 00c3 13       		.uleb128 0x13
 2862 00c4 00       		.byte	0
 2863 00c5 00       		.byte	0
 2864 00c6 11       		.uleb128 0x11
 2865 00c7 15       		.uleb128 0x15
 2866 00c8 01       		.byte	0x1
 2867 00c9 27       		.uleb128 0x27
 2868 00ca 19       		.uleb128 0x19
 2869 00cb 01       		.uleb128 0x1
 2870 00cc 13       		.uleb128 0x13
 2871 00cd 00       		.byte	0
 2872 00ce 00       		.byte	0
 2873 00cf 12       		.uleb128 0x12
 2874 00d0 05       		.uleb128 0x5
 2875 00d1 00       		.byte	0
 2876 00d2 49       		.uleb128 0x49
 2877 00d3 13       		.uleb128 0x13
 2878 00d4 00       		.byte	0
 2879 00d5 00       		.byte	0
 2880 00d6 13       		.uleb128 0x13
 2881 00d7 0D       		.uleb128 0xd
 2882 00d8 00       		.byte	0
 2883 00d9 03       		.uleb128 0x3
 2884 00da 08       		.uleb128 0x8
 2885 00db 3A       		.uleb128 0x3a
 2886 00dc 0B       		.uleb128 0xb
 2887 00dd 3B       		.uleb128 0x3b
 2888 00de 0B       		.uleb128 0xb
 2889 00df 49       		.uleb128 0x49
 2890 00e0 13       		.uleb128 0x13
 2891 00e1 00       		.byte	0
 2892 00e2 00       		.byte	0
 2893 00e3 14       		.uleb128 0x14
 2894 00e4 13       		.uleb128 0x13
 2895 00e5 01       		.byte	0x1
 2896 00e6 03       		.uleb128 0x3
 2897 00e7 0E       		.uleb128 0xe
 2898 00e8 0B       		.uleb128 0xb
 2899 00e9 05       		.uleb128 0x5
 2900 00ea 3A       		.uleb128 0x3a
 2901 00eb 0B       		.uleb128 0xb
 2902 00ec 3B       		.uleb128 0x3b
 2903 00ed 05       		.uleb128 0x5
 2904 00ee 01       		.uleb128 0x1
 2905 00ef 13       		.uleb128 0x13
 2906 00f0 00       		.byte	0
 2907 00f1 00       		.byte	0
ARM GAS  /tmp/ccNaYbnh.s 			page 52


 2908 00f2 15       		.uleb128 0x15
 2909 00f3 0D       		.uleb128 0xd
 2910 00f4 00       		.byte	0
 2911 00f5 03       		.uleb128 0x3
 2912 00f6 0E       		.uleb128 0xe
 2913 00f7 3A       		.uleb128 0x3a
 2914 00f8 0B       		.uleb128 0xb
 2915 00f9 3B       		.uleb128 0x3b
 2916 00fa 05       		.uleb128 0x5
 2917 00fb 49       		.uleb128 0x49
 2918 00fc 13       		.uleb128 0x13
 2919 00fd 38       		.uleb128 0x38
 2920 00fe 0B       		.uleb128 0xb
 2921 00ff 00       		.byte	0
 2922 0100 00       		.byte	0
 2923 0101 16       		.uleb128 0x16
 2924 0102 04       		.uleb128 0x4
 2925 0103 01       		.byte	0x1
 2926 0104 0B       		.uleb128 0xb
 2927 0105 0B       		.uleb128 0xb
 2928 0106 49       		.uleb128 0x49
 2929 0107 13       		.uleb128 0x13
 2930 0108 3A       		.uleb128 0x3a
 2931 0109 0B       		.uleb128 0xb
 2932 010a 3B       		.uleb128 0x3b
 2933 010b 0B       		.uleb128 0xb
 2934 010c 01       		.uleb128 0x1
 2935 010d 13       		.uleb128 0x13
 2936 010e 00       		.byte	0
 2937 010f 00       		.byte	0
 2938 0110 17       		.uleb128 0x17
 2939 0111 28       		.uleb128 0x28
 2940 0112 00       		.byte	0
 2941 0113 03       		.uleb128 0x3
 2942 0114 0E       		.uleb128 0xe
 2943 0115 1C       		.uleb128 0x1c
 2944 0116 0B       		.uleb128 0xb
 2945 0117 00       		.byte	0
 2946 0118 00       		.byte	0
 2947 0119 18       		.uleb128 0x18
 2948 011a 04       		.uleb128 0x4
 2949 011b 01       		.byte	0x1
 2950 011c 0B       		.uleb128 0xb
 2951 011d 0B       		.uleb128 0xb
 2952 011e 49       		.uleb128 0x49
 2953 011f 13       		.uleb128 0x13
 2954 0120 3A       		.uleb128 0x3a
 2955 0121 0B       		.uleb128 0xb
 2956 0122 3B       		.uleb128 0x3b
 2957 0123 05       		.uleb128 0x5
 2958 0124 01       		.uleb128 0x1
 2959 0125 13       		.uleb128 0x13
 2960 0126 00       		.byte	0
 2961 0127 00       		.byte	0
 2962 0128 19       		.uleb128 0x19
 2963 0129 16       		.uleb128 0x16
 2964 012a 00       		.byte	0
ARM GAS  /tmp/ccNaYbnh.s 			page 53


 2965 012b 03       		.uleb128 0x3
 2966 012c 0E       		.uleb128 0xe
 2967 012d 3A       		.uleb128 0x3a
 2968 012e 0B       		.uleb128 0xb
 2969 012f 3B       		.uleb128 0x3b
 2970 0130 05       		.uleb128 0x5
 2971 0131 49       		.uleb128 0x49
 2972 0132 13       		.uleb128 0x13
 2973 0133 00       		.byte	0
 2974 0134 00       		.byte	0
 2975 0135 1A       		.uleb128 0x1a
 2976 0136 13       		.uleb128 0x13
 2977 0137 01       		.byte	0x1
 2978 0138 0B       		.uleb128 0xb
 2979 0139 0B       		.uleb128 0xb
 2980 013a 3A       		.uleb128 0x3a
 2981 013b 0B       		.uleb128 0xb
 2982 013c 3B       		.uleb128 0x3b
 2983 013d 05       		.uleb128 0x5
 2984 013e 01       		.uleb128 0x1
 2985 013f 13       		.uleb128 0x13
 2986 0140 00       		.byte	0
 2987 0141 00       		.byte	0
 2988 0142 1B       		.uleb128 0x1b
 2989 0143 15       		.uleb128 0x15
 2990 0144 01       		.byte	0x1
 2991 0145 27       		.uleb128 0x27
 2992 0146 19       		.uleb128 0x19
 2993 0147 49       		.uleb128 0x49
 2994 0148 13       		.uleb128 0x13
 2995 0149 01       		.uleb128 0x1
 2996 014a 13       		.uleb128 0x13
 2997 014b 00       		.byte	0
 2998 014c 00       		.byte	0
 2999 014d 1C       		.uleb128 0x1c
 3000 014e 13       		.uleb128 0x13
 3001 014f 01       		.byte	0x1
 3002 0150 0B       		.uleb128 0xb
 3003 0151 06       		.uleb128 0x6
 3004 0152 3A       		.uleb128 0x3a
 3005 0153 0B       		.uleb128 0xb
 3006 0154 3B       		.uleb128 0x3b
 3007 0155 0B       		.uleb128 0xb
 3008 0156 01       		.uleb128 0x1
 3009 0157 13       		.uleb128 0x13
 3010 0158 00       		.byte	0
 3011 0159 00       		.byte	0
 3012 015a 1D       		.uleb128 0x1d
 3013 015b 0D       		.uleb128 0xd
 3014 015c 00       		.byte	0
 3015 015d 03       		.uleb128 0x3
 3016 015e 0E       		.uleb128 0xe
 3017 015f 3A       		.uleb128 0x3a
 3018 0160 0B       		.uleb128 0xb
 3019 0161 3B       		.uleb128 0x3b
 3020 0162 0B       		.uleb128 0xb
 3021 0163 49       		.uleb128 0x49
ARM GAS  /tmp/ccNaYbnh.s 			page 54


 3022 0164 13       		.uleb128 0x13
 3023 0165 38       		.uleb128 0x38
 3024 0166 05       		.uleb128 0x5
 3025 0167 00       		.byte	0
 3026 0168 00       		.byte	0
 3027 0169 1E       		.uleb128 0x1e
 3028 016a 0D       		.uleb128 0xd
 3029 016b 00       		.byte	0
 3030 016c 03       		.uleb128 0x3
 3031 016d 08       		.uleb128 0x8
 3032 016e 3A       		.uleb128 0x3a
 3033 016f 0B       		.uleb128 0xb
 3034 0170 3B       		.uleb128 0x3b
 3035 0171 0B       		.uleb128 0xb
 3036 0172 49       		.uleb128 0x49
 3037 0173 13       		.uleb128 0x13
 3038 0174 38       		.uleb128 0x38
 3039 0175 05       		.uleb128 0x5
 3040 0176 00       		.byte	0
 3041 0177 00       		.byte	0
 3042 0178 1F       		.uleb128 0x1f
 3043 0179 01       		.uleb128 0x1
 3044 017a 01       		.byte	0x1
 3045 017b 49       		.uleb128 0x49
 3046 017c 13       		.uleb128 0x13
 3047 017d 01       		.uleb128 0x1
 3048 017e 13       		.uleb128 0x13
 3049 017f 00       		.byte	0
 3050 0180 00       		.byte	0
 3051 0181 20       		.uleb128 0x20
 3052 0182 21       		.uleb128 0x21
 3053 0183 00       		.byte	0
 3054 0184 49       		.uleb128 0x49
 3055 0185 13       		.uleb128 0x13
 3056 0186 2F       		.uleb128 0x2f
 3057 0187 0B       		.uleb128 0xb
 3058 0188 00       		.byte	0
 3059 0189 00       		.byte	0
 3060 018a 21       		.uleb128 0x21
 3061 018b 21       		.uleb128 0x21
 3062 018c 00       		.byte	0
 3063 018d 49       		.uleb128 0x49
 3064 018e 13       		.uleb128 0x13
 3065 018f 2F       		.uleb128 0x2f
 3066 0190 05       		.uleb128 0x5
 3067 0191 00       		.byte	0
 3068 0192 00       		.byte	0
 3069 0193 22       		.uleb128 0x22
 3070 0194 17       		.uleb128 0x17
 3071 0195 01       		.byte	0x1
 3072 0196 0B       		.uleb128 0xb
 3073 0197 0B       		.uleb128 0xb
 3074 0198 3A       		.uleb128 0x3a
 3075 0199 0B       		.uleb128 0xb
 3076 019a 3B       		.uleb128 0x3b
 3077 019b 05       		.uleb128 0x5
 3078 019c 01       		.uleb128 0x1
ARM GAS  /tmp/ccNaYbnh.s 			page 55


 3079 019d 13       		.uleb128 0x13
 3080 019e 00       		.byte	0
 3081 019f 00       		.byte	0
 3082 01a0 23       		.uleb128 0x23
 3083 01a1 0D       		.uleb128 0xd
 3084 01a2 00       		.byte	0
 3085 01a3 03       		.uleb128 0x3
 3086 01a4 0E       		.uleb128 0xe
 3087 01a5 3A       		.uleb128 0x3a
 3088 01a6 0B       		.uleb128 0xb
 3089 01a7 3B       		.uleb128 0x3b
 3090 01a8 05       		.uleb128 0x5
 3091 01a9 49       		.uleb128 0x49
 3092 01aa 13       		.uleb128 0x13
 3093 01ab 00       		.byte	0
 3094 01ac 00       		.byte	0
 3095 01ad 24       		.uleb128 0x24
 3096 01ae 2E       		.uleb128 0x2e
 3097 01af 01       		.byte	0x1
 3098 01b0 3F       		.uleb128 0x3f
 3099 01b1 19       		.uleb128 0x19
 3100 01b2 03       		.uleb128 0x3
 3101 01b3 0E       		.uleb128 0xe
 3102 01b4 3A       		.uleb128 0x3a
 3103 01b5 0B       		.uleb128 0xb
 3104 01b6 3B       		.uleb128 0x3b
 3105 01b7 0B       		.uleb128 0xb
 3106 01b8 27       		.uleb128 0x27
 3107 01b9 19       		.uleb128 0x19
 3108 01ba 49       		.uleb128 0x49
 3109 01bb 13       		.uleb128 0x13
 3110 01bc 8701     		.uleb128 0x87
 3111 01be 19       		.uleb128 0x19
 3112 01bf 11       		.uleb128 0x11
 3113 01c0 01       		.uleb128 0x1
 3114 01c1 12       		.uleb128 0x12
 3115 01c2 06       		.uleb128 0x6
 3116 01c3 40       		.uleb128 0x40
 3117 01c4 18       		.uleb128 0x18
 3118 01c5 9642     		.uleb128 0x2116
 3119 01c7 19       		.uleb128 0x19
 3120 01c8 01       		.uleb128 0x1
 3121 01c9 13       		.uleb128 0x13
 3122 01ca 00       		.byte	0
 3123 01cb 00       		.byte	0
 3124 01cc 25       		.uleb128 0x25
 3125 01cd 34       		.uleb128 0x34
 3126 01ce 00       		.byte	0
 3127 01cf 03       		.uleb128 0x3
 3128 01d0 0E       		.uleb128 0xe
 3129 01d1 3A       		.uleb128 0x3a
 3130 01d2 0B       		.uleb128 0xb
 3131 01d3 3B       		.uleb128 0x3b
 3132 01d4 0B       		.uleb128 0xb
 3133 01d5 49       		.uleb128 0x49
 3134 01d6 13       		.uleb128 0x13
 3135 01d7 02       		.uleb128 0x2
ARM GAS  /tmp/ccNaYbnh.s 			page 56


 3136 01d8 17       		.uleb128 0x17
 3137 01d9 00       		.byte	0
 3138 01da 00       		.byte	0
 3139 01db 26       		.uleb128 0x26
 3140 01dc 898201   		.uleb128 0x4109
 3141 01df 00       		.byte	0
 3142 01e0 11       		.uleb128 0x11
 3143 01e1 01       		.uleb128 0x1
 3144 01e2 31       		.uleb128 0x31
 3145 01e3 13       		.uleb128 0x13
 3146 01e4 00       		.byte	0
 3147 01e5 00       		.byte	0
 3148 01e6 27       		.uleb128 0x27
 3149 01e7 898201   		.uleb128 0x4109
 3150 01ea 01       		.byte	0x1
 3151 01eb 11       		.uleb128 0x11
 3152 01ec 01       		.uleb128 0x1
 3153 01ed 31       		.uleb128 0x31
 3154 01ee 13       		.uleb128 0x13
 3155 01ef 01       		.uleb128 0x1
 3156 01f0 13       		.uleb128 0x13
 3157 01f1 00       		.byte	0
 3158 01f2 00       		.byte	0
 3159 01f3 28       		.uleb128 0x28
 3160 01f4 8A8201   		.uleb128 0x410a
 3161 01f7 00       		.byte	0
 3162 01f8 02       		.uleb128 0x2
 3163 01f9 18       		.uleb128 0x18
 3164 01fa 9142     		.uleb128 0x2111
 3165 01fc 18       		.uleb128 0x18
 3166 01fd 00       		.byte	0
 3167 01fe 00       		.byte	0
 3168 01ff 29       		.uleb128 0x29
 3169 0200 898201   		.uleb128 0x4109
 3170 0203 01       		.byte	0x1
 3171 0204 11       		.uleb128 0x11
 3172 0205 01       		.uleb128 0x1
 3173 0206 31       		.uleb128 0x31
 3174 0207 13       		.uleb128 0x13
 3175 0208 00       		.byte	0
 3176 0209 00       		.byte	0
 3177 020a 2A       		.uleb128 0x2a
 3178 020b 34       		.uleb128 0x34
 3179 020c 00       		.byte	0
 3180 020d 03       		.uleb128 0x3
 3181 020e 0E       		.uleb128 0xe
 3182 020f 3A       		.uleb128 0x3a
 3183 0210 0B       		.uleb128 0xb
 3184 0211 3B       		.uleb128 0x3b
 3185 0212 05       		.uleb128 0x5
 3186 0213 49       		.uleb128 0x49
 3187 0214 13       		.uleb128 0x13
 3188 0215 3F       		.uleb128 0x3f
 3189 0216 19       		.uleb128 0x19
 3190 0217 3C       		.uleb128 0x3c
 3191 0218 19       		.uleb128 0x19
 3192 0219 00       		.byte	0
ARM GAS  /tmp/ccNaYbnh.s 			page 57


 3193 021a 00       		.byte	0
 3194 021b 2B       		.uleb128 0x2b
 3195 021c 34       		.uleb128 0x34
 3196 021d 00       		.byte	0
 3197 021e 03       		.uleb128 0x3
 3198 021f 0E       		.uleb128 0xe
 3199 0220 3A       		.uleb128 0x3a
 3200 0221 0B       		.uleb128 0xb
 3201 0222 3B       		.uleb128 0x3b
 3202 0223 0B       		.uleb128 0xb
 3203 0224 49       		.uleb128 0x49
 3204 0225 13       		.uleb128 0x13
 3205 0226 3F       		.uleb128 0x3f
 3206 0227 19       		.uleb128 0x19
 3207 0228 3C       		.uleb128 0x3c
 3208 0229 19       		.uleb128 0x19
 3209 022a 00       		.byte	0
 3210 022b 00       		.byte	0
 3211 022c 2C       		.uleb128 0x2c
 3212 022d 2E       		.uleb128 0x2e
 3213 022e 00       		.byte	0
 3214 022f 3F       		.uleb128 0x3f
 3215 0230 19       		.uleb128 0x19
 3216 0231 3C       		.uleb128 0x3c
 3217 0232 19       		.uleb128 0x19
 3218 0233 6E       		.uleb128 0x6e
 3219 0234 0E       		.uleb128 0xe
 3220 0235 03       		.uleb128 0x3
 3221 0236 0E       		.uleb128 0xe
 3222 0237 3A       		.uleb128 0x3a
 3223 0238 0B       		.uleb128 0xb
 3224 0239 3B       		.uleb128 0x3b
 3225 023a 0B       		.uleb128 0xb
 3226 023b 00       		.byte	0
 3227 023c 00       		.byte	0
 3228 023d 2D       		.uleb128 0x2d
 3229 023e 2E       		.uleb128 0x2e
 3230 023f 00       		.byte	0
 3231 0240 3F       		.uleb128 0x3f
 3232 0241 19       		.uleb128 0x19
 3233 0242 3C       		.uleb128 0x3c
 3234 0243 19       		.uleb128 0x19
 3235 0244 6E       		.uleb128 0x6e
 3236 0245 0E       		.uleb128 0xe
 3237 0246 03       		.uleb128 0x3
 3238 0247 0E       		.uleb128 0xe
 3239 0248 3A       		.uleb128 0x3a
 3240 0249 0B       		.uleb128 0xb
 3241 024a 3B       		.uleb128 0x3b
 3242 024b 05       		.uleb128 0x5
 3243 024c 00       		.byte	0
 3244 024d 00       		.byte	0
 3245 024e 2E       		.uleb128 0x2e
 3246 024f 2E       		.uleb128 0x2e
 3247 0250 00       		.byte	0
 3248 0251 3F       		.uleb128 0x3f
 3249 0252 19       		.uleb128 0x19
ARM GAS  /tmp/ccNaYbnh.s 			page 58


 3250 0253 3C       		.uleb128 0x3c
 3251 0254 19       		.uleb128 0x19
 3252 0255 6E       		.uleb128 0x6e
 3253 0256 08       		.uleb128 0x8
 3254 0257 03       		.uleb128 0x3
 3255 0258 08       		.uleb128 0x8
 3256 0259 3A       		.uleb128 0x3a
 3257 025a 0B       		.uleb128 0xb
 3258 025b 3B       		.uleb128 0x3b
 3259 025c 0B       		.uleb128 0xb
 3260 025d 00       		.byte	0
 3261 025e 00       		.byte	0
 3262 025f 00       		.byte	0
 3263              		.section	.debug_loc,"",%progbits
 3264              	.Ldebug_loc0:
 3265              	.LLST0:
 3266 0000 28000000 		.4byte	.LVL2
 3267 0004 54000000 		.4byte	.LVL7
 3268 0008 0200     		.2byte	0x2
 3269 000a 30       		.byte	0x30
 3270 000b 9F       		.byte	0x9f
 3271 000c 54000000 		.4byte	.LVL7
 3272 0010 EA000000 		.4byte	.LVL18
 3273 0014 0100     		.2byte	0x1
 3274 0016 55       		.byte	0x55
 3275 0017 F2000000 		.4byte	.LVL19
 3276 001b C0010000 		.4byte	.LFE118
 3277 001f 0100     		.2byte	0x1
 3278 0021 55       		.byte	0x55
 3279 0022 00000000 		.4byte	0
 3280 0026 00000000 		.4byte	0
 3281              		.section	.debug_aranges,"",%progbits
 3282 0000 1C000000 		.4byte	0x1c
 3283 0004 0200     		.2byte	0x2
 3284 0006 00000000 		.4byte	.Ldebug_info0
 3285 000a 04       		.byte	0x4
 3286 000b 00       		.byte	0
 3287 000c 0000     		.2byte	0
 3288 000e 0000     		.2byte	0
 3289 0010 00000000 		.4byte	.LFB118
 3290 0014 C0010000 		.4byte	.LFE118-.LFB118
 3291 0018 00000000 		.4byte	0
 3292 001c 00000000 		.4byte	0
 3293              		.section	.debug_ranges,"",%progbits
 3294              	.Ldebug_ranges0:
 3295 0000 00000000 		.4byte	.LFB118
 3296 0004 C0010000 		.4byte	.LFE118
 3297 0008 00000000 		.4byte	0
 3298 000c 00000000 		.4byte	0
 3299              		.section	.debug_line,"",%progbits
 3300              	.Ldebug_line0:
 3301 0000 F5030000 		.section	.debug_str,"MS",%progbits,1
 3301      02002003 
 3301      00000201 
 3301      FB0E0D00 
 3301      01010101 
 3302              	.LASF18:
ARM GAS  /tmp/ccNaYbnh.s 			page 59


 3303 0000 696E7438 		.ascii	"int8_t\000"
 3303      5F7400
 3304              	.LASF226:
 3305 0007 71756575 		.ascii	"queue\000"
 3305      6500
 3306              	.LASF3:
 3307 000d 73697A65 		.ascii	"size_t\000"
 3307      5F7400
 3308              	.LASF60:
 3309 0014 73697A65 		.ascii	"sizetype\000"
 3309      74797065 
 3309      00
 3310              	.LASF34:
 3311 001d 73797374 		.ascii	"systime_t\000"
 3311      696D655F 
 3311      7400
 3312              	.LASF39:
 3313 0027 705F6374 		.ascii	"p_ctx\000"
 3313      7800
 3314              	.LASF31:
 3315 002d 74707269 		.ascii	"tprio_t\000"
 3315      6F5F7400 
 3316              	.LASF48:
 3317 0035 705F6D73 		.ascii	"p_msgqueue\000"
 3317      67717565 
 3317      756500
 3318              	.LASF219:
 3319 0040 72785F66 		.ascii	"rx_fifo_size\000"
 3319      69666F5F 
 3319      73697A65 
 3319      00
 3320              	.LASF22:
 3321 004d 696E7433 		.ascii	"int32_t\000"
 3321      325F7400 
 3322              	.LASF154:
 3323 0055 72657376 		.ascii	"resvd4\000"
 3323      643400
 3324              	.LASF145:
 3325 005c 72657376 		.ascii	"resvd8\000"
 3325      643800
 3326              	.LASF156:
 3327 0063 72657376 		.ascii	"resvdC\000"
 3327      644300
 3328              	.LASF122:
 3329 006a 5553425F 		.ascii	"USB_EP0_TX\000"
 3329      4550305F 
 3329      545800
 3330              	.LASF194:
 3331 0075 72657376 		.ascii	"resvd700\000"
 3331      64373030 
 3331      00
 3332              	.LASF271:
 3333 007e 2F686F6D 		.ascii	"/home/mark/repos/pc_gamecontroller\000"
 3333      652F6D61 
 3333      726B2F72 
 3333      65706F73 
 3333      2F70635F 
ARM GAS  /tmp/ccNaYbnh.s 			page 60


 3334              	.LASF94:
 3335 00a1 73746174 		.ascii	"state\000"
 3335      6500
 3336              	.LASF239:
 3337 00a7 65705F6D 		.ascii	"ep_mode\000"
 3337      6F646500 
 3338              	.LASF119:
 3339 00af 5553425F 		.ascii	"USB_ACTIVE\000"
 3339      41435449 
 3339      564500
 3340              	.LASF267:
 3341 00ba 5F70616C 		.ascii	"_pal_lld_setgroupmode\000"
 3341      5F6C6C64 
 3341      5F736574 
 3341      67726F75 
 3341      706D6F64 
 3342              	.LASF273:
 3343 00d0 636F756E 		.ascii	"count\000"
 3343      7400
 3344              	.LASF63:
 3345 00d6 6D5F6F77 		.ascii	"m_owner\000"
 3345      6E657200 
 3346              	.LASF66:
 3347 00de 65786974 		.ascii	"exitcode\000"
 3347      636F6465 
 3347      00
 3348              	.LASF128:
 3349 00e7 75736265 		.ascii	"usbep0state_t\000"
 3349      70307374 
 3349      6174655F 
 3349      7400
 3350              	.LASF6:
 3351 00f5 5F5F7569 		.ascii	"__uint8_t\000"
 3351      6E74385F 
 3351      7400
 3352              	.LASF74:
 3353 00ff 715F746F 		.ascii	"q_top\000"
 3353      7000
 3354              	.LASF68:
 3355 0105 65776D61 		.ascii	"ewmask\000"
 3355      736B00
 3356              	.LASF86:
 3357 010c 50555044 		.ascii	"PUPDR\000"
 3357      5200
 3358              	.LASF73:
 3359 0112 715F6275 		.ascii	"q_buffer\000"
 3359      66666572 
 3359      00
 3360              	.LASF130:
 3361 011b 5553425F 		.ascii	"USB_EVENT_ADDRESS\000"
 3361      4556454E 
 3361      545F4144 
 3361      44524553 
 3361      5300
 3362              	.LASF175:
 3363 012d 44494550 		.ascii	"DIEPTXF0\000"
 3363      54584630 
ARM GAS  /tmp/ccNaYbnh.s 			page 61


 3363      00
 3364              	.LASF77:
 3365 0136 715F6E6F 		.ascii	"q_notify\000"
 3365      74696679 
 3365      00
 3366              	.LASF40:
 3367 013f 705F6E65 		.ascii	"p_newer\000"
 3367      77657200 
 3368              	.LASF13:
 3369 0147 6C6F6E67 		.ascii	"long int\000"
 3369      20696E74 
 3369      00
 3370              	.LASF36:
 3371 0150 705F6E65 		.ascii	"p_next\000"
 3371      787400
 3372              	.LASF76:
 3373 0157 715F7264 		.ascii	"q_rdptr\000"
 3373      70747200 
 3374              	.LASF229:
 3375 015f 7478636E 		.ascii	"txcnt\000"
 3375      7400
 3376              	.LASF37:
 3377 0165 705F7072 		.ascii	"p_prev\000"
 3377      657600
 3378              	.LASF28:
 3379 016c 74737461 		.ascii	"tstate_t\000"
 3379      74655F74 
 3379      00
 3380              	.LASF272:
 3381 0175 6D61696E 		.ascii	"main\000"
 3381      00
 3382              	.LASF244:
 3383 017a 6F75745F 		.ascii	"out_maxsize\000"
 3383      6D617873 
 3383      697A6500 
 3384              	.LASF51:
 3385 0186 705F6D74 		.ascii	"p_mtxlist\000"
 3385      786C6973 
 3385      7400
 3386              	.LASF112:
 3387 0190 7468645F 		.ascii	"thd_wait\000"
 3387      77616974 
 3387      00
 3388              	.LASF223:
 3389 0199 74786275 		.ascii	"txbuf\000"
 3389      6600
 3390              	.LASF56:
 3391 019f 72656761 		.ascii	"regarm_t\000"
 3391      726D5F74 
 3391      00
 3392              	.LASF201:
 3393 01a8 4441494E 		.ascii	"DAINT\000"
 3393      5400
 3394              	.LASF121:
 3395 01ae 5553425F 		.ascii	"USB_EP0_WAITING_SETUP\000"
 3395      4550305F 
 3395      57414954 
ARM GAS  /tmp/ccNaYbnh.s 			page 62


 3395      494E475F 
 3395      53455455 
 3396              	.LASF200:
 3397 01c4 444F4550 		.ascii	"DOEPMSK\000"
 3397      4D534B00 
 3398              	.LASF161:
 3399 01cc 444F4550 		.ascii	"DOEPCTL\000"
 3399      43544C00 
 3400              	.LASF261:
 3401 01d4 6869645F 		.ascii	"hid_in_data\000"
 3401      696E5F64 
 3401      61746100 
 3402              	.LASF5:
 3403 01e0 7369676E 		.ascii	"signed char\000"
 3403      65642063 
 3403      68617200 
 3404              	.LASF46:
 3405 01ec 705F7072 		.ascii	"p_preempt\000"
 3405      65656D70 
 3405      7400
 3406              	.LASF19:
 3407 01f6 75696E74 		.ascii	"uint8_t\000"
 3407      385F7400 
 3408              	.LASF134:
 3409 01fe 5553425F 		.ascii	"USB_EVENT_STALLED\000"
 3409      4556454E 
 3409      545F5354 
 3409      414C4C45 
 3409      4400
 3410              	.LASF162:
 3411 0210 444F4550 		.ascii	"DOEPINT\000"
 3411      494E5400 
 3412              	.LASF33:
 3413 0218 6576656E 		.ascii	"eventmask_t\000"
 3413      746D6173 
 3413      6B5F7400 
 3414              	.LASF59:
 3415 0224 636F6E74 		.ascii	"context\000"
 3415      65787400 
 3416              	.LASF236:
 3417 022c 72787369 		.ascii	"rxsize\000"
 3417      7A6500
 3418              	.LASF7:
 3419 0233 756E7369 		.ascii	"unsigned char\000"
 3419      676E6564 
 3419      20636861 
 3419      7200
 3420              	.LASF127:
 3421 0241 5553425F 		.ascii	"USB_EP0_ERROR\000"
 3421      4550305F 
 3421      4552524F 
 3421      5200
 3422              	.LASF78:
 3423 024f 715F6C69 		.ascii	"q_link\000"
 3423      6E6B00
 3424              	.LASF195:
 3425 0256 44434647 		.ascii	"DCFG\000"
ARM GAS  /tmp/ccNaYbnh.s 			page 63


 3425      00
 3426              	.LASF179:
 3427 025b 47434346 		.ascii	"GCCFG\000"
 3427      4700
 3428              	.LASF100:
 3429 0261 65703073 		.ascii	"ep0state\000"
 3429      74617465 
 3429      00
 3430              	.LASF157:
 3431 026a 44494550 		.ascii	"DIEPTSIZ\000"
 3431      5453495A 
 3431      00
 3432              	.LASF252:
 3433 0273 72657175 		.ascii	"requests_hook_cb\000"
 3433      65737473 
 3433      5F686F6F 
 3433      6B5F6362 
 3433      00
 3434              	.LASF26:
 3435 0284 5F426F6F 		.ascii	"_Bool\000"
 3435      6C00
 3436              	.LASF184:
 3437 028a 48434647 		.ascii	"HCFG\000"
 3437      00
 3438              	.LASF144:
 3439 028f 48434348 		.ascii	"HCCHAR\000"
 3439      415200
 3440              	.LASF164:
 3441 0296 73746D33 		.ascii	"stm32_otg_out_ep_t\000"
 3441      325F6F74 
 3441      675F6F75 
 3441      745F6570 
 3441      5F7400
 3442              	.LASF69:
 3443 02a9 63686172 		.ascii	"char\000"
 3443      00
 3444              	.LASF153:
 3445 02ae 44494550 		.ascii	"DIEPCTL\000"
 3445      43544C00 
 3446              	.LASF102:
 3447 02b6 6570306E 		.ascii	"ep0n\000"
 3447      00
 3448              	.LASF198:
 3449 02bb 72657376 		.ascii	"resvd80C\000"
 3449      64383043 
 3449      00
 3450              	.LASF192:
 3451 02c4 48505254 		.ascii	"HPRT\000"
 3451      00
 3452              	.LASF38:
 3453 02c9 705F7072 		.ascii	"p_prio\000"
 3453      696F00
 3454              	.LASF97:
 3455 02d0 72656365 		.ascii	"receiving\000"
 3455      6976696E 
 3455      6700
 3456              	.LASF10:
ARM GAS  /tmp/ccNaYbnh.s 			page 64


 3457 02da 5F5F7569 		.ascii	"__uint16_t\000"
 3457      6E743136 
 3457      5F7400
 3458              	.LASF70:
 3459 02e5 47656E65 		.ascii	"GenericQueue\000"
 3459      72696351 
 3459      75657565 
 3459      00
 3460              	.LASF67:
 3461 02f2 77746F62 		.ascii	"wtobjp\000"
 3461      6A7000
 3462              	.LASF95:
 3463 02f9 636F6E66 		.ascii	"config\000"
 3463      696700
 3464              	.LASF240:
 3465 0300 73657475 		.ascii	"setup_cb\000"
 3465      705F6362 
 3465      00
 3466              	.LASF137:
 3467 0309 75645F73 		.ascii	"ud_string\000"
 3467      7472696E 
 3467      6700
 3468              	.LASF241:
 3469 0313 696E5F63 		.ascii	"in_cb\000"
 3469      6200
 3470              	.LASF57:
 3471 0319 73746B61 		.ascii	"stkalign_t\000"
 3471      6C69676E 
 3471      5F7400
 3472              	.LASF81:
 3473 0324 4F757470 		.ascii	"OutputQueue\000"
 3473      75745175 
 3473      65756500 
 3474              	.LASF186:
 3475 0330 48464E55 		.ascii	"HFNUM\000"
 3475      4D00
 3476              	.LASF141:
 3477 0336 75736265 		.ascii	"usbeventcb_t\000"
 3477      76656E74 
 3477      63625F74 
 3477      00
 3478              	.LASF152:
 3479 0343 73746D33 		.ascii	"stm32_otg_host_chn_t\000"
 3479      325F6F74 
 3479      675F686F 
 3479      73745F63 
 3479      686E5F74 
 3480              	.LASF96:
 3481 0358 7472616E 		.ascii	"transmitting\000"
 3481      736D6974 
 3481      74696E67 
 3481      00
 3482              	.LASF148:
 3483 0365 48435453 		.ascii	"HCTSIZ\000"
 3483      495A00
 3484              	.LASF232:
 3485 036c 55534249 		.ascii	"USBInEndpointState\000"
ARM GAS  /tmp/ccNaYbnh.s 			page 65


 3485      6E456E64 
 3485      706F696E 
 3485      74537461 
 3485      746500
 3486              	.LASF92:
 3487 037f 696F706F 		.ascii	"ioportmask_t\000"
 3487      72746D61 
 3487      736B5F74 
 3487      00
 3488              	.LASF204:
 3489 038c 72657376 		.ascii	"resvd824\000"
 3489      64383234 
 3489      00
 3490              	.LASF206:
 3491 0395 44564255 		.ascii	"DVBUSPULSE\000"
 3491      5350554C 
 3491      534500
 3492              	.LASF265:
 3493 03a0 63685468 		.ascii	"chThdSleep\000"
 3493      64536C65 
 3493      657000
 3494              	.LASF208:
 3495 03ab 44494550 		.ascii	"DIEPEMPMSK\000"
 3495      454D504D 
 3495      534B00
 3496              	.LASF138:
 3497 03b6 55534244 		.ascii	"USBDescriptor\000"
 3497      65736372 
 3497      6970746F 
 3497      7200
 3498              	.LASF222:
 3499 03c4 73746D33 		.ascii	"stm32_otg_params_t\000"
 3499      325F6F74 
 3499      675F7061 
 3499      72616D73 
 3499      5F7400
 3500              	.LASF104:
 3501 03d7 73657475 		.ascii	"setup\000"
 3501      7000
 3502              	.LASF58:
 3503 03dd 696E7463 		.ascii	"intctx\000"
 3503      747800
 3504              	.LASF50:
 3505 03e4 705F6570 		.ascii	"p_epending\000"
 3505      656E6469 
 3505      6E6700
 3506              	.LASF169:
 3507 03ef 47525354 		.ascii	"GRSTCTL\000"
 3507      43544C00 
 3508              	.LASF135:
 3509 03f7 75736265 		.ascii	"usbevent_t\000"
 3509      76656E74 
 3509      5F7400
 3510              	.LASF209:
 3511 0402 72657376 		.ascii	"resvd838\000"
 3511      64383338 
 3511      00
ARM GAS  /tmp/ccNaYbnh.s 			page 66


 3512              	.LASF136:
 3513 040b 75645F73 		.ascii	"ud_size\000"
 3513      697A6500 
 3514              	.LASF82:
 3515 0413 636C6561 		.ascii	"clear\000"
 3515      7200
 3516              	.LASF118:
 3517 0419 5553425F 		.ascii	"USB_SELECTED\000"
 3517      53454C45 
 3517      43544544 
 3517      00
 3518              	.LASF107:
 3519 0426 636F6E66 		.ascii	"configuration\000"
 3519      69677572 
 3519      6174696F 
 3519      6E00
 3520              	.LASF174:
 3521 0434 47525846 		.ascii	"GRXFSIZ\000"
 3521      53495A00 
 3522              	.LASF72:
 3523 043c 715F636F 		.ascii	"q_counter\000"
 3523      756E7465 
 3523      7200
 3524              	.LASF211:
 3525 0446 72657376 		.ascii	"resvd840\000"
 3525      64383430 
 3525      00
 3526              	.LASF16:
 3527 044f 5F5F7569 		.ascii	"__uint64_t\000"
 3527      6E743634 
 3527      5F7400
 3528              	.LASF182:
 3529 045a 44494550 		.ascii	"DIEPTXF\000"
 3529      54584600 
 3530              	.LASF15:
 3531 0462 6C6F6E67 		.ascii	"long unsigned int\000"
 3531      20756E73 
 3531      69676E65 
 3531      6420696E 
 3531      7400
 3532              	.LASF105:
 3533 0474 73746174 		.ascii	"status\000"
 3533      757300
 3534              	.LASF106:
 3535 047b 61646472 		.ascii	"address\000"
 3535      65737300 
 3536              	.LASF103:
 3537 0483 65703065 		.ascii	"ep0endcb\000"
 3537      6E646362 
 3537      00
 3538              	.LASF167:
 3539 048c 47414842 		.ascii	"GAHBCFG\000"
 3539      43464700 
 3540              	.LASF247:
 3541 0494 696E5F6D 		.ascii	"in_multiplier\000"
 3541      756C7469 
 3541      706C6965 
ARM GAS  /tmp/ccNaYbnh.s 			page 67


 3541      7200
 3542              	.LASF260:
 3543 04a2 75736249 		.ascii	"usbInitState\000"
 3543      6E697453 
 3543      74617465 
 3543      00
 3544              	.LASF221:
 3545 04af 6E756D5F 		.ascii	"num_endpoints\000"
 3545      656E6470 
 3545      6F696E74 
 3545      7300
 3546              	.LASF75:
 3547 04bd 715F7772 		.ascii	"q_wrptr\000"
 3547      70747200 
 3548              	.LASF203:
 3549 04c5 72657376 		.ascii	"resvd820\000"
 3549      64383230 
 3549      00
 3550              	.LASF88:
 3551 04ce 4C434B52 		.ascii	"LCKR\000"
 3551      00
 3552              	.LASF111:
 3553 04d3 7468645F 		.ascii	"thd_ptr\000"
 3553      70747200 
 3554              	.LASF263:
 3555 04db 68616C49 		.ascii	"halInit\000"
 3555      6E697400 
 3556              	.LASF237:
 3557 04e3 7278636E 		.ascii	"rxcnt\000"
 3557      7400
 3558              	.LASF120:
 3559 04e9 75736273 		.ascii	"usbstate_t\000"
 3559      74617465 
 3559      5F7400
 3560              	.LASF228:
 3561 04f4 74787369 		.ascii	"txsize\000"
 3561      7A6500
 3562              	.LASF187:
 3563 04fb 72657376 		.ascii	"resvd40C\000"
 3563      64343043 
 3563      00
 3564              	.LASF85:
 3565 0504 4F535045 		.ascii	"OSPEEDR\000"
 3565      45445200 
 3566              	.LASF165:
 3567 050c 474F5447 		.ascii	"GOTGCTL\000"
 3567      43544C00 
 3568              	.LASF233:
 3569 0514 72786275 		.ascii	"rxbuf\000"
 3569      6600
 3570              	.LASF173:
 3571 051a 47525853 		.ascii	"GRXSTSP\000"
 3571      54535000 
 3572              	.LASF245:
 3573 0522 696E5F73 		.ascii	"in_state\000"
 3573      74617465 
 3573      00
ARM GAS  /tmp/ccNaYbnh.s 			page 68


 3574              	.LASF172:
 3575 052b 47525853 		.ascii	"GRXSTSR\000"
 3575      54535200 
 3576              	.LASF133:
 3577 0533 5553425F 		.ascii	"USB_EVENT_WAKEUP\000"
 3577      4556454E 
 3577      545F5741 
 3577      4B455550 
 3577      00
 3578              	.LASF215:
 3579 0544 50434743 		.ascii	"PCGCCTL\000"
 3579      43544C00 
 3580              	.LASF269:
 3581 054c 474E5520 		.ascii	"GNU C11 5.4.1 20160919 (release) [ARM/embedded-5-br"
 3581      43313120 
 3581      352E342E 
 3581      31203230 
 3581      31363039 
 3582 057f 616E6368 		.ascii	"anch revision 240496] -mcpu=cortex-m4 -mno-thumb-in"
 3582      20726576 
 3582      6973696F 
 3582      6E203234 
 3582      30343936 
 3583 05b2 74657277 		.ascii	"terwork -mthumb -ggdb -O2 -fomit-frame-pointer -fal"
 3583      6F726B20 
 3583      2D6D7468 
 3583      756D6220 
 3583      2D676764 
 3584 05e5 69676E2D 		.ascii	"ign-functions=16 -ffunction-sections -fdata-section"
 3584      66756E63 
 3584      74696F6E 
 3584      733D3136 
 3584      202D6666 
 3585 0618 73202D66 		.ascii	"s -fno-common\000"
 3585      6E6F2D63 
 3585      6F6D6D6F 
 3585      6E00
 3586              	.LASF14:
 3587 0626 5F5F7569 		.ascii	"__uint32_t\000"
 3587      6E743332 
 3587      5F7400
 3588              	.LASF250:
 3589 0631 6576656E 		.ascii	"event_cb\000"
 3589      745F6362 
 3589      00
 3590              	.LASF61:
 3591 063a 4D757465 		.ascii	"Mutex\000"
 3591      7800
 3592              	.LASF1:
 3593 0640 6C6F6E67 		.ascii	"long long int\000"
 3593      206C6F6E 
 3593      6720696E 
 3593      7400
 3594              	.LASF117:
 3595 064e 5553425F 		.ascii	"USB_READY\000"
 3595      52454144 
 3595      5900
ARM GAS  /tmp/ccNaYbnh.s 			page 69


 3596              	.LASF62:
 3597 0658 6D5F7175 		.ascii	"m_queue\000"
 3597      65756500 
 3598              	.LASF191:
 3599 0660 72657376 		.ascii	"resvd41C\000"
 3599      64343143 
 3599      00
 3600              	.LASF101:
 3601 0669 6570306E 		.ascii	"ep0next\000"
 3601      65787400 
 3602              	.LASF255:
 3603 0671 646F7562 		.ascii	"double\000"
 3603      6C6500
 3604              	.LASF270:
 3605 0678 6D61696E 		.ascii	"main.c\000"
 3605      2E6300
 3606              	.LASF207:
 3607 067f 72657376 		.ascii	"resvd830\000"
 3607      64383330 
 3607      00
 3608              	.LASF140:
 3609 0688 75736265 		.ascii	"usbepcallback_t\000"
 3609      7063616C 
 3609      6C626163 
 3609      6B5F7400 
 3610              	.LASF212:
 3611 0698 72657376 		.ascii	"resvd880\000"
 3611      64383830 
 3611      00
 3612              	.LASF268:
 3613 06a1 6869645F 		.ascii	"hid_transmit\000"
 3613      7472616E 
 3613      736D6974 
 3613      00
 3614              	.LASF258:
 3615 06ae 49544D5F 		.ascii	"ITM_RxBuffer\000"
 3615      52784275 
 3615      66666572 
 3615      00
 3616              	.LASF210:
 3617 06bb 72657376 		.ascii	"resvd83C\000"
 3617      64383343 
 3617      00
 3618              	.LASF256:
 3619 06c4 666C6F61 		.ascii	"float\000"
 3619      7400
 3620              	.LASF79:
 3621 06ca 716E6F74 		.ascii	"qnotify_t\000"
 3621      6966795F 
 3621      7400
 3622              	.LASF47:
 3623 06d4 705F7761 		.ascii	"p_waiting\000"
 3623      6974696E 
 3623      6700
 3624              	.LASF83:
 3625 06de 4D4F4445 		.ascii	"MODER\000"
 3625      5200
ARM GAS  /tmp/ccNaYbnh.s 			page 70


 3626              	.LASF44:
 3627 06e4 705F666C 		.ascii	"p_flags\000"
 3627      61677300 
 3628              	.LASF163:
 3629 06ec 444F4550 		.ascii	"DOEPTSIZ\000"
 3629      5453495A 
 3629      00
 3630              	.LASF189:
 3631 06f5 4841494E 		.ascii	"HAINT\000"
 3631      5400
 3632              	.LASF0:
 3633 06fb 756E7369 		.ascii	"unsigned int\000"
 3633      676E6564 
 3633      20696E74 
 3633      00
 3634              	.LASF254:
 3635 0708 55534243 		.ascii	"USBConfig\000"
 3635      6F6E6669 
 3635      6700
 3636              	.LASF110:
 3637 0712 74787065 		.ascii	"txpending\000"
 3637      6E64696E 
 3637      6700
 3638              	.LASF53:
 3639 071c 705F6D70 		.ascii	"p_mpool\000"
 3639      6F6F6C00 
 3640              	.LASF218:
 3641 0724 73746D33 		.ascii	"stm32_otg_t\000"
 3641      325F6F74 
 3641      675F7400 
 3642              	.LASF45:
 3643 0730 705F7265 		.ascii	"p_refs\000"
 3643      667300
 3644              	.LASF248:
 3645 0737 73657475 		.ascii	"setup_buf\000"
 3645      705F6275 
 3645      6600
 3646              	.LASF108:
 3647 0741 6F746770 		.ascii	"otgparams\000"
 3647      6172616D 
 3647      7300
 3648              	.LASF55:
 3649 074b 54687265 		.ascii	"ThreadsList\000"
 3649      6164734C 
 3649      69737400 
 3650              	.LASF193:
 3651 0757 72657376 		.ascii	"resvd444\000"
 3651      64343434 
 3651      00
 3652              	.LASF242:
 3653 0760 6F75745F 		.ascii	"out_cb\000"
 3653      636200
 3654              	.LASF93:
 3655 0767 55534244 		.ascii	"USBDriver\000"
 3655      72697665 
 3655      7200
 3656              	.LASF190:
ARM GAS  /tmp/ccNaYbnh.s 			page 71


 3657 0771 4841494E 		.ascii	"HAINTMSK\000"
 3657      544D534B 
 3657      00
 3658              	.LASF116:
 3659 077a 5553425F 		.ascii	"USB_STOP\000"
 3659      53544F50 
 3659      00
 3660              	.LASF243:
 3661 0783 696E5F6D 		.ascii	"in_maxsize\000"
 3661      61787369 
 3661      7A6500
 3662              	.LASF171:
 3663 078e 47494E54 		.ascii	"GINTMSK\000"
 3663      4D534B00 
 3664              	.LASF246:
 3665 0796 6F75745F 		.ascii	"out_state\000"
 3665      73746174 
 3665      6500
 3666              	.LASF2:
 3667 07a0 6C6F6E67 		.ascii	"long double\000"
 3667      20646F75 
 3667      626C6500 
 3668              	.LASF52:
 3669 07ac 705F7265 		.ascii	"p_realprio\000"
 3669      616C7072 
 3669      696F00
 3670              	.LASF123:
 3671 07b7 5553425F 		.ascii	"USB_EP0_WAITING_TX0\000"
 3671      4550305F 
 3671      57414954 
 3671      494E475F 
 3671      54583000 
 3672              	.LASF115:
 3673 07cb 5553425F 		.ascii	"USB_UNINIT\000"
 3673      554E494E 
 3673      495400
 3674              	.LASF238:
 3675 07d6 5553424F 		.ascii	"USBOutEndpointState\000"
 3675      7574456E 
 3675      64706F69 
 3675      6E745374 
 3675      61746500 
 3676              	.LASF4:
 3677 07ea 5F5F696E 		.ascii	"__int8_t\000"
 3677      74385F74 
 3677      00
 3678              	.LASF214:
 3679 07f3 72657376 		.ascii	"resvdD00\000"
 3679      64443030 
 3679      00
 3680              	.LASF17:
 3681 07fc 6C6F6E67 		.ascii	"long long unsigned int\000"
 3681      206C6F6E 
 3681      6720756E 
 3681      7369676E 
 3681      65642069 
 3682              	.LASF181:
ARM GAS  /tmp/ccNaYbnh.s 			page 72


 3683 0813 48505458 		.ascii	"HPTXFSIZ\000"
 3683      4653495A 
 3683      00
 3684              	.LASF41:
 3685 081c 705F6F6C 		.ascii	"p_older\000"
 3685      64657200 
 3686              	.LASF21:
 3687 0824 75696E74 		.ascii	"uint16_t\000"
 3687      31365F74 
 3687      00
 3688              	.LASF146:
 3689 082d 4843494E 		.ascii	"HCINT\000"
 3689      5400
 3690              	.LASF225:
 3691 0833 6C696E65 		.ascii	"linear\000"
 3691      617200
 3692              	.LASF32:
 3693 083a 6D73675F 		.ascii	"msg_t\000"
 3693      7400
 3694              	.LASF196:
 3695 0840 4443544C 		.ascii	"DCTL\000"
 3695      00
 3696              	.LASF249:
 3697 0845 55534245 		.ascii	"USBEndpointConfig\000"
 3697      6E64706F 
 3697      696E7443 
 3697      6F6E6669 
 3697      6700
 3698              	.LASF147:
 3699 0857 4843494E 		.ascii	"HCINTMSK\000"
 3699      544D534B 
 3699      00
 3700              	.LASF235:
 3701 0860 72787175 		.ascii	"rxqueued\000"
 3701      65756564 
 3701      00
 3702              	.LASF262:
 3703 0869 75736263 		.ascii	"usbcfg\000"
 3703      666700
 3704              	.LASF30:
 3705 0870 74736C69 		.ascii	"tslices_t\000"
 3705      6365735F 
 3705      7400
 3706              	.LASF166:
 3707 087a 474F5447 		.ascii	"GOTGINT\000"
 3707      494E5400 
 3708              	.LASF90:
 3709 0882 41465248 		.ascii	"AFRH\000"
 3709      00
 3710              	.LASF89:
 3711 0887 4146524C 		.ascii	"AFRL\000"
 3711      00
 3712              	.LASF234:
 3713 088c 72787175 		.ascii	"rxqueue\000"
 3713      65756500 
 3714              	.LASF202:
 3715 0894 4441494E 		.ascii	"DAINTMSK\000"
ARM GAS  /tmp/ccNaYbnh.s 			page 73


 3715      544D534B 
 3715      00
 3716              	.LASF205:
 3717 089d 44564255 		.ascii	"DVBUSDIS\000"
 3717      53444953 
 3717      00
 3718              	.LASF160:
 3719 08a6 73746D33 		.ascii	"stm32_otg_in_ep_t\000"
 3719      325F6F74 
 3719      675F696E 
 3719      5F65705F 
 3719      7400
 3720              	.LASF8:
 3721 08b8 5F5F696E 		.ascii	"__int16_t\000"
 3721      7431365F 
 3721      7400
 3722              	.LASF220:
 3723 08c2 6F74675F 		.ascii	"otg_ram_size\000"
 3723      72616D5F 
 3723      73697A65 
 3723      00
 3724              	.LASF131:
 3725 08cf 5553425F 		.ascii	"USB_EVENT_CONFIGURED\000"
 3725      4556454E 
 3725      545F434F 
 3725      4E464947 
 3725      55524544 
 3726              	.LASF217:
 3727 08e4 4649464F 		.ascii	"FIFO\000"
 3727      00
 3728              	.LASF84:
 3729 08e9 4F545950 		.ascii	"OTYPER\000"
 3729      455200
 3730              	.LASF266:
 3731 08f0 75736253 		.ascii	"usbStart\000"
 3731      74617274 
 3731      00
 3732              	.LASF71:
 3733 08f9 715F7761 		.ascii	"q_waiting\000"
 3733      6974696E 
 3733      6700
 3734              	.LASF27:
 3735 0903 746D6F64 		.ascii	"tmode_t\000"
 3735      655F7400 
 3736              	.LASF143:
 3737 090b 75736267 		.ascii	"usbgetdescriptor_t\000"
 3737      65746465 
 3737      73637269 
 3737      70746F72 
 3737      5F7400
 3738              	.LASF113:
 3739 091e 77615F70 		.ascii	"wa_pump\000"
 3739      756D7000 
 3740              	.LASF98:
 3741 0926 696E5F70 		.ascii	"in_params\000"
 3741      6172616D 
 3741      7300
ARM GAS  /tmp/ccNaYbnh.s 			page 74


 3742              	.LASF257:
 3743 0930 6869645F 		.ascii	"hid_data_in\000"
 3743      64617461 
 3743      5F696E00 
 3744              	.LASF9:
 3745 093c 73686F72 		.ascii	"short int\000"
 3745      7420696E 
 3745      7400
 3746              	.LASF231:
 3747 0946 746F7473 		.ascii	"totsize\000"
 3747      697A6500 
 3748              	.LASF24:
 3749 094e 75696E74 		.ascii	"uint64_t\000"
 3749      36345F74 
 3749      00
 3750              	.LASF230:
 3751 0957 6D6F6465 		.ascii	"mode\000"
 3751      00
 3752              	.LASF129:
 3753 095c 5553425F 		.ascii	"USB_EVENT_RESET\000"
 3753      4556454E 
 3753      545F5245 
 3753      53455400 
 3754              	.LASF149:
 3755 096c 72657376 		.ascii	"resvd14\000"
 3755      64313400 
 3756              	.LASF20:
 3757 0974 696E7431 		.ascii	"int16_t\000"
 3757      365F7400 
 3758              	.LASF150:
 3759 097c 72657376 		.ascii	"resvd18\000"
 3759      64313800 
 3760              	.LASF158:
 3761 0984 44545846 		.ascii	"DTXFSTS\000"
 3761      53545300 
 3762              	.LASF224:
 3763 098c 74787175 		.ascii	"txqueue\000"
 3763      65756500 
 3764              	.LASF159:
 3765 0994 72657376 		.ascii	"resvd1C\000"
 3765      64314300 
 3766              	.LASF199:
 3767 099c 44494550 		.ascii	"DIEPMSK\000"
 3767      4D534B00 
 3768              	.LASF25:
 3769 09a4 626F6F6C 		.ascii	"bool_t\000"
 3769      5F7400
 3770              	.LASF151:
 3771 09ab 72657376 		.ascii	"resvd1c\000"
 3771      64316300 
 3772              	.LASF142:
 3773 09b3 75736272 		.ascii	"usbreqhandler_t\000"
 3773      65716861 
 3773      6E646C65 
 3773      725F7400 
 3774              	.LASF87:
 3775 09c3 42535252 		.ascii	"BSRR\000"
ARM GAS  /tmp/ccNaYbnh.s 			page 75


 3775      00
 3776              	.LASF139:
 3777 09c8 75736263 		.ascii	"usbcallback_t\000"
 3777      616C6C62 
 3777      61636B5F 
 3777      7400
 3778              	.LASF35:
 3779 09d6 54687265 		.ascii	"Thread\000"
 3779      616400
 3780              	.LASF170:
 3781 09dd 47494E54 		.ascii	"GINTSTS\000"
 3781      53545300 
 3782              	.LASF91:
 3783 09e5 4750494F 		.ascii	"GPIO_TypeDef\000"
 3783      5F547970 
 3783      65446566 
 3783      00
 3784              	.LASF155:
 3785 09f2 44494550 		.ascii	"DIEPINT\000"
 3785      494E5400 
 3786              	.LASF176:
 3787 09fa 484E5054 		.ascii	"HNPTXSTS\000"
 3787      58535453 
 3787      00
 3788              	.LASF259:
 3789 0a03 55534244 		.ascii	"USBD1\000"
 3789      3100
 3790              	.LASF29:
 3791 0a09 74726566 		.ascii	"trefs_t\000"
 3791      735F7400 
 3792              	.LASF253:
 3793 0a11 736F665F 		.ascii	"sof_cb\000"
 3793      636200
 3794              	.LASF216:
 3795 0a18 72657376 		.ascii	"resvdE04\000"
 3795      64453034 
 3795      00
 3796              	.LASF177:
 3797 0a21 72657376 		.ascii	"resvd30\000"
 3797      64333000 
 3798              	.LASF213:
 3799 0a29 72657376 		.ascii	"resvd8C0\000"
 3799      64384330 
 3799      00
 3800              	.LASF178:
 3801 0a32 72657376 		.ascii	"resvd34\000"
 3801      64333400 
 3802              	.LASF264:
 3803 0a3a 63685379 		.ascii	"chSysInit\000"
 3803      73496E69 
 3803      7400
 3804              	.LASF23:
 3805 0a44 75696E74 		.ascii	"uint32_t\000"
 3805      33325F74 
 3805      00
 3806              	.LASF114:
 3807 0a4d 75736265 		.ascii	"usbep_t\000"
ARM GAS  /tmp/ccNaYbnh.s 			page 76


 3807      705F7400 
 3808              	.LASF54:
 3809 0a55 54687265 		.ascii	"ThreadsQueue\000"
 3809      61647351 
 3809      75657565 
 3809      00
 3810              	.LASF132:
 3811 0a62 5553425F 		.ascii	"USB_EVENT_SUSPEND\000"
 3811      4556454E 
 3811      545F5355 
 3811      5350454E 
 3811      4400
 3812              	.LASF65:
 3813 0a74 7264796D 		.ascii	"rdymsg\000"
 3813      736700
 3814              	.LASF11:
 3815 0a7b 73686F72 		.ascii	"short unsigned int\000"
 3815      7420756E 
 3815      7369676E 
 3815      65642069 
 3815      6E7400
 3816              	.LASF197:
 3817 0a8e 44535453 		.ascii	"DSTS\000"
 3817      00
 3818              	.LASF251:
 3819 0a93 6765745F 		.ascii	"get_descriptor_cb\000"
 3819      64657363 
 3819      72697074 
 3819      6F725F63 
 3819      6200
 3820              	.LASF80:
 3821 0aa5 496E7075 		.ascii	"InputQueue\000"
 3821      74517565 
 3821      756500
 3822              	.LASF99:
 3823 0ab0 6F75745F 		.ascii	"out_params\000"
 3823      70617261 
 3823      6D7300
 3824              	.LASF12:
 3825 0abb 5F5F696E 		.ascii	"__int32_t\000"
 3825      7433325F 
 3825      7400
 3826              	.LASF188:
 3827 0ac5 48505458 		.ascii	"HPTXSTS\000"
 3827      53545300 
 3828              	.LASF180:
 3829 0acd 72657376 		.ascii	"resvd58\000"
 3829      64353800 
 3830              	.LASF126:
 3831 0ad5 5553425F 		.ascii	"USB_EP0_SENDING_STS\000"
 3831      4550305F 
 3831      53454E44 
 3831      494E475F 
 3831      53545300 
 3832              	.LASF185:
 3833 0ae9 48464952 		.ascii	"HFIR\000"
 3833      00
ARM GAS  /tmp/ccNaYbnh.s 			page 77


 3834              	.LASF124:
 3835 0aee 5553425F 		.ascii	"USB_EP0_WAITING_STS\000"
 3835      4550305F 
 3835      57414954 
 3835      494E475F 
 3835      53545300 
 3836              	.LASF42:
 3837 0b02 705F6E61 		.ascii	"p_name\000"
 3837      6D6500
 3838              	.LASF64:
 3839 0b09 6D5F6E65 		.ascii	"m_next\000"
 3839      787400
 3840              	.LASF109:
 3841 0b10 706D6E65 		.ascii	"pmnext\000"
 3841      787400
 3842              	.LASF227:
 3843 0b17 74787175 		.ascii	"txqueued\000"
 3843      65756564 
 3843      00
 3844              	.LASF168:
 3845 0b20 47555342 		.ascii	"GUSBCFG\000"
 3845      43464700 
 3846              	.LASF125:
 3847 0b28 5553425F 		.ascii	"USB_EP0_RX\000"
 3847      4550305F 
 3847      525800
 3848              	.LASF183:
 3849 0b33 72657376 		.ascii	"resvd140\000"
 3849      64313430 
 3849      00
 3850              	.LASF49:
 3851 0b3c 705F6D73 		.ascii	"p_msg\000"
 3851      6700
 3852              	.LASF43:
 3853 0b42 705F7374 		.ascii	"p_state\000"
 3853      61746500 
 3854              		.ident	"GCC: (GNU Tools for ARM Embedded Processors) 5.4.1 20160919 (release) [ARM/embedded-5-bran
ARM GAS  /tmp/ccNaYbnh.s 			page 78


DEFINED SYMBOLS
                            *ABS*:00000000 main.c
     /tmp/ccNaYbnh.s:23     .text.startup.main:00000000 $t
     /tmp/ccNaYbnh.s:29     .text.startup.main:00000000 main
     /tmp/ccNaYbnh.s:288    .text.startup.main:00000198 $d
                     .debug_frame:00000010 $d

UNDEFINED SYMBOLS
__aeabi_ui2d
__aeabi_dmul
__aeabi_d2iz
halInit
chSysInit
chThdSleep
usbStart
_pal_lld_setgroupmode
sin
hid_transmit
USBD1
hid_in_data
usbInitState
usbcfg
