ARM GAS  /tmp/ccNaYbnh.s 			page 1


   1              		.syntax unified
   2              		.cpu cortex-m4
   3              		.fpu softvfp
   4              		.eabi_attribute 20, 1
   5              		.eabi_attribute 21, 1
   6              		.eabi_attribute 23, 3
   7              		.eabi_attribute 24, 1
   8              		.eabi_attribute 25, 1
   9              		.eabi_attribute 26, 1
  10              		.eabi_attribute 30, 2
  11              		.eabi_attribute 34, 1
  12              		.eabi_attribute 18, 4
  13              		.thumb
  14              		.syntax unified
  15              		.file	"main.c"
  16              		.text
  17              	.Ltext0:
  18              		.cfi_sections	.debug_frame
  19              		.global	__aeabi_ui2d
  20              		.global	__aeabi_dmul
  21              		.global	__aeabi_d2iz
  22              		.section	.text.startup.main,"ax",%progbits
  23              		.align	2
  24              		.p2align 4,,15
  25              		.global	main
  26              		.thumb
  27              		.thumb_func
  28              		.type	main, %function
  29              	main:
  30              	.LFB118:
  31              		.file 1 "main.c"
  32              		.loc 1 86 0
  33              		.cfi_startproc
  34              		@ args = 0, pretend = 0, frame = 0
  35              		@ frame_needed = 0, uses_anonymous_args = 0
  36 0000 2DE9F047 		push	{r4, r5, r6, r7, r8, r9, r10, lr}
  37              		.cfi_def_cfa_offset 32
  38              		.cfi_offset 4, -32
  39              		.cfi_offset 5, -28
  40              		.cfi_offset 6, -24
  41              		.cfi_offset 7, -20
  42              		.cfi_offset 8, -16
  43              		.cfi_offset 9, -12
  44              		.cfi_offset 10, -8
  45              		.cfi_offset 14, -4
  46              		.loc 1 91 0
  47 0004 664E     		ldr	r6, .L18+8
  48 0006 674C     		ldr	r4, .L18+12
  49              		.loc 1 130 0
  50 0008 DFF8B091 		ldr	r9, .L18+36
  51              		.loc 1 87 0
  52 000c FFF7FEFF 		bl	halInit
  53              	.LVL0:
  54              		.loc 1 88 0
  55 0010 FFF7FEFF 		bl	chSysInit
  56              	.LVL1:
  57              		.loc 1 91 0
ARM GAS  /tmp/ccNaYbnh.s 			page 2


  58 0014 326D     		ldr	r2, [r6, #80]
  59              		.loc 1 89 0
  60 0016 6449     		ldr	r1, .L18+16
  61              		.loc 1 91 0
  62 0018 936B     		ldr	r3, [r2, #56]
  63 001a 23F40023 		bic	r3, r3, #524288
  64 001e 9363     		str	r3, [r2, #56]
  65              		.loc 1 89 0
  66 0020 0025     		movs	r5, #0
  67              		.loc 1 92 0
  68 0022 4FF47A70 		mov	r0, #1000
  69              		.loc 1 89 0
  70 0026 0D70     		strb	r5, [r1]
  71              	.LVL2:
  72              		.loc 1 92 0
  73 0028 FFF7FEFF 		bl	chThdSleep
  74              	.LVL3:
  75              		.loc 1 93 0
  76 002c 5F49     		ldr	r1, .L18+20
  77 002e 3046     		mov	r0, r6
  78 0030 FFF7FEFF 		bl	usbStart
  79              	.LVL4:
  80              		.loc 1 94 0
  81 0034 326D     		ldr	r2, [r6, #80]
  82 0036 936B     		ldr	r3, [r2, #56]
  83 0038 43F40023 		orr	r3, r3, #524288
  84 003c 9363     		str	r3, [r2, #56]
  85              		.loc 1 95 0
  86 003e 4FF47A70 		mov	r0, #1000
  87 0042 FFF7FEFF 		bl	chThdSleep
  88              	.LVL5:
  89              		.loc 1 122 0
  90 0046 2A46     		mov	r2, r5
  91 0048 FE21     		movs	r1, #254
  92 004a 5948     		ldr	r0, .L18+24
  93 004c FFF7FEFF 		bl	_pal_lld_setgroupmode
  94              	.LVL6:
  95              		.loc 1 159 0
  96 0050 A046     		mov	r8, r4
  97 0052 49E0     		b	.L14
  98              	.LVL7:
  99              	.L17:
 100              		.loc 1 139 0 discriminator 1
 101 0054 22F06002 		bic	r2, r2, #96
 102 0058 42F01000 		orr	r0, r2, #16
 103              	.L3:
 104              		.loc 1 146 0
 105 005c 042B     		cmp	r3, #4
 106              		.loc 1 143 0
 107 005e 00F01F01 		and	r1, r0, #31
 108              		.loc 1 146 0
 109 0062 59D1     		bne	.L5
 110              		.loc 1 151 0 discriminator 1
 111 0064 00F07D00 		and	r0, r0, #125
 112              		.loc 1 155 0 discriminator 1
 113 0068 98F90220 		ldrsb	r2, [r8, #2]
 114              		.loc 1 151 0 discriminator 1
ARM GAS  /tmp/ccNaYbnh.s 			page 3


 115 006c 40F00100 		orr	r0, r0, #1
 116 0070 88F80300 		strb	r0, [r8, #3]
 117              		.loc 1 155 0 discriminator 1
 118 0074 22F02002 		bic	r2, r2, #32
 119              	.L9:
 120              		.loc 1 166 0
 121 0078 092B     		cmp	r3, #9
 122              		.loc 1 159 0
 123 007a 22F03002 		bic	r2, r2, #48
 124              		.loc 1 166 0
 125 007e 57D1     		bne	.L10
 126              		.loc 1 166 0 is_stmt 0 discriminator 1
 127 0080 42F04002 		orr	r2, r2, #64
 128              	.L12:
 129              		.loc 1 171 0 is_stmt 1
 130 0084 02F07F02 		and	r2, r2, #127
 131 0088 A270     		strb	r2, [r4, #2]
 132              	.L13:
 133              		.loc 1 176 0
 134 008a 2846     		mov	r0, r5
 135 008c FFF7FEFF 		bl	__aeabi_ui2d
 136              	.LVL8:
 137 0090 0022     		movs	r2, #0
 138 0092 484B     		ldr	r3, .L18+28
 139 0094 0646     		mov	r6, r0
 140 0096 0F46     		mov	r7, r1
 141 0098 FFF7FEFF 		bl	__aeabi_dmul
 142              	.LVL9:
 143 009c FFF7FEFF 		bl	sin
 144              	.LVL10:
 145 00a0 3DA3     		adr	r3, .L18
 146 00a2 D3E90023 		ldrd	r2, [r3]
 147 00a6 FFF7FEFF 		bl	__aeabi_dmul
 148              	.LVL11:
 149 00aa FFF7FEFF 		bl	__aeabi_d2iz
 150              	.LVL12:
 151              		.loc 1 177 0
 152 00ae 0022     		movs	r2, #0
 153 00b0 414B     		ldr	r3, .L18+32
 154              		.loc 1 176 0
 155 00b2 1FFA80FA 		uxth	r10, r0
 156              		.loc 1 177 0
 157 00b6 3946     		mov	r1, r7
 158 00b8 3046     		mov	r0, r6
 159              		.loc 1 176 0
 160 00ba A4F806A0 		strh	r10, [r4, #6]	@ movhi
 161              		.loc 1 177 0
 162 00be FFF7FEFF 		bl	__aeabi_dmul
 163              	.LVL13:
 164 00c2 FFF7FEFF 		bl	sin
 165              	.LVL14:
 166 00c6 34A3     		adr	r3, .L18
 167 00c8 D3E90023 		ldrd	r2, [r3]
 168 00cc FFF7FEFF 		bl	__aeabi_dmul
 169              	.LVL15:
 170 00d0 FFF7FEFF 		bl	__aeabi_d2iz
 171              	.LVL16:
ARM GAS  /tmp/ccNaYbnh.s 			page 4


 172              		.loc 1 186 0
 173 00d4 1422     		movs	r2, #20
 174              		.loc 1 177 0
 175 00d6 83B2     		uxth	r3, r0
 176              		.loc 1 202 0
 177 00d8 3148     		ldr	r0, .L18+8
 178              		.loc 1 178 0
 179 00da A4F80AA0 		strh	r10, [r4, #10]	@ movhi
 180              		.loc 1 177 0
 181 00de 2381     		strh	r3, [r4, #8]	@ movhi
 182              		.loc 1 179 0
 183 00e0 A381     		strh	r3, [r4, #12]	@ movhi
 184              		.loc 1 186 0
 185 00e2 6270     		strb	r2, [r4, #1]
 186              		.loc 1 202 0
 187 00e4 FFF7FEFF 		bl	hid_transmit
 188              	.LVL17:
 189              	.L14:
 190              		.loc 1 128 0
 191 00e8 0135     		adds	r5, r5, #1
 192              	.LVL18:
 193 00ea ADB2     		uxth	r5, r5
 194              		.loc 1 127 0
 195 00ec 3220     		movs	r0, #50
 196 00ee FFF7FEFF 		bl	chThdSleep
 197              	.LVL19:
 198              		.loc 1 130 0
 199 00f2 A9FB0523 		umull	r2, r3, r9, r5
 200 00f6 9B08     		lsrs	r3, r3, #2
 201 00f8 03EB4302 		add	r2, r3, r3, lsl #1
 202 00fc 03EB8203 		add	r3, r3, r2, lsl #2
 203 0100 EB1A     		subs	r3, r5, r3
 204 0102 9BB2     		uxth	r3, r3
 205 0104 94F90320 		ldrsb	r2, [r4, #3]
 206 0108 002B     		cmp	r3, #0
 207 010a A3D0     		beq	.L17
 208              		.loc 1 134 0
 209 010c 012B     		cmp	r3, #1
 210 010e 18D1     		bne	.L4
 211              		.loc 1 143 0 discriminator 1
 212 0110 02F02F01 		and	r1, r2, #47
 213 0114 41F02001 		orr	r1, r1, #32
 214              	.L5:
 215              		.loc 1 150 0
 216 0118 052B     		cmp	r3, #5
 217              		.loc 1 147 0
 218 011a 01F07E01 		and	r1, r1, #126
 219              		.loc 1 150 0
 220 011e 16D1     		bne	.L7
 221              		.loc 1 155 0 discriminator 1
 222 0120 98F90220 		ldrsb	r2, [r8, #2]
 223              		.loc 1 150 0 discriminator 1
 224 0124 41F00201 		orr	r1, r1, #2
 225 0128 88F80310 		strb	r1, [r8, #3]
 226              		.loc 1 159 0 discriminator 1
 227 012c 22F03002 		bic	r2, r2, #48
 228              	.L10:
ARM GAS  /tmp/ccNaYbnh.s 			page 5


 229              		.loc 1 170 0
 230 0130 0A2B     		cmp	r3, #10
 231              		.loc 1 167 0
 232 0132 22F05002 		bic	r2, r2, #80
 233              		.loc 1 170 0
 234 0136 A5D1     		bne	.L12
 235              		.loc 1 170 0 is_stmt 0 discriminator 1
 236 0138 62F07F02 		orn	r2, r2, #127
 237 013c 88F80220 		strb	r2, [r8, #2]
 238 0140 A3E7     		b	.L13
 239              	.L4:
 240              		.loc 1 138 0 is_stmt 1
 241 0142 022B     		cmp	r3, #2
 242 0144 0FD1     		bne	.L6
 243              		.loc 1 147 0 discriminator 1
 244 0146 02F04E02 		and	r2, r2, #78
 245 014a 42F04001 		orr	r1, r2, #64
 246              	.L7:
 247              		.loc 1 151 0
 248 014e 21F00201 		bic	r1, r1, #2
 249              		.loc 1 154 0
 250 0152 062B     		cmp	r3, #6
 251              		.loc 1 151 0
 252 0154 E170     		strb	r1, [r4, #3]
 253              		.loc 1 154 0
 254 0156 11D1     		bne	.L8
 255              		.loc 1 154 0 is_stmt 0 discriminator 1
 256 0158 98F90220 		ldrsb	r2, [r8, #2]
 257              		.loc 1 167 0 is_stmt 1 discriminator 1
 258 015c 22F05002 		bic	r2, r2, #80
 259 0160 42F02002 		orr	r2, r2, #32
 260 0164 8EE7     		b	.L12
 261              	.L6:
 262              		.loc 1 142 0
 263 0166 032B     		cmp	r3, #3
 264              		.loc 1 139 0
 265 0168 22F07000 		bic	r0, r2, #112
 266              		.loc 1 142 0
 267 016c 7FF476AF 		bne	.L3
 268              		.loc 1 151 0 discriminator 1
 269 0170 22F07302 		bic	r2, r2, #115
 270 0174 62F07F02 		orn	r2, r2, #127
 271 0178 88F80320 		strb	r2, [r8, #3]
 272              	.L8:
 273              		.loc 1 155 0
 274 017c 94F90210 		ldrsb	r1, [r4, #2]
 275              		.loc 1 158 0
 276 0180 072B     		cmp	r3, #7
 277              		.loc 1 155 0
 278 0182 21F02002 		bic	r2, r1, #32
 279              		.loc 1 158 0
 280 0186 7FF477AF 		bne	.L9
 281              		.loc 1 167 0 discriminator 1
 282 018a 21F06002 		bic	r2, r1, #96
 283 018e 42F01002 		orr	r2, r2, #16
 284 0192 77E7     		b	.L12
 285              	.L19:
ARM GAS  /tmp/ccNaYbnh.s 			page 6


 286 0194 AFF30080 		.align	3
 287              	.L18:
 288 0198 00000000 		.word	0
 289 019c C0FFDF40 		.word	1088421824
 290 01a0 00000000 		.word	USBD1
 291 01a4 00000000 		.word	hid_in_data
 292 01a8 00000000 		.word	usbInitState
 293 01ac 00000000 		.word	usbcfg
 294 01b0 00000240 		.word	1073872896
 295 01b4 0000E03F 		.word	1071644672
 296 01b8 0000D03F 		.word	1070596096
 297 01bc 4FECC44E 		.word	1321528399
 298              		.cfi_endproc
 299              	.LFE118:
 300              		.size	main, .-main
 301              		.text
 302              	.Letext0:
 303              		.file 2 "/usr/local/gcc-arm-none-eabi-5_4-2016q3/lib/gcc/arm-none-eabi/5.4.1/include/stddef.h"
 304              		.file 3 "/usr/local/gcc-arm-none-eabi-5_4-2016q3/arm-none-eabi/include/machine/_default_types.h"
 305              		.file 4 "/usr/local/gcc-arm-none-eabi-5_4-2016q3/arm-none-eabi/include/sys/_stdint.h"
 306              		.file 5 "../ChibiOS_2.6.9/os/ports/GCC/ARMCMx/chtypes.h"
 307              		.file 6 "../ChibiOS_2.6.9/os/kernel/include/chlists.h"
 308              		.file 7 "../ChibiOS_2.6.9/os/kernel/include/chthreads.h"
 309              		.file 8 "../ChibiOS_2.6.9/os/ports/GCC/ARMCMx/chcore_v7m.h"
 310              		.file 9 "../ChibiOS_2.6.9/os/kernel/include/chmtx.h"
 311              		.file 10 "../ChibiOS_2.6.9/os/kernel/include/chqueues.h"
 312              		.file 11 "../ChibiOS_2.6.9/os/hal/platforms/STM32/GPIOv2/pal_lld.h"
 313              		.file 12 "../ChibiOS_2.6.9/os/hal/include/usb.h"
 314              		.file 13 "../ChibiOS_2.6.9/os/hal/platforms/STM32/OTGv1/usb_lld.h"
 315              		.file 14 "../ChibiOS_2.6.9/os/hal/platforms/STM32/OTGv1/stm32_otg.h"
 316              		.file 15 "usb_hid.h"
 317              		.file 16 "../ChibiOS_2.6.9/os/ports/common/ARMCMx/CMSIS/include/core_cm4.h"
 318              		.file 17 "usbcfg.h"
 319              		.file 18 "../ChibiOS_2.6.9/os/hal/include/hal.h"
 320              		.file 19 "../ChibiOS_2.6.9/os/kernel/include/chsys.h"
 321              		.file 20 "/usr/local/gcc-arm-none-eabi-5_4-2016q3/arm-none-eabi/include/math.h"