ARM GAS  /tmp/ccvvtkT5.s 			page 1


   1              		.syntax unified
   2              		.cpu cortex-m4
   3              		.fpu softvfp
   4              		.eabi_attribute 20, 1
   5              		.eabi_attribute 21, 1
   6              		.eabi_attribute 23, 3
   7              		.eabi_attribute 24, 1
   8              		.eabi_attribute 25, 1
   9              		.eabi_attribute 26, 1
  10              		.eabi_attribute 30, 2
  11              		.eabi_attribute 34, 1
  12              		.eabi_attribute 18, 4
  13              		.thumb
  14              		.syntax unified
  15              		.file	"testthd.c"
  16              		.text
  17              	.Ltext0:
  18              		.cfi_sections	.debug_frame
  19              		.section	.text.thd1_execute,"ax",%progbits
  20              		.align	2
  21              		.p2align 4,,15
  22              		.thumb
  23              		.thumb_func
  24              		.type	thd1_execute, %function
  25              	thd1_execute:
  26              	.LFB8:
  27              		.file 1 "../ChibiOS_2.6.9/test/testthd.c"
  28              		.loc 1 66 0
  29              		.cfi_startproc
  30              		@ args = 0, pretend = 0, frame = 0
  31              		@ frame_needed = 0, uses_anonymous_args = 0
  32 0000 F0B5     		push	{r4, r5, r6, r7, lr}
  33              		.cfi_def_cfa_offset 20
  34              		.cfi_offset 4, -20
  35              		.cfi_offset 5, -16
  36              		.cfi_offset 6, -12
  37              		.cfi_offset 7, -8
  38              		.cfi_offset 14, -4
  39              		.loc 1 68 0
  40 0002 274F     		ldr	r7, .L3
  41 0004 274E     		ldr	r6, .L3+4
  42 0006 BB69     		ldr	r3, [r7, #24]
  43 0008 274D     		ldr	r5, .L3+8
  44 000a 9A68     		ldr	r2, [r3, #8]
  45 000c 274B     		ldr	r3, .L3+12
  46 000e 3068     		ldr	r0, [r6]
  47 0010 274C     		ldr	r4, .L3+16
  48              		.loc 1 66 0
  49 0012 83B0     		sub	sp, sp, #12
  50              		.cfi_def_cfa_offset 32
  51              		.loc 1 68 0
  52 0014 053A     		subs	r2, r2, #5
  53 0016 0093     		str	r3, [sp]
  54 0018 4FF4A471 		mov	r1, #328
  55 001c 2B46     		mov	r3, r5
  56 001e FFF7FEFF 		bl	chThdCreateStatic
  57              	.LVL0:
ARM GAS  /tmp/ccvvtkT5.s 			page 2


  58              		.loc 1 69 0
  59 0022 BB69     		ldr	r3, [r7, #24]
  60 0024 2349     		ldr	r1, .L3+20
  61 0026 9A68     		ldr	r2, [r3, #8]
  62 0028 7368     		ldr	r3, [r6, #4]
  63              		.loc 1 68 0
  64 002a 2060     		str	r0, [r4]
  65              		.loc 1 69 0
  66 002c 0091     		str	r1, [sp]
  67 002e 043A     		subs	r2, r2, #4
  68 0030 1846     		mov	r0, r3
  69 0032 4FF4A471 		mov	r1, #328
  70 0036 2B46     		mov	r3, r5
  71 0038 FFF7FEFF 		bl	chThdCreateStatic
  72              	.LVL1:
  73              		.loc 1 70 0
  74 003c BA69     		ldr	r2, [r7, #24]
  75 003e B368     		ldr	r3, [r6, #8]
  76 0040 9268     		ldr	r2, [r2, #8]
  77 0042 1D49     		ldr	r1, .L3+24
  78              		.loc 1 69 0
  79 0044 6060     		str	r0, [r4, #4]
  80              		.loc 1 70 0
  81 0046 0091     		str	r1, [sp]
  82 0048 033A     		subs	r2, r2, #3
  83 004a 1846     		mov	r0, r3
  84 004c 4FF4A471 		mov	r1, #328
  85 0050 2B46     		mov	r3, r5
  86 0052 FFF7FEFF 		bl	chThdCreateStatic
  87              	.LVL2:
  88              		.loc 1 71 0
  89 0056 BA69     		ldr	r2, [r7, #24]
  90 0058 F368     		ldr	r3, [r6, #12]
  91 005a 9268     		ldr	r2, [r2, #8]
  92 005c 1749     		ldr	r1, .L3+28
  93              		.loc 1 70 0
  94 005e A060     		str	r0, [r4, #8]
  95              		.loc 1 71 0
  96 0060 0091     		str	r1, [sp]
  97 0062 023A     		subs	r2, r2, #2
  98 0064 1846     		mov	r0, r3
  99 0066 4FF4A471 		mov	r1, #328
 100 006a 2B46     		mov	r3, r5
 101 006c FFF7FEFF 		bl	chThdCreateStatic
 102              	.LVL3:
 103              		.loc 1 72 0
 104 0070 BA69     		ldr	r2, [r7, #24]
 105 0072 3369     		ldr	r3, [r6, #16]
 106 0074 9268     		ldr	r2, [r2, #8]
 107 0076 1249     		ldr	r1, .L3+32
 108              		.loc 1 71 0
 109 0078 E060     		str	r0, [r4, #12]
 110              		.loc 1 72 0
 111 007a 013A     		subs	r2, r2, #1
 112 007c 0091     		str	r1, [sp]
 113 007e 1846     		mov	r0, r3
 114 0080 4FF4A471 		mov	r1, #328
ARM GAS  /tmp/ccvvtkT5.s 			page 3


 115 0084 2B46     		mov	r3, r5
 116 0086 FFF7FEFF 		bl	chThdCreateStatic
 117              	.LVL4:
 118 008a 2061     		str	r0, [r4, #16]
 119              		.loc 1 73 0
 120 008c FFF7FEFF 		bl	test_wait_threads
 121              	.LVL5:
 122              		.loc 1 74 0
 123 0090 0C49     		ldr	r1, .L3+36
 124 0092 0120     		movs	r0, #1
 125              		.loc 1 75 0
 126 0094 03B0     		add	sp, sp, #12
 127              		.cfi_def_cfa_offset 20
 128              		@ sp needed
 129 0096 BDE8F040 		pop	{r4, r5, r6, r7, lr}
 130              		.cfi_restore 14
 131              		.cfi_restore 7
 132              		.cfi_restore 6
 133              		.cfi_restore 5
 134              		.cfi_restore 4
 135              		.cfi_def_cfa_offset 0
 136              		.loc 1 74 0
 137 009a FFF7FEBF 		b	_test_assert_sequence
 138              	.LVL6:
 139              	.L4:
 140 009e 00BF     		.align	2
 141              	.L3:
 142 00a0 00000000 		.word	rlist
 143 00a4 00000000 		.word	wa
 144 00a8 00000000 		.word	thread
 145 00ac 00000000 		.word	.LC0
 146 00b0 00000000 		.word	threads
 147 00b4 04000000 		.word	.LC1
 148 00b8 08000000 		.word	.LC2
 149 00bc 0C000000 		.word	.LC3
 150 00c0 10000000 		.word	.LC4
 151 00c4 14000000 		.word	.LC5
 152              		.cfi_endproc
 153              	.LFE8:
 154              		.size	thd1_execute, .-thd1_execute
 155              		.section	.text.thread,"ax",%progbits
 156              		.align	2
 157              		.p2align 4,,15
 158              		.thumb
 159              		.thumb_func
 160              		.type	thread, %function
 161              	thread:
 162              	.LFB7:
 163              		.loc 1 60 0
 164              		.cfi_startproc
 165              		@ args = 0, pretend = 0, frame = 0
 166              		@ frame_needed = 0, uses_anonymous_args = 0
 167              	.LVL7:
 168 0000 08B5     		push	{r3, lr}
 169              		.cfi_def_cfa_offset 8
 170              		.cfi_offset 3, -8
 171              		.cfi_offset 14, -4
ARM GAS  /tmp/ccvvtkT5.s 			page 4


 172              		.loc 1 62 0
 173 0002 0078     		ldrb	r0, [r0]	@ zero_extendqisi2
 174              	.LVL8:
 175 0004 FFF7FEFF 		bl	test_emit_token
 176              	.LVL9:
 177              		.loc 1 64 0
 178 0008 0020     		movs	r0, #0
 179 000a 08BD     		pop	{r3, pc}
 180              		.cfi_endproc
 181              	.LFE7:
 182              		.size	thread, .-thread
 183              		.section	.text.thd2_execute,"ax",%progbits
 184              		.align	2
 185              		.p2align 4,,15
 186              		.thumb
 187              		.thumb_func
 188              		.type	thd2_execute, %function
 189              	thd2_execute:
 190              	.LFB9:
 191              		.loc 1 94 0
 192              		.cfi_startproc
 193              		@ args = 0, pretend = 0, frame = 0
 194              		@ frame_needed = 0, uses_anonymous_args = 0
 195 0000 F0B5     		push	{r4, r5, r6, r7, lr}
 196              		.cfi_def_cfa_offset 20
 197              		.cfi_offset 4, -20
 198              		.cfi_offset 5, -16
 199              		.cfi_offset 6, -12
 200              		.cfi_offset 7, -8
 201              		.cfi_offset 14, -4
 202              		.loc 1 96 0
 203 0002 2B4F     		ldr	r7, .L9
 204 0004 2B4E     		ldr	r6, .L9+4
 205 0006 BB69     		ldr	r3, [r7, #24]
 206 0008 2B4D     		ldr	r5, .L9+8
 207 000a 9A68     		ldr	r2, [r3, #8]
 208 000c 2B4B     		ldr	r3, .L9+12
 209 000e 7068     		ldr	r0, [r6, #4]
 210 0010 2B4C     		ldr	r4, .L9+16
 211              		.loc 1 94 0
 212 0012 83B0     		sub	sp, sp, #12
 213              		.cfi_def_cfa_offset 32
 214              		.loc 1 96 0
 215 0014 043A     		subs	r2, r2, #4
 216 0016 0093     		str	r3, [sp]
 217 0018 4FF4A471 		mov	r1, #328
 218 001c 2B46     		mov	r3, r5
 219 001e FFF7FEFF 		bl	chThdCreateStatic
 220              	.LVL10:
 221              		.loc 1 97 0
 222 0022 BB69     		ldr	r3, [r7, #24]
 223 0024 2749     		ldr	r1, .L9+20
 224 0026 9A68     		ldr	r2, [r3, #8]
 225 0028 3368     		ldr	r3, [r6]
 226              		.loc 1 96 0
 227 002a 6060     		str	r0, [r4, #4]
 228              		.loc 1 97 0
ARM GAS  /tmp/ccvvtkT5.s 			page 5


 229 002c 0091     		str	r1, [sp]
 230 002e 053A     		subs	r2, r2, #5
 231 0030 1846     		mov	r0, r3
 232 0032 4FF4A471 		mov	r1, #328
 233 0036 2B46     		mov	r3, r5
 234 0038 FFF7FEFF 		bl	chThdCreateStatic
 235              	.LVL11:
 236              		.loc 1 98 0
 237 003c BA69     		ldr	r2, [r7, #24]
 238 003e 3369     		ldr	r3, [r6, #16]
 239 0040 9268     		ldr	r2, [r2, #8]
 240 0042 2149     		ldr	r1, .L9+24
 241              		.loc 1 97 0
 242 0044 2060     		str	r0, [r4]
 243              		.loc 1 98 0
 244 0046 0091     		str	r1, [sp]
 245 0048 013A     		subs	r2, r2, #1
 246 004a 1846     		mov	r0, r3
 247 004c 4FF4A471 		mov	r1, #328
 248 0050 2B46     		mov	r3, r5
 249 0052 FFF7FEFF 		bl	chThdCreateStatic
 250              	.LVL12:
 251              		.loc 1 99 0
 252 0056 BA69     		ldr	r2, [r7, #24]
 253 0058 F368     		ldr	r3, [r6, #12]
 254 005a 9268     		ldr	r2, [r2, #8]
 255 005c 1B49     		ldr	r1, .L9+28
 256              		.loc 1 98 0
 257 005e 2061     		str	r0, [r4, #16]
 258              		.loc 1 99 0
 259 0060 0091     		str	r1, [sp]
 260 0062 023A     		subs	r2, r2, #2
 261 0064 1846     		mov	r0, r3
 262 0066 4FF4A471 		mov	r1, #328
 263 006a 2B46     		mov	r3, r5
 264 006c FFF7FEFF 		bl	chThdCreateStatic
 265              	.LVL13:
 266              	.LBB2:
 267              		.loc 1 101 0
 268 0070 2023     		movs	r3, #32
 269              	.LBE2:
 270              		.loc 1 99 0
 271 0072 E060     		str	r0, [r4, #12]
 272              	.LBB3:
 273              		.loc 1 101 0
 274              		.syntax unified
 275              	@ 101 "../ChibiOS_2.6.9/test/testthd.c" 1
 276 0074 83F31188 		msr     BASEPRI, r3
 277              	@ 0 "" 2
 278              		.thumb
 279              		.syntax unified
 280              	.LBE3:
 281              		.loc 1 102 0
 282 0078 BB69     		ldr	r3, [r7, #24]
 283 007a B068     		ldr	r0, [r6, #8]
 284 007c 9A68     		ldr	r2, [r3, #8]
 285 007e 144B     		ldr	r3, .L9+32
ARM GAS  /tmp/ccvvtkT5.s 			page 6


 286 0080 0093     		str	r3, [sp]
 287 0082 033A     		subs	r2, r2, #3
 288 0084 2B46     		mov	r3, r5
 289 0086 4FF4A471 		mov	r1, #328
 290 008a FFF7FEFF 		bl	chThdCreateI
 291              	.LVL14:
 292              	.LBB4:
 293              		.loc 1 103 0
 294 008e 0023     		movs	r3, #0
 295              	.LBE4:
 296              		.loc 1 102 0
 297 0090 A060     		str	r0, [r4, #8]
 298              	.LBB5:
 299              		.loc 1 103 0
 300              		.syntax unified
 301              	@ 103 "../ChibiOS_2.6.9/test/testthd.c" 1
 302 0092 83F31188 		msr     BASEPRI, r3
 303              	@ 0 "" 2
 304              		.thumb
 305              		.syntax unified
 306              	.LBE5:
 307              		.loc 1 104 0
 308 0096 A068     		ldr	r0, [r4, #8]
 309 0098 FFF7FEFF 		bl	chThdResume
 310              	.LVL15:
 311              		.loc 1 105 0
 312 009c FFF7FEFF 		bl	test_wait_threads
 313              	.LVL16:
 314              		.loc 1 106 0
 315 00a0 0C49     		ldr	r1, .L9+36
 316 00a2 0120     		movs	r0, #1
 317              		.loc 1 107 0
 318 00a4 03B0     		add	sp, sp, #12
 319              		.cfi_def_cfa_offset 20
 320              		@ sp needed
 321 00a6 BDE8F040 		pop	{r4, r5, r6, r7, lr}
 322              		.cfi_restore 14
 323              		.cfi_restore 7
 324              		.cfi_restore 6
 325              		.cfi_restore 5
 326              		.cfi_restore 4
 327              		.cfi_def_cfa_offset 0
 328              		.loc 1 106 0
 329 00aa FFF7FEBF 		b	_test_assert_sequence
 330              	.LVL17:
 331              	.L10:
 332 00ae 00BF     		.align	2
 333              	.L9:
 334 00b0 00000000 		.word	rlist
 335 00b4 00000000 		.word	wa
 336 00b8 00000000 		.word	thread
 337 00bc 04000000 		.word	.LC1
 338 00c0 00000000 		.word	threads
 339 00c4 00000000 		.word	.LC0
 340 00c8 10000000 		.word	.LC4
 341 00cc 0C000000 		.word	.LC3
 342 00d0 08000000 		.word	.LC2
ARM GAS  /tmp/ccvvtkT5.s 			page 7


 343 00d4 14000000 		.word	.LC5
 344              		.cfi_endproc
 345              	.LFE9:
 346              		.size	thd2_execute, .-thd2_execute
 347              		.section	.text.thd3_execute,"ax",%progbits
 348              		.align	2
 349              		.p2align 4,,15
 350              		.thumb
 351              		.thumb_func
 352              		.type	thd3_execute, %function
 353              	thd3_execute:
 354              	.LFB10:
 355              		.loc 1 126 0
 356              		.cfi_startproc
 357              		@ args = 0, pretend = 0, frame = 0
 358              		@ frame_needed = 0, uses_anonymous_args = 0
 359 0000 F8B5     		push	{r3, r4, r5, r6, r7, lr}
 360              		.cfi_def_cfa_offset 24
 361              		.cfi_offset 3, -24
 362              		.cfi_offset 4, -20
 363              		.cfi_offset 5, -16
 364              		.cfi_offset 6, -12
 365              		.cfi_offset 7, -8
 366              		.cfi_offset 14, -4
 367              		.loc 1 129 0
 368 0002 4A4E     		ldr	r6, .L18
 369 0004 B369     		ldr	r3, [r6, #24]
 370 0006 9C68     		ldr	r4, [r3, #8]
 371              	.LVL18:
 372              		.loc 1 130 0
 373 0008 651C     		adds	r5, r4, #1
 374 000a 2846     		mov	r0, r5
 375 000c FFF7FEFF 		bl	chThdSetPriority
 376              	.LVL19:
 377              		.loc 1 131 0
 378 0010 211A     		subs	r1, r4, r0
 379 0012 B1FA81F1 		clz	r1, r1
 380              		.loc 1 130 0
 381 0016 0746     		mov	r7, r0
 382              	.LVL20:
 383              		.loc 1 131 0
 384 0018 4909     		lsrs	r1, r1, #5
 385 001a 0120     		movs	r0, #1
 386              	.LVL21:
 387 001c FFF7FEFF 		bl	_test_assert
 388              	.LVL22:
 389 0020 00B1     		cbz	r0, .L17
 390              	.LVL23:
 391              	.L11:
 392 0022 F8BD     		pop	{r3, r4, r5, r6, r7, pc}
 393              	.LVL24:
 394              	.L17:
 395              		.loc 1 133 0
 396 0024 B369     		ldr	r3, [r6, #24]
 397 0026 9968     		ldr	r1, [r3, #8]
 398 0028 491B     		subs	r1, r1, r5
 399 002a B1FA81F1 		clz	r1, r1
ARM GAS  /tmp/ccvvtkT5.s 			page 8


 400 002e 0220     		movs	r0, #2
 401 0030 4909     		lsrs	r1, r1, #5
 402 0032 FFF7FEFF 		bl	_test_assert
 403              	.LVL25:
 404 0036 0028     		cmp	r0, #0
 405 0038 F3D1     		bne	.L11
 406              		.loc 1 135 0
 407 003a 3846     		mov	r0, r7
 408 003c FFF7FEFF 		bl	chThdSetPriority
 409              	.LVL26:
 410              		.loc 1 136 0
 411 0040 291A     		subs	r1, r5, r0
 412 0042 B1FA81F1 		clz	r1, r1
 413 0046 4909     		lsrs	r1, r1, #5
 414 0048 0320     		movs	r0, #3
 415              	.LVL27:
 416 004a FFF7FEFF 		bl	_test_assert
 417              	.LVL28:
 418 004e 0028     		cmp	r0, #0
 419 0050 E7D1     		bne	.L11
 420              		.loc 1 138 0
 421 0052 B369     		ldr	r3, [r6, #24]
 422 0054 9968     		ldr	r1, [r3, #8]
 423 0056 091B     		subs	r1, r1, r4
 424 0058 B1FA81F1 		clz	r1, r1
 425 005c 0420     		movs	r0, #4
 426 005e 4909     		lsrs	r1, r1, #5
 427 0060 FFF7FEFF 		bl	_test_assert
 428              	.LVL29:
 429 0064 0028     		cmp	r0, #0
 430 0066 DCD1     		bne	.L11
 431              	.LBB6:
 432              		.loc 1 143 0
 433 0068 2023     		movs	r3, #32
 434              		.syntax unified
 435              	@ 143 "../ChibiOS_2.6.9/test/testthd.c" 1
 436 006a 83F31188 		msr     BASEPRI, r3
 437              	@ 0 "" 2
 438              		.thumb
 439              		.syntax unified
 440              	.LBE6:
 441              		.loc 1 144 0
 442 006e B169     		ldr	r1, [r6, #24]
 443 0070 8B68     		ldr	r3, [r1, #8]
 444 0072 9A1C     		adds	r2, r3, #2
 445 0074 8A60     		str	r2, [r1, #8]
 446              	.LBB7:
 447              		.loc 1 145 0
 448 0076 0346     		mov	r3, r0
 449              		.syntax unified
 450              	@ 145 "../ChibiOS_2.6.9/test/testthd.c" 1
 451 0078 83F31188 		msr     BASEPRI, r3
 452              	@ 0 "" 2
 453              		.thumb
 454              		.syntax unified
 455              	.LBE7:
 456              		.loc 1 146 0
ARM GAS  /tmp/ccvvtkT5.s 			page 9


 457 007c B369     		ldr	r3, [r6, #24]
 458 007e 9968     		ldr	r1, [r3, #8]
 459 0080 A71C     		adds	r7, r4, #2
 460 0082 C91B     		subs	r1, r1, r7
 461 0084 B1FA81F1 		clz	r1, r1
 462 0088 4909     		lsrs	r1, r1, #5
 463 008a 0520     		movs	r0, #5
 464 008c FFF7FEFF 		bl	_test_assert
 465              	.LVL30:
 466 0090 0028     		cmp	r0, #0
 467 0092 C6D1     		bne	.L11
 468              		.loc 1 150 0
 469 0094 2846     		mov	r0, r5
 470 0096 FFF7FEFF 		bl	chThdSetPriority
 471              	.LVL31:
 472              		.loc 1 151 0
 473 009a 211A     		subs	r1, r4, r0
 474 009c B1FA81F1 		clz	r1, r1
 475 00a0 4909     		lsrs	r1, r1, #5
 476 00a2 0620     		movs	r0, #6
 477              	.LVL32:
 478 00a4 FFF7FEFF 		bl	_test_assert
 479              	.LVL33:
 480 00a8 0028     		cmp	r0, #0
 481 00aa BAD1     		bne	.L11
 482              		.loc 1 153 0
 483 00ac B369     		ldr	r3, [r6, #24]
 484 00ae 9968     		ldr	r1, [r3, #8]
 485 00b0 C91B     		subs	r1, r1, r7
 486 00b2 B1FA81F1 		clz	r1, r1
 487 00b6 0720     		movs	r0, #7
 488 00b8 4909     		lsrs	r1, r1, #5
 489 00ba FFF7FEFF 		bl	_test_assert
 490              	.LVL34:
 491 00be 0028     		cmp	r0, #0
 492 00c0 AFD1     		bne	.L11
 493              		.loc 1 155 0
 494 00c2 B369     		ldr	r3, [r6, #24]
 495 00c4 D96B     		ldr	r1, [r3, #60]
 496 00c6 491B     		subs	r1, r1, r5
 497 00c8 B1FA81F1 		clz	r1, r1
 498 00cc 0820     		movs	r0, #8
 499 00ce 4909     		lsrs	r1, r1, #5
 500 00d0 FFF7FEFF 		bl	_test_assert
 501              	.LVL35:
 502 00d4 0028     		cmp	r0, #0
 503 00d6 A4D1     		bne	.L11
 504              		.loc 1 159 0
 505 00d8 E71C     		adds	r7, r4, #3
 506 00da 3846     		mov	r0, r7
 507 00dc FFF7FEFF 		bl	chThdSetPriority
 508              	.LVL36:
 509              		.loc 1 160 0
 510 00e0 281A     		subs	r0, r5, r0
 511              	.LVL37:
 512 00e2 4142     		rsbs	r1, r0, #0
 513 00e4 4141     		adcs	r1, r1, r0
ARM GAS  /tmp/ccvvtkT5.s 			page 10


 514 00e6 0920     		movs	r0, #9
 515 00e8 FFF7FEFF 		bl	_test_assert
 516              	.LVL38:
 517 00ec 0028     		cmp	r0, #0
 518 00ee 98D1     		bne	.L11
 519              		.loc 1 162 0
 520 00f0 B369     		ldr	r3, [r6, #24]
 521 00f2 9968     		ldr	r1, [r3, #8]
 522 00f4 CA1B     		subs	r2, r1, r7
 523 00f6 5142     		rsbs	r1, r2, #0
 524 00f8 5141     		adcs	r1, r1, r2
 525 00fa 0A20     		movs	r0, #10
 526 00fc FFF7FEFF 		bl	_test_assert
 527              	.LVL39:
 528 0100 0028     		cmp	r0, #0
 529 0102 8ED1     		bne	.L11
 530              		.loc 1 164 0
 531 0104 B369     		ldr	r3, [r6, #24]
 532 0106 D96B     		ldr	r1, [r3, #60]
 533 0108 CB1B     		subs	r3, r1, r7
 534 010a 5942     		rsbs	r1, r3, #0
 535 010c 5941     		adcs	r1, r1, r3
 536 010e 0B20     		movs	r0, #11
 537 0110 FFF7FEFF 		bl	_test_assert
 538              	.LVL40:
 539 0114 0028     		cmp	r0, #0
 540 0116 84D1     		bne	.L11
 541              	.LBB8:
 542              		.loc 1 167 0
 543 0118 2023     		movs	r3, #32
 544              		.syntax unified
 545              	@ 167 "../ChibiOS_2.6.9/test/testthd.c" 1
 546 011a 83F31188 		msr     BASEPRI, r3
 547              	@ 0 "" 2
 548              		.thumb
 549              		.syntax unified
 550              	.LBE8:
 551              		.loc 1 168 0
 552 011e B269     		ldr	r2, [r6, #24]
 553              	.LBB9:
 554              		.loc 1 170 0
 555 0120 0346     		mov	r3, r0
 556              	.LBE9:
 557              		.loc 1 168 0
 558 0122 9460     		str	r4, [r2, #8]
 559              		.loc 1 169 0
 560 0124 D463     		str	r4, [r2, #60]
 561              	.LBB10:
 562              		.loc 1 170 0
 563              		.syntax unified
 564              	@ 170 "../ChibiOS_2.6.9/test/testthd.c" 1
 565 0126 83F31188 		msr     BASEPRI, r3
 566              	@ 0 "" 2
 567              		.thumb
 568              		.syntax unified
 569 012a 7AE7     		b	.L11
 570              	.L19:
ARM GAS  /tmp/ccvvtkT5.s 			page 11


 571              		.align	2
 572              	.L18:
 573 012c 00000000 		.word	rlist
 574              	.LBE10:
 575              		.cfi_endproc
 576              	.LFE10:
 577              		.size	thd3_execute, .-thd3_execute
 578              		.section	.text.thd4_execute,"ax",%progbits
 579              		.align	2
 580              		.p2align 4,,15
 581              		.thumb
 582              		.thumb_func
 583              		.type	thd4_execute, %function
 584              	thd4_execute:
 585              	.LFB11:
 586              		.loc 1 189 0
 587              		.cfi_startproc
 588              		@ args = 0, pretend = 0, frame = 0
 589              		@ frame_needed = 0, uses_anonymous_args = 0
 590 0000 38B5     		push	{r3, r4, r5, lr}
 591              		.cfi_def_cfa_offset 16
 592              		.cfi_offset 3, -16
 593              		.cfi_offset 4, -12
 594              		.cfi_offset 5, -8
 595              		.cfi_offset 14, -4
 596              		.loc 1 195 0
 597 0002 1C4D     		ldr	r5, .L26
 598              		.loc 1 192 0
 599 0004 FFF7FEFF 		bl	test_wait_tick
 600              	.LVL41:
 601              		.loc 1 195 0
 602 0008 EC68     		ldr	r4, [r5, #12]
 603              	.LVL42:
 604              		.loc 1 196 0
 605 000a 6420     		movs	r0, #100
 606 000c FFF7FEFF 		bl	chThdSleep
 607              	.LVL43:
 608              		.loc 1 197 0
 609 0010 04F16502 		add	r2, r4, #101
 610 0014 04F16401 		add	r1, r4, #100
 611 0018 0120     		movs	r0, #1
 612 001a FFF7FEFF 		bl	_test_assert_time_window
 613              	.LVL44:
 614 001e 00B1     		cbz	r0, .L25
 615              	.LVL45:
 616              	.L20:
 617 0020 38BD     		pop	{r3, r4, r5, pc}
 618              	.LVL46:
 619              	.L25:
 620              		.loc 1 200 0
 621 0022 EC68     		ldr	r4, [r5, #12]
 622              	.LVL47:
 623              		.loc 1 201 0
 624 0024 6420     		movs	r0, #100
 625 0026 FFF7FEFF 		bl	chThdSleep
 626              	.LVL48:
 627              		.loc 1 202 0
ARM GAS  /tmp/ccvvtkT5.s 			page 12


 628 002a 04F16502 		add	r2, r4, #101
 629 002e 04F16401 		add	r1, r4, #100
 630 0032 0220     		movs	r0, #2
 631 0034 FFF7FEFF 		bl	_test_assert_time_window
 632              	.LVL49:
 633 0038 0028     		cmp	r0, #0
 634 003a F1D1     		bne	.L20
 635              	.LBB13:
 636              	.LBB14:
 637              		.loc 1 205 0
 638 003c EC68     		ldr	r4, [r5, #12]
 639              	.LVL50:
 640              		.loc 1 206 0
 641 003e 4FF47A70 		mov	r0, #1000
 642 0042 FFF7FEFF 		bl	chThdSleep
 643              	.LVL51:
 644              		.loc 1 207 0
 645 0046 04F2E932 		addw	r2, r4, #1001
 646 004a 04F57A71 		add	r1, r4, #1000
 647 004e 0320     		movs	r0, #3
 648 0050 FFF7FEFF 		bl	_test_assert_time_window
 649              	.LVL52:
 650 0054 0028     		cmp	r0, #0
 651 0056 E3D1     		bne	.L20
 652              		.loc 1 210 0
 653 0058 EC68     		ldr	r4, [r5, #12]
 654              	.LVL53:
 655 005a 04F16405 		add	r5, r4, #100
 656              	.LVL54:
 657              		.loc 1 211 0
 658 005e 2846     		mov	r0, r5
 659 0060 FFF7FEFF 		bl	chThdSleepUntil
 660              	.LVL55:
 661              		.loc 1 212 0
 662 0064 2946     		mov	r1, r5
 663 0066 04F16502 		add	r2, r4, #101
 664 006a 0420     		movs	r0, #4
 665              	.LBE14:
 666              	.LBE13:
 667              		.loc 1 213 0
 668 006c BDE83840 		pop	{r3, r4, r5, lr}
 669              		.cfi_restore 14
 670              		.cfi_restore 5
 671              		.cfi_restore 4
 672              		.cfi_restore 3
 673              		.cfi_def_cfa_offset 0
 674              	.LVL56:
 675              	.LBB16:
 676              	.LBB15:
 677              		.loc 1 212 0
 678 0070 FFF7FEBF 		b	_test_assert_time_window
 679              	.LVL57:
 680              	.L27:
 681              		.align	2
 682              	.L26:
 683 0074 00000000 		.word	vtlist
 684              	.LBE15:
ARM GAS  /tmp/ccvvtkT5.s 			page 13


 685              	.LBE16:
 686              		.cfi_endproc
 687              	.LFE11:
 688              		.size	thd4_execute, .-thd4_execute
 689              		.global	patternthd
 690              		.global	testthd4
 691              		.global	testthd3
 692              		.global	testthd2
 693              		.global	testthd1
 694              		.section	.rodata.testthd1,"a",%progbits
 695              		.align	2
 696              		.type	testthd1, %object
 697              		.size	testthd1, 16
 698              	testthd1:
 699 0000 64000000 		.word	.LC9
 700 0004 00000000 		.word	0
 701 0008 00000000 		.word	0
 702 000c 00000000 		.word	thd1_execute
 703              		.section	.rodata.testthd2,"a",%progbits
 704              		.align	2
 705              		.type	testthd2, %object
 706              		.size	testthd2, 16
 707              	testthd2:
 708 0000 48000000 		.word	.LC8
 709 0004 00000000 		.word	0
 710 0008 00000000 		.word	0
 711 000c 00000000 		.word	thd2_execute
 712              		.section	.rodata.testthd3,"a",%progbits
 713              		.align	2
 714              		.type	testthd3, %object
 715              		.size	testthd3, 16
 716              	testthd3:
 717 0000 2C000000 		.word	.LC7
 718 0004 00000000 		.word	0
 719 0008 00000000 		.word	0
 720 000c 00000000 		.word	thd3_execute
 721              		.section	.rodata.testthd4,"a",%progbits
 722              		.align	2
 723              		.type	testthd4, %object
 724              		.size	testthd4, 16
 725              	testthd4:
 726 0000 1C000000 		.word	.LC6
 727 0004 00000000 		.word	0
 728 0008 00000000 		.word	0
 729 000c 00000000 		.word	thd4_execute
 730              		.section	.rodata.patternthd,"a",%progbits
 731              		.align	2
 732              		.type	patternthd, %object
 733              		.size	patternthd, 20
 734              	patternthd:
 735 0000 00000000 		.word	testthd1
 736 0004 00000000 		.word	testthd2
 737 0008 00000000 		.word	testthd3
 738 000c 00000000 		.word	testthd4
 739 0010 00000000 		.word	0
 740              		.section	.rodata.str1.4,"aMS",%progbits,1
 741              		.align	2
ARM GAS  /tmp/ccvvtkT5.s 			page 14


 742              	.LC0:
 743 0000 4500     		.ascii	"E\000"
 744 0002 0000     		.space	2
 745              	.LC1:
 746 0004 4400     		.ascii	"D\000"
 747 0006 0000     		.space	2
 748              	.LC2:
 749 0008 4300     		.ascii	"C\000"
 750 000a 0000     		.space	2
 751              	.LC3:
 752 000c 4200     		.ascii	"B\000"
 753 000e 0000     		.space	2
 754              	.LC4:
 755 0010 4100     		.ascii	"A\000"
 756 0012 0000     		.space	2
 757              	.LC5:
 758 0014 41424344 		.ascii	"ABCDE\000"
 758      4500
 759 001a 0000     		.space	2
 760              	.LC6:
 761 001c 54687265 		.ascii	"Threads, delays\000"
 761      6164732C 
 761      2064656C 
 761      61797300 
 762              	.LC7:
 763 002c 54687265 		.ascii	"Threads, priority change\000"
 763      6164732C 
 763      20707269 
 763      6F726974 
 763      79206368 
 764 0045 000000   		.space	3
 765              	.LC8:
 766 0048 54687265 		.ascii	"Threads, enqueuing test #2\000"
 766      6164732C 
 766      20656E71 
 766      75657569 
 766      6E672074 
 767 0063 00       		.space	1
 768              	.LC9:
 769 0064 54687265 		.ascii	"Threads, enqueuing test #1\000"
 769      6164732C 
 769      20656E71 
 769      75657569 
 769      6E672074 
 770              		.text
 771              	.Letext0:
 772              		.file 2 "/usr/local/gcc-arm-none-eabi-5_4-2016q3/arm-none-eabi/include/machine/_default_types.h"
 773              		.file 3 "/usr/local/gcc-arm-none-eabi-5_4-2016q3/arm-none-eabi/include/sys/_stdint.h"
 774              		.file 4 "../ChibiOS_2.6.9/os/ports/GCC/ARMCMx/chtypes.h"
 775              		.file 5 "../ChibiOS_2.6.9/os/kernel/include/chlists.h"
 776              		.file 6 "../ChibiOS_2.6.9/os/kernel/include/chthreads.h"
 777              		.file 7 "../ChibiOS_2.6.9/os/ports/GCC/ARMCMx/chcore_v7m.h"
 778              		.file 8 "../ChibiOS_2.6.9/os/kernel/include/chvt.h"
 779              		.file 9 "../ChibiOS_2.6.9/os/kernel/include/chschd.h"
 780              		.file 10 "../ChibiOS_2.6.9/os/kernel/include/chmtx.h"
 781              		.file 11 "../ChibiOS_2.6.9/test/test.h"