ARM GAS  /tmp/cc62Brnt.s 			page 1


   1              		.syntax unified
   2              		.cpu cortex-m4
   3              		.fpu softvfp
   4              		.eabi_attribute 20, 1
   5              		.eabi_attribute 21, 1
   6              		.eabi_attribute 23, 3
   7              		.eabi_attribute 24, 1
   8              		.eabi_attribute 25, 1
   9              		.eabi_attribute 26, 1
  10              		.eabi_attribute 30, 2
  11              		.eabi_attribute 34, 1
  12              		.eabi_attribute 18, 4
  13              		.thumb
  14              		.syntax unified
  15              		.file	"testevt.c"
  16              		.text
  17              	.Ltext0:
  18              		.cfi_sections	.debug_frame
  19              		.section	.text.evt1_execute,"ax",%progbits
  20              		.align	2
  21              		.p2align 4,,15
  22              		.thumb
  23              		.thumb_func
  24              		.type	evt1_execute, %function
  25              	evt1_execute:
  26              	.LFB11:
  27              		.file 1 "../ChibiOS_2.6.9/test/testevt.c"
  28              		.loc 1 85 0
  29              		.cfi_startproc
  30              		@ args = 0, pretend = 0, frame = 32
  31              		@ frame_needed = 0, uses_anonymous_args = 0
  32 0000 10B5     		push	{r4, lr}
  33              		.cfi_def_cfa_offset 8
  34              		.cfi_offset 4, -8
  35              		.cfi_offset 14, -4
  36              		.loc 1 91 0
  37 0002 1D4C     		ldr	r4, .L7
  38              		.loc 1 85 0
  39 0004 88B0     		sub	sp, sp, #32
  40              		.cfi_def_cfa_offset 40
  41              		.loc 1 92 0
  42 0006 2046     		mov	r0, r4
  43 0008 6946     		mov	r1, sp
  44 000a 0122     		movs	r2, #1
  45              		.loc 1 91 0
  46 000c 2460     		str	r4, [r4]
  47              		.loc 1 92 0
  48 000e FFF7FEFF 		bl	chEvtRegisterMask
  49              	.LVL0:
  50              		.loc 1 93 0
  51 0012 2046     		mov	r0, r4
  52 0014 04A9     		add	r1, sp, #16
  53 0016 0222     		movs	r2, #2
  54 0018 FFF7FEFF 		bl	chEvtRegisterMask
  55              	.LVL1:
  56              		.loc 1 94 0
  57 001c 2168     		ldr	r1, [r4]
ARM GAS  /tmp/cc62Brnt.s 			page 2


  58 001e 091B     		subs	r1, r1, r4
  59 0020 18BF     		it	ne
  60 0022 0121     		movne	r1, #1
  61 0024 0120     		movs	r0, #1
  62 0026 FFF7FEFF 		bl	_test_assert
  63              	.LVL2:
  64 002a 08B1     		cbz	r0, .L6
  65              	.L1:
  66              		.loc 1 105 0
  67 002c 08B0     		add	sp, sp, #32
  68              		.cfi_remember_state
  69              		.cfi_def_cfa_offset 8
  70              		@ sp needed
  71 002e 10BD     		pop	{r4, pc}
  72              	.L6:
  73              		.cfi_restore_state
  74              		.loc 1 95 0
  75 0030 6946     		mov	r1, sp
  76 0032 2046     		mov	r0, r4
  77 0034 FFF7FEFF 		bl	chEvtUnregister
  78              	.LVL3:
  79              		.loc 1 96 0
  80 0038 2168     		ldr	r1, [r4]
  81 003a 091B     		subs	r1, r1, r4
  82 003c 18BF     		it	ne
  83 003e 0121     		movne	r1, #1
  84 0040 0220     		movs	r0, #2
  85 0042 FFF7FEFF 		bl	_test_assert
  86              	.LVL4:
  87 0046 0028     		cmp	r0, #0
  88 0048 F0D1     		bne	.L1
  89              		.loc 1 97 0
  90 004a 04A9     		add	r1, sp, #16
  91 004c 2046     		mov	r0, r4
  92 004e FFF7FEFF 		bl	chEvtUnregister
  93              	.LVL5:
  94              		.loc 1 98 0
  95 0052 2168     		ldr	r1, [r4]
  96 0054 091B     		subs	r1, r1, r4
  97 0056 B1FA81F1 		clz	r1, r1
  98 005a 0320     		movs	r0, #3
  99 005c 4909     		lsrs	r1, r1, #5
 100 005e FFF7FEFF 		bl	_test_assert
 101              	.LVL6:
 102 0062 0028     		cmp	r0, #0
 103 0064 E2D1     		bne	.L1
 104              		.loc 1 103 0
 105 0066 0721     		movs	r1, #7
 106 0068 0448     		ldr	r0, .L7+4
 107 006a FFF7FEFF 		bl	chEvtDispatch
 108              	.LVL7:
 109              		.loc 1 104 0
 110 006e 0449     		ldr	r1, .L7+8
 111 0070 0420     		movs	r0, #4
 112 0072 FFF7FEFF 		bl	_test_assert_sequence
 113              	.LVL8:
 114 0076 D9E7     		b	.L1
ARM GAS  /tmp/cc62Brnt.s 			page 3


 115              	.L8:
 116              		.align	2
 117              	.L7:
 118 0078 00000000 		.word	.LANCHOR0
 119 007c 00000000 		.word	.LANCHOR1
 120 0080 00000000 		.word	.LC0
 121              		.cfi_endproc
 122              	.LFE11:
 123              		.size	evt1_execute, .-evt1_execute
 124              		.section	.text.h3,"ax",%progbits
 125              		.align	2
 126              		.p2align 4,,15
 127              		.thumb
 128              		.thumb_func
 129              		.type	h3, %function
 130              	h3:
 131              	.LFB10:
 132              		.loc 1 82 0
 133              		.cfi_startproc
 134              		@ args = 0, pretend = 0, frame = 0
 135              		@ frame_needed = 0, uses_anonymous_args = 0
 136              		@ link register save eliminated.
 137              	.LVL9:
 138              		.loc 1 82 0
 139 0000 4320     		movs	r0, #67
 140              	.LVL10:
 141 0002 FFF7FEBF 		b	test_emit_token
 142              	.LVL11:
 143              		.cfi_endproc
 144              	.LFE10:
 145              		.size	h3, .-h3
 146 0006 00BF     		.section	.text.h2,"ax",%progbits
 147              		.align	2
 148              		.p2align 4,,15
 149              		.thumb
 150              		.thumb_func
 151              		.type	h2, %function
 152              	h2:
 153              	.LFB9:
 154              		.loc 1 81 0
 155              		.cfi_startproc
 156              		@ args = 0, pretend = 0, frame = 0
 157              		@ frame_needed = 0, uses_anonymous_args = 0
 158              		@ link register save eliminated.
 159              	.LVL12:
 160              		.loc 1 81 0
 161 0000 4220     		movs	r0, #66
 162              	.LVL13:
 163 0002 FFF7FEBF 		b	test_emit_token
 164              	.LVL14:
 165              		.cfi_endproc
 166              	.LFE9:
 167              		.size	h2, .-h2
 168 0006 00BF     		.section	.text.h1,"ax",%progbits
 169              		.align	2
 170              		.p2align 4,,15
 171              		.thumb
ARM GAS  /tmp/cc62Brnt.s 			page 4


 172              		.thumb_func
 173              		.type	h1, %function
 174              	h1:
 175              	.LFB8:
 176              		.loc 1 80 0
 177              		.cfi_startproc
 178              		@ args = 0, pretend = 0, frame = 0
 179              		@ frame_needed = 0, uses_anonymous_args = 0
 180              		@ link register save eliminated.
 181              	.LVL15:
 182              		.loc 1 80 0
 183 0000 4120     		movs	r0, #65
 184              	.LVL16:
 185 0002 FFF7FEBF 		b	test_emit_token
 186              	.LVL17:
 187              		.cfi_endproc
 188              	.LFE8:
 189              		.size	h1, .-h1
 190 0006 00BF     		.section	.text.evt3_setup,"ax",%progbits
 191              		.align	2
 192              		.p2align 4,,15
 193              		.thumb
 194              		.thumb_func
 195              		.type	evt3_setup, %function
 196              	evt3_setup:
 197              	.LFB16:
 198              		.loc 1 249 0
 199              		.cfi_startproc
 200              		@ args = 0, pretend = 0, frame = 0
 201              		@ frame_needed = 0, uses_anonymous_args = 0
 202              		@ link register save eliminated.
 203              		.loc 1 251 0
 204 0000 4FF0FF30 		mov	r0, #-1
 205 0004 FFF7FEBF 		b	chEvtGetAndClearEvents
 206              	.LVL18:
 207              		.cfi_endproc
 208              	.LFE16:
 209              		.size	evt3_setup, .-evt3_setup
 210              		.section	.text.evt2_setup,"ax",%progbits
 211              		.align	2
 212              		.p2align 4,,15
 213              		.thumb
 214              		.thumb_func
 215              		.type	evt2_setup, %function
 216              	evt2_setup:
 217              	.LFB20:
 218              		.cfi_startproc
 219              		@ args = 0, pretend = 0, frame = 0
 220              		@ frame_needed = 0, uses_anonymous_args = 0
 221              		@ link register save eliminated.
 222 0000 FFF7FEBF 		b	evt3_setup
 223              		.cfi_endproc
 224              	.LFE20:
 225              		.size	evt2_setup, .-evt2_setup
 226              		.section	.text.evt1_setup,"ax",%progbits
 227              		.align	2
 228              		.p2align 4,,15
ARM GAS  /tmp/cc62Brnt.s 			page 5


 229              		.thumb
 230              		.thumb_func
 231              		.type	evt1_setup, %function
 232              	evt1_setup:
 233              	.LFB22:
 234              		.cfi_startproc
 235              		@ args = 0, pretend = 0, frame = 0
 236              		@ frame_needed = 0, uses_anonymous_args = 0
 237              		@ link register save eliminated.
 238 0000 FFF7FEBF 		b	evt3_setup
 239              		.cfi_endproc
 240              	.LFE22:
 241              		.size	evt1_setup, .-evt1_setup
 242              		.section	.text.evt2_execute,"ax",%progbits
 243              		.align	2
 244              		.p2align 4,,15
 245              		.thumb
 246              		.thumb_func
 247              		.type	evt2_execute, %function
 248              	evt2_execute:
 249              	.LFB15:
 250              		.loc 1 149 0
 251              		.cfi_startproc
 252              		@ args = 0, pretend = 0, frame = 32
 253              		@ frame_needed = 0, uses_anonymous_args = 0
 254              		.loc 1 149 0
 255 0000 2DE9F043 		push	{r4, r5, r6, r7, r8, r9, lr}
 256              		.cfi_def_cfa_offset 28
 257              		.cfi_offset 4, -28
 258              		.cfi_offset 5, -24
 259              		.cfi_offset 6, -20
 260              		.cfi_offset 7, -16
 261              		.cfi_offset 8, -12
 262              		.cfi_offset 9, -8
 263              		.cfi_offset 14, -4
 264              		.loc 1 157 0
 265 0004 0720     		movs	r0, #7
 266              		.loc 1 149 0
 267 0006 8BB0     		sub	sp, sp, #44
 268              		.cfi_def_cfa_offset 72
 269              		.loc 1 157 0
 270 0008 FFF7FEFF 		bl	chEvtAddEvents
 271              	.LVL19:
 272              		.loc 1 158 0
 273 000c 4FF0FF30 		mov	r0, #-1
 274 0010 FFF7FEFF 		bl	chEvtWaitOne
 275              	.LVL20:
 276              		.loc 1 159 0
 277 0014 A0F10101 		sub	r1, r0, #1
 278 0018 B1FA81F1 		clz	r1, r1
 279 001c 4909     		lsrs	r1, r1, #5
 280 001e 0120     		movs	r0, #1
 281              	.LVL21:
 282 0020 FFF7FEFF 		bl	_test_assert
 283              	.LVL22:
 284 0024 10B1     		cbz	r0, .L19
 285              	.L15:
ARM GAS  /tmp/cc62Brnt.s 			page 6


 286              		.loc 1 224 0
 287 0026 0BB0     		add	sp, sp, #44
 288              		.cfi_remember_state
 289              		.cfi_def_cfa_offset 28
 290              		@ sp needed
 291 0028 BDE8F083 		pop	{r4, r5, r6, r7, r8, r9, pc}
 292              	.L19:
 293              		.cfi_restore_state
 294              		.loc 1 160 0
 295 002c 4FF0FF30 		mov	r0, #-1
 296 0030 FFF7FEFF 		bl	chEvtWaitOne
 297              	.LVL23:
 298              		.loc 1 161 0
 299 0034 A0F10201 		sub	r1, r0, #2
 300 0038 B1FA81F1 		clz	r1, r1
 301 003c 4909     		lsrs	r1, r1, #5
 302 003e 0220     		movs	r0, #2
 303              	.LVL24:
 304 0040 FFF7FEFF 		bl	_test_assert
 305              	.LVL25:
 306 0044 0028     		cmp	r0, #0
 307 0046 EED1     		bne	.L15
 308              		.loc 1 162 0
 309 0048 4FF0FF30 		mov	r0, #-1
 310 004c FFF7FEFF 		bl	chEvtWaitOne
 311              	.LVL26:
 312              		.loc 1 163 0
 313 0050 A0F10401 		sub	r1, r0, #4
 314 0054 B1FA81F1 		clz	r1, r1
 315 0058 4909     		lsrs	r1, r1, #5
 316 005a 0320     		movs	r0, #3
 317              	.LVL27:
 318 005c FFF7FEFF 		bl	_test_assert
 319              	.LVL28:
 320 0060 0028     		cmp	r0, #0
 321 0062 E0D1     		bne	.L15
 322              		.loc 1 164 0
 323 0064 4FF0FF30 		mov	r0, #-1
 324 0068 FFF7FEFF 		bl	chEvtGetAndClearEvents
 325              	.LVL29:
 326              		.loc 1 165 0
 327 006c B0FA80F1 		clz	r1, r0
 328 0070 4909     		lsrs	r1, r1, #5
 329 0072 0420     		movs	r0, #4
 330              	.LVL30:
 331 0074 FFF7FEFF 		bl	_test_assert
 332              	.LVL31:
 333 0078 0028     		cmp	r0, #0
 334 007a D4D1     		bne	.L15
 335              		.loc 1 172 0
 336 007c DFF8E481 		ldr	r8, .L20+28
 337              		.loc 1 171 0
 338 0080 714E     		ldr	r6, .L20
 339              		.loc 1 172 0
 340 0082 724D     		ldr	r5, .L20+4
 341              		.loc 1 170 0
 342 0084 FFF7FEFF 		bl	test_wait_tick
ARM GAS  /tmp/cc62Brnt.s 			page 7


 343              	.LVL32:
 344              		.loc 1 172 0
 345 0088 D8F81830 		ldr	r3, [r8, #24]
 346 008c 7049     		ldr	r1, .L20+8
 347 008e 9A68     		ldr	r2, [r3, #8]
 348 0090 0F68     		ldr	r7, [r1]
 349 0092 0093     		str	r3, [sp]
 350 0094 013A     		subs	r2, r2, #1
 351 0096 4FF4A471 		mov	r1, #328
 352 009a 6E4B     		ldr	r3, .L20+12
 353              		.loc 1 171 0
 354 009c F468     		ldr	r4, [r6, #12]
 355              	.LVL33:
 356              		.loc 1 172 0
 357 009e 3846     		mov	r0, r7
 358 00a0 FFF7FEFF 		bl	chThdCreateStatic
 359              	.LVL34:
 360 00a4 2860     		str	r0, [r5]
 361              		.loc 1 174 0
 362 00a6 4FF0FF30 		mov	r0, #-1
 363 00aa FFF7FEFF 		bl	chEvtWaitOne
 364              	.LVL35:
 365              		.loc 1 175 0
 366 00ae 04F13702 		add	r2, r4, #55
 367              		.loc 1 174 0
 368 00b2 8146     		mov	r9, r0
 369              	.LVL36:
 370              		.loc 1 175 0
 371 00b4 04F13201 		add	r1, r4, #50
 372              	.LVL37:
 373 00b8 0520     		movs	r0, #5
 374              	.LVL38:
 375 00ba FFF7FEFF 		bl	_test_assert_time_window
 376              	.LVL39:
 377 00be 0028     		cmp	r0, #0
 378 00c0 B1D1     		bne	.L15
 379              		.loc 1 176 0
 380 00c2 A9F10101 		sub	r1, r9, #1
 381 00c6 B1FA81F1 		clz	r1, r1
 382 00ca 4909     		lsrs	r1, r1, #5
 383 00cc 0620     		movs	r0, #6
 384 00ce FFF7FEFF 		bl	_test_assert
 385              	.LVL40:
 386 00d2 0028     		cmp	r0, #0
 387 00d4 A7D1     		bne	.L15
 388              		.loc 1 177 0
 389 00d6 4FF0FF30 		mov	r0, #-1
 390 00da FFF7FEFF 		bl	chEvtGetAndClearEvents
 391              	.LVL41:
 392              		.loc 1 178 0
 393 00de B0FA80F1 		clz	r1, r0
 394 00e2 4909     		lsrs	r1, r1, #5
 395 00e4 0720     		movs	r0, #7
 396              	.LVL42:
 397 00e6 FFF7FEFF 		bl	_test_assert
 398              	.LVL43:
 399 00ea 0028     		cmp	r0, #0
ARM GAS  /tmp/cc62Brnt.s 			page 8


 400 00ec 9BD1     		bne	.L15
 401              		.loc 1 179 0
 402 00ee FFF7FEFF 		bl	test_wait_threads
 403              	.LVL44:
 404              		.loc 1 184 0
 405 00f2 0520     		movs	r0, #5
 406 00f4 FFF7FEFF 		bl	chEvtAddEvents
 407              	.LVL45:
 408              		.loc 1 185 0
 409 00f8 4FF0FF30 		mov	r0, #-1
 410 00fc FFF7FEFF 		bl	chEvtWaitAny
 411              	.LVL46:
 412              		.loc 1 186 0
 413 0100 441F     		subs	r4, r0, #5
 414              	.LVL47:
 415 0102 6142     		rsbs	r1, r4, #0
 416 0104 6141     		adcs	r1, r1, r4
 417 0106 0820     		movs	r0, #8
 418              	.LVL48:
 419 0108 FFF7FEFF 		bl	_test_assert
 420              	.LVL49:
 421 010c 0028     		cmp	r0, #0
 422 010e 8AD1     		bne	.L15
 423              		.loc 1 187 0
 424 0110 4FF0FF30 		mov	r0, #-1
 425 0114 FFF7FEFF 		bl	chEvtGetAndClearEvents
 426              	.LVL50:
 427              		.loc 1 188 0
 428 0118 B0FA80F1 		clz	r1, r0
 429 011c 4909     		lsrs	r1, r1, #5
 430 011e 0920     		movs	r0, #9
 431              	.LVL51:
 432 0120 FFF7FEFF 		bl	_test_assert
 433              	.LVL52:
 434 0124 0028     		cmp	r0, #0
 435 0126 7FF47EAF 		bne	.L15
 436              		.loc 1 193 0
 437 012a FFF7FEFF 		bl	test_wait_tick
 438              	.LVL53:
 439              		.loc 1 195 0
 440 012e D8F81810 		ldr	r1, [r8, #24]
 441 0132 484B     		ldr	r3, .L20+12
 442 0134 8A68     		ldr	r2, [r1, #8]
 443 0136 0091     		str	r1, [sp]
 444 0138 013A     		subs	r2, r2, #1
 445 013a 4FF4A471 		mov	r1, #328
 446 013e 3846     		mov	r0, r7
 447              		.loc 1 194 0
 448 0140 F468     		ldr	r4, [r6, #12]
 449              	.LVL54:
 450              		.loc 1 195 0
 451 0142 FFF7FEFF 		bl	chThdCreateStatic
 452              	.LVL55:
 453 0146 2860     		str	r0, [r5]
 454              		.loc 1 197 0
 455 0148 4FF0FF30 		mov	r0, #-1
 456 014c FFF7FEFF 		bl	chEvtWaitAny
ARM GAS  /tmp/cc62Brnt.s 			page 9


 457              	.LVL56:
 458              		.loc 1 198 0
 459 0150 04F13702 		add	r2, r4, #55
 460              		.loc 1 197 0
 461 0154 8146     		mov	r9, r0
 462              	.LVL57:
 463              		.loc 1 198 0
 464 0156 04F13201 		add	r1, r4, #50
 465              	.LVL58:
 466 015a 0A20     		movs	r0, #10
 467              	.LVL59:
 468 015c FFF7FEFF 		bl	_test_assert_time_window
 469              	.LVL60:
 470 0160 0028     		cmp	r0, #0
 471 0162 7FF460AF 		bne	.L15
 472              		.loc 1 199 0
 473 0166 09F1FF30 		add	r0, r9, #-1
 474 016a 4142     		rsbs	r1, r0, #0
 475 016c 4141     		adcs	r1, r1, r0
 476 016e 0B20     		movs	r0, #11
 477 0170 FFF7FEFF 		bl	_test_assert
 478              	.LVL61:
 479 0174 0028     		cmp	r0, #0
 480 0176 7FF456AF 		bne	.L15
 481              		.loc 1 200 0
 482 017a 4FF0FF30 		mov	r0, #-1
 483 017e FFF7FEFF 		bl	chEvtGetAndClearEvents
 484              	.LVL62:
 485              		.loc 1 201 0
 486 0182 B0FA80F1 		clz	r1, r0
 487 0186 4909     		lsrs	r1, r1, #5
 488 0188 0C20     		movs	r0, #12
 489              	.LVL63:
 490 018a FFF7FEFF 		bl	_test_assert
 491              	.LVL64:
 492 018e 0028     		cmp	r0, #0
 493 0190 7FF449AF 		bne	.L15
 494              		.loc 1 207 0
 495 0194 DFF8D090 		ldr	r9, .L20+32
 496              		.loc 1 208 0
 497 0198 2F4C     		ldr	r4, .L20+16
 498              	.LVL65:
 499              		.loc 1 202 0
 500 019a FFF7FEFF 		bl	test_wait_threads
 501              	.LVL66:
 502              		.loc 1 209 0
 503 019e 4846     		mov	r0, r9
 504 01a0 02A9     		add	r1, sp, #8
 505 01a2 0122     		movs	r2, #1
 506              		.loc 1 207 0
 507 01a4 C9F80090 		str	r9, [r9]
 508              		.loc 1 208 0
 509 01a8 2460     		str	r4, [r4]
 510              		.loc 1 209 0
 511 01aa FFF7FEFF 		bl	chEvtRegisterMask
 512              	.LVL67:
 513              		.loc 1 210 0
ARM GAS  /tmp/cc62Brnt.s 			page 10


 514 01ae 06A9     		add	r1, sp, #24
 515 01b0 0422     		movs	r2, #4
 516 01b2 2046     		mov	r0, r4
 517 01b4 FFF7FEFF 		bl	chEvtRegisterMask
 518              	.LVL68:
 519              		.loc 1 211 0
 520 01b8 FFF7FEFF 		bl	test_wait_tick
 521              	.LVL69:
 522              		.loc 1 213 0
 523 01bc D8F81830 		ldr	r3, [r8, #24]
 524 01c0 2649     		ldr	r1, .L20+20
 525 01c2 9A68     		ldr	r2, [r3, #8]
 526 01c4 0091     		str	r1, [sp]
 527 01c6 013A     		subs	r2, r2, #1
 528 01c8 4FF4A471 		mov	r1, #328
 529 01cc 244B     		ldr	r3, .L20+24
 530              		.loc 1 212 0
 531 01ce F668     		ldr	r6, [r6, #12]
 532              	.LVL70:
 533              		.loc 1 213 0
 534 01d0 3846     		mov	r0, r7
 535 01d2 FFF7FEFF 		bl	chThdCreateStatic
 536              	.LVL71:
 537 01d6 2860     		str	r0, [r5]
 538              		.loc 1 215 0
 539 01d8 0520     		movs	r0, #5
 540 01da FFF7FEFF 		bl	chEvtWaitAll
 541              	.LVL72:
 542              		.loc 1 216 0
 543 01de 06F13702 		add	r2, r6, #55
 544 01e2 06F13201 		add	r1, r6, #50
 545              	.LVL73:
 546 01e6 0D20     		movs	r0, #13
 547 01e8 FFF7FEFF 		bl	_test_assert_time_window
 548              	.LVL74:
 549 01ec 0028     		cmp	r0, #0
 550 01ee 7FF41AAF 		bne	.L15
 551              		.loc 1 217 0
 552 01f2 4FF0FF30 		mov	r0, #-1
 553 01f6 FFF7FEFF 		bl	chEvtGetAndClearEvents
 554              	.LVL75:
 555              		.loc 1 218 0
 556 01fa B0FA80F1 		clz	r1, r0
 557 01fe 4909     		lsrs	r1, r1, #5
 558 0200 0E20     		movs	r0, #14
 559              	.LVL76:
 560 0202 FFF7FEFF 		bl	_test_assert
 561              	.LVL77:
 562 0206 0028     		cmp	r0, #0
 563 0208 7FF40DAF 		bne	.L15
 564              		.loc 1 219 0
 565 020c FFF7FEFF 		bl	test_wait_threads
 566              	.LVL78:
 567              		.loc 1 220 0
 568 0210 02A9     		add	r1, sp, #8
 569 0212 4846     		mov	r0, r9
 570 0214 FFF7FEFF 		bl	chEvtUnregister
ARM GAS  /tmp/cc62Brnt.s 			page 11


 571              	.LVL79:
 572              		.loc 1 221 0
 573 0218 06A9     		add	r1, sp, #24
 574 021a 2046     		mov	r0, r4
 575 021c FFF7FEFF 		bl	chEvtUnregister
 576              	.LVL80:
 577              		.loc 1 222 0
 578 0220 D9F80010 		ldr	r1, [r9]
 579 0224 C9EB0102 		rsb	r2, r9, r1
 580 0228 5142     		rsbs	r1, r2, #0
 581 022a 5141     		adcs	r1, r1, r2
 582 022c 0F20     		movs	r0, #15
 583 022e FFF7FEFF 		bl	_test_assert
 584              	.LVL81:
 585 0232 0028     		cmp	r0, #0
 586 0234 7FF4F7AE 		bne	.L15
 587              		.loc 1 223 0
 588 0238 2168     		ldr	r1, [r4]
 589 023a 0B1B     		subs	r3, r1, r4
 590 023c 5942     		rsbs	r1, r3, #0
 591 023e 5941     		adcs	r1, r1, r3
 592 0240 1020     		movs	r0, #16
 593 0242 FFF7FEFF 		bl	_test_assert
 594              	.LVL82:
 595 0246 EEE6     		b	.L15
 596              	.L21:
 597              		.align	2
 598              	.L20:
 599 0248 00000000 		.word	vtlist
 600 024c 00000000 		.word	threads
 601 0250 00000000 		.word	wa
 602 0254 00000000 		.word	thread1
 603 0258 00000000 		.word	.LANCHOR2
 604 025c 04000000 		.word	.LC1
 605 0260 00000000 		.word	thread2
 606 0264 00000000 		.word	rlist
 607 0268 00000000 		.word	.LANCHOR0
 608              		.cfi_endproc
 609              	.LFE15:
 610              		.size	evt2_execute, .-evt2_execute
 611              		.section	.text.thread2,"ax",%progbits
 612              		.align	2
 613              		.p2align 4,,15
 614              		.thumb
 615              		.thumb_func
 616              		.type	thread2, %function
 617              	thread2:
 618              	.LFB14:
 619              		.loc 1 140 0
 620              		.cfi_startproc
 621              		@ args = 0, pretend = 0, frame = 0
 622              		@ frame_needed = 0, uses_anonymous_args = 0
 623              	.LVL83:
 624 0000 08B5     		push	{r3, lr}
 625              		.cfi_def_cfa_offset 8
 626              		.cfi_offset 3, -8
 627              		.cfi_offset 14, -4
ARM GAS  /tmp/cc62Brnt.s 			page 12


 628              		.loc 1 143 0
 629 0002 0021     		movs	r1, #0
 630 0004 0548     		ldr	r0, .L24
 631              	.LVL84:
 632 0006 FFF7FEFF 		bl	chEvtBroadcastFlags
 633              	.LVL85:
 634              		.loc 1 144 0
 635 000a 3220     		movs	r0, #50
 636 000c FFF7FEFF 		bl	chThdSleep
 637              	.LVL86:
 638              		.loc 1 145 0
 639 0010 0021     		movs	r1, #0
 640 0012 0348     		ldr	r0, .L24+4
 641 0014 FFF7FEFF 		bl	chEvtBroadcastFlags
 642              	.LVL87:
 643              		.loc 1 147 0
 644 0018 0020     		movs	r0, #0
 645 001a 08BD     		pop	{r3, pc}
 646              	.L25:
 647              		.align	2
 648              	.L24:
 649 001c 00000000 		.word	.LANCHOR0
 650 0020 00000000 		.word	.LANCHOR2
 651              		.cfi_endproc
 652              	.LFE14:
 653              		.size	thread2, .-thread2
 654              		.section	.text.thread1,"ax",%progbits
 655              		.align	2
 656              		.p2align 4,,15
 657              		.thumb
 658              		.thumb_func
 659              		.type	thread1, %function
 660              	thread1:
 661              	.LFB13:
 662              		.loc 1 133 0
 663              		.cfi_startproc
 664              		@ args = 0, pretend = 0, frame = 0
 665              		@ frame_needed = 0, uses_anonymous_args = 0
 666              	.LVL88:
 667 0000 10B5     		push	{r4, lr}
 668              		.cfi_def_cfa_offset 8
 669              		.cfi_offset 4, -8
 670              		.cfi_offset 14, -4
 671              		.loc 1 133 0
 672 0002 0446     		mov	r4, r0
 673              		.loc 1 135 0
 674 0004 3220     		movs	r0, #50
 675              	.LVL89:
 676 0006 FFF7FEFF 		bl	chThdSleep
 677              	.LVL90:
 678              		.loc 1 136 0
 679 000a 2046     		mov	r0, r4
 680 000c 0121     		movs	r1, #1
 681 000e FFF7FEFF 		bl	chEvtSignal
 682              	.LVL91:
 683              		.loc 1 138 0
 684 0012 0020     		movs	r0, #0
ARM GAS  /tmp/cc62Brnt.s 			page 13


 685 0014 10BD     		pop	{r4, pc}
 686              		.cfi_endproc
 687              	.LFE13:
 688              		.size	thread1, .-thread1
 689 0016 00BF     		.section	.text.evt3_execute,"ax",%progbits
 690              		.align	2
 691              		.p2align 4,,15
 692              		.thumb
 693              		.thumb_func
 694              		.type	evt3_execute, %function
 695              	evt3_execute:
 696              	.LFB17:
 697              		.loc 1 254 0
 698              		.cfi_startproc
 699              		@ args = 0, pretend = 0, frame = 0
 700              		@ frame_needed = 0, uses_anonymous_args = 0
 701 0000 08B5     		push	{r3, lr}
 702              		.cfi_def_cfa_offset 8
 703              		.cfi_offset 3, -8
 704              		.cfi_offset 14, -4
 705              		.loc 1 260 0
 706 0002 0021     		movs	r1, #0
 707 0004 4FF0FF30 		mov	r0, #-1
 708 0008 FFF7FEFF 		bl	chEvtWaitOneTimeout
 709              	.LVL92:
 710              		.loc 1 261 0
 711 000c B0FA80F1 		clz	r1, r0
 712 0010 4909     		lsrs	r1, r1, #5
 713 0012 0120     		movs	r0, #1
 714              	.LVL93:
 715 0014 FFF7FEFF 		bl	_test_assert
 716              	.LVL94:
 717 0018 00B1     		cbz	r0, .L33
 718              	.L28:
 719 001a 08BD     		pop	{r3, pc}
 720              	.L33:
 721              		.loc 1 262 0
 722 001c 0146     		mov	r1, r0
 723 001e 4FF0FF30 		mov	r0, #-1
 724 0022 FFF7FEFF 		bl	chEvtWaitAnyTimeout
 725              	.LVL95:
 726              		.loc 1 263 0
 727 0026 B0FA80F1 		clz	r1, r0
 728 002a 4909     		lsrs	r1, r1, #5
 729 002c 0220     		movs	r0, #2
 730              	.LVL96:
 731 002e FFF7FEFF 		bl	_test_assert
 732              	.LVL97:
 733 0032 0028     		cmp	r0, #0
 734 0034 F1D1     		bne	.L28
 735              		.loc 1 264 0
 736 0036 0146     		mov	r1, r0
 737 0038 4FF0FF30 		mov	r0, #-1
 738 003c FFF7FEFF 		bl	chEvtWaitAllTimeout
 739              	.LVL98:
 740              		.loc 1 265 0
 741 0040 B0FA80F1 		clz	r1, r0
ARM GAS  /tmp/cc62Brnt.s 			page 14


 742 0044 4909     		lsrs	r1, r1, #5
 743 0046 0320     		movs	r0, #3
 744              	.LVL99:
 745 0048 FFF7FEFF 		bl	_test_assert
 746              	.LVL100:
 747 004c 0028     		cmp	r0, #0
 748 004e E4D1     		bne	.L28
 749              	.LBB4:
 750              	.LBB5:
 751              		.loc 1 266 0
 752 0050 0A21     		movs	r1, #10
 753 0052 4FF0FF30 		mov	r0, #-1
 754 0056 FFF7FEFF 		bl	chEvtWaitOneTimeout
 755              	.LVL101:
 756              		.loc 1 267 0
 757 005a B0FA80F1 		clz	r1, r0
 758 005e 4909     		lsrs	r1, r1, #5
 759 0060 0420     		movs	r0, #4
 760              	.LVL102:
 761 0062 FFF7FEFF 		bl	_test_assert
 762              	.LVL103:
 763 0066 0028     		cmp	r0, #0
 764 0068 D7D1     		bne	.L28
 765              		.loc 1 268 0
 766 006a 0A21     		movs	r1, #10
 767 006c 4FF0FF30 		mov	r0, #-1
 768 0070 FFF7FEFF 		bl	chEvtWaitAnyTimeout
 769              	.LVL104:
 770              		.loc 1 269 0
 771 0074 B0FA80F1 		clz	r1, r0
 772 0078 4909     		lsrs	r1, r1, #5
 773 007a 0520     		movs	r0, #5
 774              	.LVL105:
 775 007c FFF7FEFF 		bl	_test_assert
 776              	.LVL106:
 777 0080 0028     		cmp	r0, #0
 778 0082 CAD1     		bne	.L28
 779              		.loc 1 270 0
 780 0084 0A21     		movs	r1, #10
 781 0086 4FF0FF30 		mov	r0, #-1
 782 008a FFF7FEFF 		bl	chEvtWaitAllTimeout
 783              	.LVL107:
 784              		.loc 1 271 0
 785 008e B0FA80F1 		clz	r1, r0
 786 0092 4909     		lsrs	r1, r1, #5
 787 0094 0620     		movs	r0, #6
 788              	.LVL108:
 789              	.LBE5:
 790              	.LBE4:
 791              		.loc 1 272 0
 792 0096 BDE80840 		pop	{r3, lr}
 793              		.cfi_restore 14
 794              		.cfi_restore 3
 795              		.cfi_def_cfa_offset 0
 796              	.LBB7:
 797              	.LBB6:
 798              		.loc 1 271 0
ARM GAS  /tmp/cc62Brnt.s 			page 15


 799 009a FFF7FEBF 		b	_test_assert
 800              	.LVL109:
 801              	.LBE6:
 802              	.LBE7:
 803              		.cfi_endproc
 804              	.LFE17:
 805              		.size	evt3_execute, .-evt3_execute
 806              		.global	patternevt
 807              		.global	testevt3
 808              		.global	testevt2
 809              		.global	testevt1
 810 009e 00BF     		.section	.rodata.patternevt,"a",%progbits
 811              		.align	2
 812              		.type	patternevt, %object
 813              		.size	patternevt, 16
 814              	patternevt:
 815 0000 00000000 		.word	testevt1
 816 0004 00000000 		.word	testevt2
 817 0008 00000000 		.word	testevt3
 818 000c 00000000 		.word	0
 819              		.section	.rodata.testevt2,"a",%progbits
 820              		.align	2
 821              		.type	testevt2, %object
 822              		.size	testevt2, 16
 823              	testevt2:
 824 0000 1C000000 		.word	.LC3
 825 0004 00000000 		.word	evt2_setup
 826 0008 00000000 		.word	0
 827 000c 00000000 		.word	evt2_execute
 828              		.section	.rodata.str1.4,"aMS",%progbits,1
 829              		.align	2
 830              	.LC0:
 831 0000 41424300 		.ascii	"ABC\000"
 832              	.LC1:
 833 0004 4100     		.ascii	"A\000"
 834 0006 0000     		.space	2
 835              	.LC2:
 836 0008 4576656E 		.ascii	"Events, timeouts\000"
 836      74732C20 
 836      74696D65 
 836      6F757473 
 836      00
 837 0019 000000   		.space	3
 838              	.LC3:
 839 001c 4576656E 		.ascii	"Events, wait and broadcast\000"
 839      74732C20 
 839      77616974 
 839      20616E64 
 839      2062726F 
 840 0037 00       		.space	1
 841              	.LC4:
 842 0038 4576656E 		.ascii	"Events, registration and dispatch\000"
 842      74732C20 
 842      72656769 
 842      73747261 
 842      74696F6E 
 843              		.section	.rodata.testevt1,"a",%progbits
ARM GAS  /tmp/cc62Brnt.s 			page 16


 844              		.align	2
 845              		.type	testevt1, %object
 846              		.size	testevt1, 16
 847              	testevt1:
 848 0000 38000000 		.word	.LC4
 849 0004 00000000 		.word	evt1_setup
 850 0008 00000000 		.word	0
 851 000c 00000000 		.word	evt1_execute
 852              		.section	.rodata.evhndl,"a",%progbits
 853              		.align	2
 854              		.set	.LANCHOR1,. + 0
 855              		.type	evhndl, %object
 856              		.size	evhndl, 12
 857              	evhndl:
 858 0000 00000000 		.word	h1
 859 0004 00000000 		.word	h2
 860 0008 00000000 		.word	h3
 861              		.section	.rodata.testevt3,"a",%progbits
 862              		.align	2
 863              		.type	testevt3, %object
 864              		.size	testevt3, 16
 865              	testevt3:
 866 0000 08000000 		.word	.LC2
 867 0004 00000000 		.word	evt3_setup
 868 0008 00000000 		.word	0
 869 000c 00000000 		.word	evt3_execute
 870              		.section	.data.es1,"aw",%progbits
 871              		.align	2
 872              		.set	.LANCHOR0,. + 0
 873              		.type	es1, %object
 874              		.size	es1, 4
 875              	es1:
 876 0000 00000000 		.word	es1
 877              		.section	.data.es2,"aw",%progbits
 878              		.align	2
 879              		.set	.LANCHOR2,. + 0
 880              		.type	es2, %object
 881              		.size	es2, 4
 882              	es2:
 883 0000 00000000 		.word	es2
 884              		.text
 885              	.Letext0:
 886              		.file 2 "/usr/local/gcc-arm-none-eabi-5_4-2016q3/arm-none-eabi/include/machine/_default_types.h"
 887              		.file 3 "/usr/local/gcc-arm-none-eabi-5_4-2016q3/arm-none-eabi/include/sys/_stdint.h"
 888              		.file 4 "../ChibiOS_2.6.9/os/ports/GCC/ARMCMx/chtypes.h"
 889              		.file 5 "../ChibiOS_2.6.9/os/kernel/include/chlists.h"
 890              		.file 6 "../ChibiOS_2.6.9/os/kernel/include/chthreads.h"
 891              		.file 7 "../ChibiOS_2.6.9/os/ports/GCC/ARMCMx/chcore_v7m.h"
 892              		.file 8 "../ChibiOS_2.6.9/os/kernel/include/chvt.h"
 893              		.file 9 "../ChibiOS_2.6.9/os/kernel/include/chschd.h"
 894              		.file 10 "../ChibiOS_2.6.9/os/kernel/include/chmtx.h"
 895              		.file 11 "../ChibiOS_2.6.9/os/kernel/include/chevents.h"
 896              		.file 12 "../ChibiOS_2.6.9/test/test.h"
 897              		.section	.debug_info,"",%progbits
 898              	.Ldebug_info0:
 899 0000 460F0000 		.4byte	0xf46
 900 0004 0400     		.2byte	0x4
ARM GAS  /tmp/cc62Brnt.s 			page 17


 901 0006 00000000 		.4byte	.Ldebug_abbrev0
 902 000a 04       		.byte	0x4
 903 000b 01       		.uleb128 0x1
 904 000c 2B000000 		.4byte	.LASF125
 905 0010 0C       		.byte	0xc
 906 0011 7D030000 		.4byte	.LASF126
 907 0015 96050000 		.4byte	.LASF127
 908 0019 18000000 		.4byte	.Ldebug_ranges0+0x18
 909 001d 00000000 		.4byte	0
 910 0021 00000000 		.4byte	.Ldebug_line0
 911 0025 02       		.uleb128 0x2
 912 0026 04       		.byte	0x4
 913 0027 05       		.byte	0x5
 914 0028 696E7400 		.ascii	"int\000"
 915 002c 03       		.uleb128 0x3
 916 002d 04       		.byte	0x4
 917 002e 07       		.byte	0x7
 918 002f 64020000 		.4byte	.LASF0
 919 0033 03       		.uleb128 0x3
 920 0034 08       		.byte	0x8
 921 0035 05       		.byte	0x5
 922 0036 5C010000 		.4byte	.LASF1
 923 003a 03       		.uleb128 0x3
 924 003b 08       		.byte	0x8
 925 003c 04       		.byte	0x4
 926 003d 58030000 		.4byte	.LASF2
 927 0041 03       		.uleb128 0x3
 928 0042 01       		.byte	0x1
 929 0043 06       		.byte	0x6
 930 0044 6A010000 		.4byte	.LASF3
 931 0048 04       		.uleb128 0x4
 932 0049 0E000000 		.4byte	.LASF7
 933 004d 02       		.byte	0x2
 934 004e 1D       		.byte	0x1d
 935 004f 53000000 		.4byte	0x53
 936 0053 03       		.uleb128 0x3
 937 0054 01       		.byte	0x1
 938 0055 08       		.byte	0x8
 939 0056 38040000 		.4byte	.LASF4
 940 005a 03       		.uleb128 0x3
 941 005b 02       		.byte	0x2
 942 005c 05       		.byte	0x5
 943 005d 7F040000 		.4byte	.LASF5
 944 0061 03       		.uleb128 0x3
 945 0062 02       		.byte	0x2
 946 0063 07       		.byte	0x7
 947 0064 C4020000 		.4byte	.LASF6
 948 0068 04       		.uleb128 0x4
 949 0069 3C050000 		.4byte	.LASF8
 950 006d 02       		.byte	0x2
 951 006e 3F       		.byte	0x3f
 952 006f 73000000 		.4byte	0x73
 953 0073 03       		.uleb128 0x3
 954 0074 04       		.byte	0x4
 955 0075 05       		.byte	0x5
 956 0076 B4010000 		.4byte	.LASF9
 957 007a 04       		.uleb128 0x4
ARM GAS  /tmp/cc62Brnt.s 			page 18


 958 007b 12020000 		.4byte	.LASF10
 959 007f 02       		.byte	0x2
 960 0080 41       		.byte	0x41
 961 0081 85000000 		.4byte	0x85
 962 0085 03       		.uleb128 0x3
 963 0086 04       		.byte	0x4
 964 0087 07       		.byte	0x7
 965 0088 79020000 		.4byte	.LASF11
 966 008c 03       		.uleb128 0x3
 967 008d 08       		.byte	0x8
 968 008e 07       		.byte	0x7
 969 008f 05010000 		.4byte	.LASF12
 970 0093 04       		.uleb128 0x4
 971 0094 BF050000 		.4byte	.LASF13
 972 0098 03       		.byte	0x3
 973 0099 18       		.byte	0x18
 974 009a 48000000 		.4byte	0x48
 975 009e 04       		.uleb128 0x4
 976 009f 30040000 		.4byte	.LASF14
 977 00a3 03       		.byte	0x3
 978 00a4 2C       		.byte	0x2c
 979 00a5 68000000 		.4byte	0x68
 980 00a9 04       		.uleb128 0x4
 981 00aa EB040000 		.4byte	.LASF15
 982 00ae 03       		.byte	0x3
 983 00af 30       		.byte	0x30
 984 00b0 7A000000 		.4byte	0x7a
 985 00b4 03       		.uleb128 0x3
 986 00b5 01       		.byte	0x1
 987 00b6 02       		.byte	0x2
 988 00b7 2A040000 		.4byte	.LASF16
 989 00bb 04       		.uleb128 0x4
 990 00bc 0F030000 		.4byte	.LASF17
 991 00c0 04       		.byte	0x4
 992 00c1 2C       		.byte	0x2c
 993 00c2 93000000 		.4byte	0x93
 994 00c6 04       		.uleb128 0x4
 995 00c7 C9010000 		.4byte	.LASF18
 996 00cb 04       		.byte	0x4
 997 00cc 2D       		.byte	0x2d
 998 00cd 93000000 		.4byte	0x93
 999 00d1 04       		.uleb128 0x4
 1000 00d2 0B040000 		.4byte	.LASF19
 1001 00d6 04       		.byte	0x4
 1002 00d7 2E       		.byte	0x2e
 1003 00d8 93000000 		.4byte	0x93
 1004 00dc 04       		.uleb128 0x4
 1005 00dd AA010000 		.4byte	.LASF20
 1006 00e1 04       		.byte	0x4
 1007 00e2 2F       		.byte	0x2f
 1008 00e3 93000000 		.4byte	0x93
 1009 00e7 04       		.uleb128 0x4
 1010 00e8 22040000 		.4byte	.LASF21
 1011 00ec 04       		.byte	0x4
 1012 00ed 30       		.byte	0x30
 1013 00ee A9000000 		.4byte	0xa9
 1014 00f2 04       		.uleb128 0x4
ARM GAS  /tmp/cc62Brnt.s 			page 19


 1015 00f3 E9020000 		.4byte	.LASF22
 1016 00f7 04       		.byte	0x4
 1017 00f8 31       		.byte	0x31
 1018 00f9 9E000000 		.4byte	0x9e
 1019 00fd 04       		.uleb128 0x4
 1020 00fe 42020000 		.4byte	.LASF23
 1021 0102 04       		.byte	0x4
 1022 0103 32       		.byte	0x32
 1023 0104 9E000000 		.4byte	0x9e
 1024 0108 04       		.uleb128 0x4
 1025 0109 23030000 		.4byte	.LASF24
 1026 010d 04       		.byte	0x4
 1027 010e 33       		.byte	0x33
 1028 010f A9000000 		.4byte	0xa9
 1029 0113 04       		.uleb128 0x4
 1030 0114 67050000 		.4byte	.LASF25
 1031 0118 04       		.byte	0x4
 1032 0119 34       		.byte	0x34
 1033 011a A9000000 		.4byte	0xa9
 1034 011e 04       		.uleb128 0x4
 1035 011f 27050000 		.4byte	.LASF26
 1036 0123 04       		.byte	0x4
 1037 0124 35       		.byte	0x35
 1038 0125 A9000000 		.4byte	0xa9
 1039 0129 04       		.uleb128 0x4
 1040 012a C0040000 		.4byte	.LASF27
 1041 012e 05       		.byte	0x5
 1042 012f 2A       		.byte	0x2a
 1043 0130 34010000 		.4byte	0x134
 1044 0134 05       		.uleb128 0x5
 1045 0135 C0040000 		.4byte	.LASF27
 1046 0139 44       		.byte	0x44
 1047 013a 06       		.byte	0x6
 1048 013b 5E       		.byte	0x5e
 1049 013c 25020000 		.4byte	0x225
 1050 0140 06       		.uleb128 0x6
 1051 0141 B1040000 		.4byte	.LASF28
 1052 0145 06       		.byte	0x6
 1053 0146 5F       		.byte	0x5f
 1054 0147 46020000 		.4byte	0x246
 1055 014b 00       		.byte	0
 1056 014c 06       		.uleb128 0x6
 1057 014d 13040000 		.4byte	.LASF29
 1058 0151 06       		.byte	0x6
 1059 0152 61       		.byte	0x61
 1060 0153 46020000 		.4byte	0x246
 1061 0157 04       		.byte	0x4
 1062 0158 06       		.uleb128 0x6
 1063 0159 48010000 		.4byte	.LASF30
 1064 015d 06       		.byte	0x6
 1065 015e 63       		.byte	0x63
 1066 015f E7000000 		.4byte	0xe7
 1067 0163 08       		.byte	0x8
 1068 0164 06       		.uleb128 0x6
 1069 0165 42060000 		.4byte	.LASF31
 1070 0169 06       		.byte	0x6
 1071 016a 64       		.byte	0x64
ARM GAS  /tmp/cc62Brnt.s 			page 20


 1072 016b 00030000 		.4byte	0x300
 1073 016f 0C       		.byte	0xc
 1074 0170 06       		.uleb128 0x6
 1075 0171 0A020000 		.4byte	.LASF32
 1076 0175 06       		.byte	0x6
 1077 0176 66       		.byte	0x66
 1078 0177 46020000 		.4byte	0x246
 1079 017b 10       		.byte	0x10
 1080 017c 06       		.uleb128 0x6
 1081 017d 9D030000 		.4byte	.LASF33
 1082 0181 06       		.byte	0x6
 1083 0182 67       		.byte	0x67
 1084 0183 46020000 		.4byte	0x246
 1085 0187 14       		.byte	0x14
 1086 0188 06       		.uleb128 0x6
 1087 0189 F0050000 		.4byte	.LASF34
 1088 018d 06       		.byte	0x6
 1089 018e 6E       		.byte	0x6e
 1090 018f 48050000 		.4byte	0x548
 1091 0193 18       		.byte	0x18
 1092 0194 06       		.uleb128 0x6
 1093 0195 89040000 		.4byte	.LASF35
 1094 0199 06       		.byte	0x6
 1095 019a 79       		.byte	0x79
 1096 019b C6000000 		.4byte	0xc6
 1097 019f 1C       		.byte	0x1c
 1098 01a0 06       		.uleb128 0x6
 1099 01a1 B8040000 		.4byte	.LASF36
 1100 01a5 06       		.byte	0x6
 1101 01a6 7D       		.byte	0x7d
 1102 01a7 BB000000 		.4byte	0xbb
 1103 01ab 1D       		.byte	0x1d
 1104 01ac 06       		.uleb128 0x6
 1105 01ad 85050000 		.4byte	.LASF37
 1106 01b1 06       		.byte	0x6
 1107 01b2 82       		.byte	0x82
 1108 01b3 D1000000 		.4byte	0xd1
 1109 01b7 1E       		.byte	0x1e
 1110 01b8 06       		.uleb128 0x6
 1111 01b9 91040000 		.4byte	.LASF38
 1112 01bd 06       		.byte	0x6
 1113 01be 88       		.byte	0x88
 1114 01bf DC000000 		.4byte	0xdc
 1115 01c3 1F       		.byte	0x1f
 1116 01c4 07       		.uleb128 0x7
 1117 01c5 705F7500 		.ascii	"p_u\000"
 1118 01c9 06       		.byte	0x6
 1119 01ca B4       		.byte	0xb4
 1120 01cb 13050000 		.4byte	0x513
 1121 01cf 20       		.byte	0x20
 1122 01d0 06       		.uleb128 0x6
 1123 01d1 48060000 		.4byte	.LASF39
 1124 01d5 06       		.byte	0x6
 1125 01d6 B9       		.byte	0xb9
 1126 01d7 6C020000 		.4byte	0x26c
 1127 01db 24       		.byte	0x24
 1128 01dc 06       		.uleb128 0x6
ARM GAS  /tmp/cc62Brnt.s 			page 21


 1129 01dd 55050000 		.4byte	.LASF40
 1130 01e1 06       		.byte	0x6
 1131 01e2 BF       		.byte	0xbf
 1132 01e3 4C020000 		.4byte	0x24c
 1133 01e7 28       		.byte	0x28
 1134 01e8 06       		.uleb128 0x6
 1135 01e9 00000000 		.4byte	.LASF41
 1136 01ed 06       		.byte	0x6
 1137 01ee C3       		.byte	0xc3
 1138 01ef F2000000 		.4byte	0xf2
 1139 01f3 30       		.byte	0x30
 1140 01f4 06       		.uleb128 0x6
 1141 01f5 D0040000 		.4byte	.LASF42
 1142 01f9 06       		.byte	0x6
 1143 01fa C9       		.byte	0xc9
 1144 01fb 08010000 		.4byte	0x108
 1145 01ff 34       		.byte	0x34
 1146 0200 06       		.uleb128 0x6
 1147 0201 75040000 		.4byte	.LASF43
 1148 0205 06       		.byte	0x6
 1149 0206 D0       		.byte	0xd0
 1150 0207 5A050000 		.4byte	0x55a
 1151 020b 38       		.byte	0x38
 1152 020c 06       		.uleb128 0x6
 1153 020d 31050000 		.4byte	.LASF44
 1154 0211 06       		.byte	0x6
 1155 0212 D4       		.byte	0xd4
 1156 0213 E7000000 		.4byte	0xe7
 1157 0217 3C       		.byte	0x3c
 1158 0218 06       		.uleb128 0x6
 1159 0219 8A010000 		.4byte	.LASF45
 1160 021d 06       		.byte	0x6
 1161 021e DA       		.byte	0xda
 1162 021f 82020000 		.4byte	0x282
 1163 0223 40       		.byte	0x40
 1164 0224 00       		.byte	0
 1165 0225 08       		.uleb128 0x8
 1166 0226 08       		.byte	0x8
 1167 0227 05       		.byte	0x5
 1168 0228 61       		.byte	0x61
 1169 0229 46020000 		.4byte	0x246
 1170 022d 06       		.uleb128 0x6
 1171 022e B1040000 		.4byte	.LASF28
 1172 0232 05       		.byte	0x5
 1173 0233 62       		.byte	0x62
 1174 0234 46020000 		.4byte	0x246
 1175 0238 00       		.byte	0
 1176 0239 06       		.uleb128 0x6
 1177 023a 13040000 		.4byte	.LASF29
 1178 023e 05       		.byte	0x5
 1179 023f 64       		.byte	0x64
 1180 0240 46020000 		.4byte	0x246
 1181 0244 04       		.byte	0x4
 1182 0245 00       		.byte	0
 1183 0246 09       		.uleb128 0x9
 1184 0247 04       		.byte	0x4
 1185 0248 29010000 		.4byte	0x129
ARM GAS  /tmp/cc62Brnt.s 			page 22


 1186 024c 04       		.uleb128 0x4
 1187 024d BB030000 		.4byte	.LASF46
 1188 0251 05       		.byte	0x5
 1189 0252 66       		.byte	0x66
 1190 0253 25020000 		.4byte	0x225
 1191 0257 08       		.uleb128 0x8
 1192 0258 04       		.byte	0x4
 1193 0259 05       		.byte	0x5
 1194 025a 6B       		.byte	0x6b
 1195 025b 6C020000 		.4byte	0x26c
 1196 025f 06       		.uleb128 0x6
 1197 0260 B1040000 		.4byte	.LASF28
 1198 0264 05       		.byte	0x5
 1199 0265 6D       		.byte	0x6d
 1200 0266 46020000 		.4byte	0x246
 1201 026a 00       		.byte	0
 1202 026b 00       		.byte	0
 1203 026c 04       		.uleb128 0x4
 1204 026d 17030000 		.4byte	.LASF47
 1205 0271 05       		.byte	0x5
 1206 0272 70       		.byte	0x70
 1207 0273 57020000 		.4byte	0x257
 1208 0277 04       		.uleb128 0x4
 1209 0278 1D020000 		.4byte	.LASF48
 1210 027c 07       		.byte	0x7
 1211 027d E5       		.byte	0xe5
 1212 027e 82020000 		.4byte	0x282
 1213 0282 0A       		.uleb128 0xa
 1214 0283 04       		.byte	0x4
 1215 0284 0B       		.uleb128 0xb
 1216 0285 4E050000 		.4byte	.LASF49
 1217 0289 24       		.byte	0x24
 1218 028a 07       		.byte	0x7
 1219 028b 0C01     		.2byte	0x10c
 1220 028d 00030000 		.4byte	0x300
 1221 0291 0C       		.uleb128 0xc
 1222 0292 723400   		.ascii	"r4\000"
 1223 0295 07       		.byte	0x7
 1224 0296 1F01     		.2byte	0x11f
 1225 0298 77020000 		.4byte	0x277
 1226 029c 00       		.byte	0
 1227 029d 0C       		.uleb128 0xc
 1228 029e 723500   		.ascii	"r5\000"
 1229 02a1 07       		.byte	0x7
 1230 02a2 2001     		.2byte	0x120
 1231 02a4 77020000 		.4byte	0x277
 1232 02a8 04       		.byte	0x4
 1233 02a9 0C       		.uleb128 0xc
 1234 02aa 723600   		.ascii	"r6\000"
 1235 02ad 07       		.byte	0x7
 1236 02ae 2101     		.2byte	0x121
 1237 02b0 77020000 		.4byte	0x277
 1238 02b4 08       		.byte	0x8
 1239 02b5 0C       		.uleb128 0xc
 1240 02b6 723700   		.ascii	"r7\000"
 1241 02b9 07       		.byte	0x7
 1242 02ba 2201     		.2byte	0x122
ARM GAS  /tmp/cc62Brnt.s 			page 23


 1243 02bc 77020000 		.4byte	0x277
 1244 02c0 0C       		.byte	0xc
 1245 02c1 0C       		.uleb128 0xc
 1246 02c2 723800   		.ascii	"r8\000"
 1247 02c5 07       		.byte	0x7
 1248 02c6 2301     		.2byte	0x123
 1249 02c8 77020000 		.4byte	0x277
 1250 02cc 10       		.byte	0x10
 1251 02cd 0C       		.uleb128 0xc
 1252 02ce 723900   		.ascii	"r9\000"
 1253 02d1 07       		.byte	0x7
 1254 02d2 2401     		.2byte	0x124
 1255 02d4 77020000 		.4byte	0x277
 1256 02d8 14       		.byte	0x14
 1257 02d9 0C       		.uleb128 0xc
 1258 02da 72313000 		.ascii	"r10\000"
 1259 02de 07       		.byte	0x7
 1260 02df 2501     		.2byte	0x125
 1261 02e1 77020000 		.4byte	0x277
 1262 02e5 18       		.byte	0x18
 1263 02e6 0C       		.uleb128 0xc
 1264 02e7 72313100 		.ascii	"r11\000"
 1265 02eb 07       		.byte	0x7
 1266 02ec 2601     		.2byte	0x126
 1267 02ee 77020000 		.4byte	0x277
 1268 02f2 1C       		.byte	0x1c
 1269 02f3 0C       		.uleb128 0xc
 1270 02f4 6C7200   		.ascii	"lr\000"
 1271 02f7 07       		.byte	0x7
 1272 02f8 2701     		.2byte	0x127
 1273 02fa 77020000 		.4byte	0x277
 1274 02fe 20       		.byte	0x20
 1275 02ff 00       		.byte	0
 1276 0300 0B       		.uleb128 0xb
 1277 0301 46050000 		.4byte	.LASF50
 1278 0305 04       		.byte	0x4
 1279 0306 07       		.byte	0x7
 1280 0307 3101     		.2byte	0x131
 1281 0309 1B030000 		.4byte	0x31b
 1282 030d 0C       		.uleb128 0xc
 1283 030e 72313300 		.ascii	"r13\000"
 1284 0312 07       		.byte	0x7
 1285 0313 3201     		.2byte	0x132
 1286 0315 1B030000 		.4byte	0x31b
 1287 0319 00       		.byte	0
 1288 031a 00       		.byte	0
 1289 031b 09       		.uleb128 0x9
 1290 031c 04       		.byte	0x4
 1291 031d 84020000 		.4byte	0x284
 1292 0321 03       		.uleb128 0x3
 1293 0322 04       		.byte	0x4
 1294 0323 07       		.byte	0x7
 1295 0324 4F030000 		.4byte	.LASF51
 1296 0328 04       		.uleb128 0x4
 1297 0329 B6020000 		.4byte	.LASF52
 1298 032d 08       		.byte	0x8
 1299 032e 58       		.byte	0x58
ARM GAS  /tmp/cc62Brnt.s 			page 24


 1300 032f 33030000 		.4byte	0x333
 1301 0333 09       		.uleb128 0x9
 1302 0334 04       		.byte	0x4
 1303 0335 39030000 		.4byte	0x339
 1304 0339 0D       		.uleb128 0xd
 1305 033a 44030000 		.4byte	0x344
 1306 033e 0E       		.uleb128 0xe
 1307 033f 82020000 		.4byte	0x282
 1308 0343 00       		.byte	0
 1309 0344 04       		.uleb128 0x4
 1310 0345 FC040000 		.4byte	.LASF53
 1311 0349 08       		.byte	0x8
 1312 034a 5D       		.byte	0x5d
 1313 034b 4F030000 		.4byte	0x34f
 1314 034f 05       		.uleb128 0x5
 1315 0350 FC040000 		.4byte	.LASF53
 1316 0354 14       		.byte	0x14
 1317 0355 08       		.byte	0x8
 1318 0356 64       		.byte	0x64
 1319 0357 98030000 		.4byte	0x398
 1320 035b 06       		.uleb128 0x6
 1321 035c 71020000 		.4byte	.LASF54
 1322 0360 08       		.byte	0x8
 1323 0361 65       		.byte	0x65
 1324 0362 98030000 		.4byte	0x398
 1325 0366 00       		.byte	0
 1326 0367 06       		.uleb128 0x6
 1327 0368 26020000 		.4byte	.LASF55
 1328 036c 08       		.byte	0x8
 1329 036d 67       		.byte	0x67
 1330 036e 98030000 		.4byte	0x398
 1331 0372 04       		.byte	0x4
 1332 0373 06       		.uleb128 0x6
 1333 0374 47030000 		.4byte	.LASF56
 1334 0378 08       		.byte	0x8
 1335 0379 69       		.byte	0x69
 1336 037a 1E010000 		.4byte	0x11e
 1337 037e 08       		.byte	0x8
 1338 037f 06       		.uleb128 0x6
 1339 0380 06000000 		.4byte	.LASF57
 1340 0384 08       		.byte	0x8
 1341 0385 6A       		.byte	0x6a
 1342 0386 28030000 		.4byte	0x328
 1343 038a 0C       		.byte	0xc
 1344 038b 06       		.uleb128 0x6
 1345 038c 60050000 		.4byte	.LASF58
 1346 0390 08       		.byte	0x8
 1347 0391 6C       		.byte	0x6c
 1348 0392 82020000 		.4byte	0x282
 1349 0396 10       		.byte	0x10
 1350 0397 00       		.byte	0
 1351 0398 09       		.uleb128 0x9
 1352 0399 04       		.byte	0x4
 1353 039a 44030000 		.4byte	0x344
 1354 039e 08       		.uleb128 0x8
 1355 039f 10       		.byte	0x10
 1356 03a0 08       		.byte	0x8
ARM GAS  /tmp/cc62Brnt.s 			page 25


 1357 03a1 76       		.byte	0x76
 1358 03a2 D7030000 		.4byte	0x3d7
 1359 03a6 06       		.uleb128 0x6
 1360 03a7 71020000 		.4byte	.LASF54
 1361 03ab 08       		.byte	0x8
 1362 03ac 77       		.byte	0x77
 1363 03ad 98030000 		.4byte	0x398
 1364 03b1 00       		.byte	0
 1365 03b2 06       		.uleb128 0x6
 1366 03b3 26020000 		.4byte	.LASF55
 1367 03b7 08       		.byte	0x8
 1368 03b8 79       		.byte	0x79
 1369 03b9 98030000 		.4byte	0x398
 1370 03bd 04       		.byte	0x4
 1371 03be 06       		.uleb128 0x6
 1372 03bf 47030000 		.4byte	.LASF56
 1373 03c3 08       		.byte	0x8
 1374 03c4 7B       		.byte	0x7b
 1375 03c5 1E010000 		.4byte	0x11e
 1376 03c9 08       		.byte	0x8
 1377 03ca 06       		.uleb128 0x6
 1378 03cb 04060000 		.4byte	.LASF59
 1379 03cf 08       		.byte	0x8
 1380 03d0 7C       		.byte	0x7c
 1381 03d1 D7030000 		.4byte	0x3d7
 1382 03d5 0C       		.byte	0xc
 1383 03d6 00       		.byte	0
 1384 03d7 0F       		.uleb128 0xf
 1385 03d8 1E010000 		.4byte	0x11e
 1386 03dc 04       		.uleb128 0x4
 1387 03dd 17060000 		.4byte	.LASF60
 1388 03e1 08       		.byte	0x8
 1389 03e2 7D       		.byte	0x7d
 1390 03e3 9E030000 		.4byte	0x39e
 1391 03e7 08       		.uleb128 0x8
 1392 03e8 1C       		.byte	0x1c
 1393 03e9 09       		.byte	0x9
 1394 03ea 5E       		.byte	0x5e
 1395 03eb 38040000 		.4byte	0x438
 1396 03ef 06       		.uleb128 0x6
 1397 03f0 F4040000 		.4byte	.LASF61
 1398 03f4 09       		.byte	0x9
 1399 03f5 5F       		.byte	0x5f
 1400 03f6 4C020000 		.4byte	0x24c
 1401 03fa 00       		.byte	0
 1402 03fb 06       		.uleb128 0x6
 1403 03fc A3040000 		.4byte	.LASF62
 1404 0400 09       		.byte	0x9
 1405 0401 60       		.byte	0x60
 1406 0402 E7000000 		.4byte	0xe7
 1407 0406 08       		.byte	0x8
 1408 0407 06       		.uleb128 0x6
 1409 0408 B5030000 		.4byte	.LASF63
 1410 040c 09       		.byte	0x9
 1411 040d 62       		.byte	0x62
 1412 040e 00030000 		.4byte	0x300
 1413 0412 0C       		.byte	0xc
ARM GAS  /tmp/cc62Brnt.s 			page 26


 1414 0413 06       		.uleb128 0x6
 1415 0414 EF020000 		.4byte	.LASF64
 1416 0418 09       		.byte	0x9
 1417 0419 65       		.byte	0x65
 1418 041a 46020000 		.4byte	0x246
 1419 041e 10       		.byte	0x10
 1420 041f 06       		.uleb128 0x6
 1421 0420 FB030000 		.4byte	.LASF65
 1422 0424 09       		.byte	0x9
 1423 0425 66       		.byte	0x66
 1424 0426 46020000 		.4byte	0x246
 1425 042a 14       		.byte	0x14
 1426 042b 06       		.uleb128 0x6
 1427 042c F1030000 		.4byte	.LASF66
 1428 0430 09       		.byte	0x9
 1429 0431 69       		.byte	0x69
 1430 0432 46020000 		.4byte	0x246
 1431 0436 18       		.byte	0x18
 1432 0437 00       		.byte	0
 1433 0438 04       		.uleb128 0x4
 1434 0439 8C050000 		.4byte	.LASF67
 1435 043d 09       		.byte	0x9
 1436 043e 6B       		.byte	0x6b
 1437 043f E7030000 		.4byte	0x3e7
 1438 0443 05       		.uleb128 0x5
 1439 0444 2F030000 		.4byte	.LASF68
 1440 0448 10       		.byte	0x10
 1441 0449 0A       		.byte	0xa
 1442 044a 2C       		.byte	0x2c
 1443 044b 74040000 		.4byte	0x474
 1444 044f 06       		.uleb128 0x6
 1445 0450 92010000 		.4byte	.LASF69
 1446 0454 0A       		.byte	0xa
 1447 0455 2D       		.byte	0x2d
 1448 0456 4C020000 		.4byte	0x24c
 1449 045a 00       		.byte	0
 1450 045b 06       		.uleb128 0x6
 1451 045c 1E060000 		.4byte	.LASF70
 1452 0460 0A       		.byte	0xa
 1453 0461 2F       		.byte	0x2f
 1454 0462 46020000 		.4byte	0x246
 1455 0466 08       		.byte	0x8
 1456 0467 06       		.uleb128 0x6
 1457 0468 20050000 		.4byte	.LASF71
 1458 046c 0A       		.byte	0xa
 1459 046d 31       		.byte	0x31
 1460 046e 74040000 		.4byte	0x474
 1461 0472 0C       		.byte	0xc
 1462 0473 00       		.byte	0
 1463 0474 09       		.uleb128 0x9
 1464 0475 04       		.byte	0x4
 1465 0476 43040000 		.4byte	0x443
 1466 047a 04       		.uleb128 0x4
 1467 047b 2F030000 		.4byte	.LASF68
 1468 047f 0A       		.byte	0xa
 1469 0480 33       		.byte	0x33
 1470 0481 43040000 		.4byte	0x443
ARM GAS  /tmp/cc62Brnt.s 			page 27


 1471 0485 04       		.uleb128 0x4
 1472 0486 C7050000 		.4byte	.LASF72
 1473 048a 0B       		.byte	0xb
 1474 048b 2C       		.byte	0x2c
 1475 048c 90040000 		.4byte	0x490
 1476 0490 05       		.uleb128 0x5
 1477 0491 C7050000 		.4byte	.LASF72
 1478 0495 10       		.byte	0x10
 1479 0496 0B       		.byte	0xb
 1480 0497 31       		.byte	0x31
 1481 0498 CD040000 		.4byte	0x4cd
 1482 049c 06       		.uleb128 0x6
 1483 049d F7020000 		.4byte	.LASF73
 1484 04a1 0B       		.byte	0xb
 1485 04a2 32       		.byte	0x32
 1486 04a3 CD040000 		.4byte	0x4cd
 1487 04a7 00       		.byte	0
 1488 04a8 06       		.uleb128 0x6
 1489 04a9 53040000 		.4byte	.LASF74
 1490 04ad 0B       		.byte	0xb
 1491 04ae 35       		.byte	0x35
 1492 04af 46020000 		.4byte	0x246
 1493 04b3 04       		.byte	0x4
 1494 04b4 06       		.uleb128 0x6
 1495 04b5 03040000 		.4byte	.LASF75
 1496 04b9 0B       		.byte	0xb
 1497 04ba 37       		.byte	0x37
 1498 04bb 08010000 		.4byte	0x108
 1499 04bf 08       		.byte	0x8
 1500 04c0 06       		.uleb128 0x6
 1501 04c1 6C040000 		.4byte	.LASF76
 1502 04c5 0B       		.byte	0xb
 1503 04c6 3A       		.byte	0x3a
 1504 04c7 13010000 		.4byte	0x113
 1505 04cb 0C       		.byte	0xc
 1506 04cc 00       		.byte	0
 1507 04cd 09       		.uleb128 0x9
 1508 04ce 04       		.byte	0x4
 1509 04cf 85040000 		.4byte	0x485
 1510 04d3 05       		.uleb128 0x5
 1511 04d4 4C020000 		.4byte	.LASF77
 1512 04d8 04       		.byte	0x4
 1513 04d9 0B       		.byte	0xb
 1514 04da 41       		.byte	0x41
 1515 04db EC040000 		.4byte	0x4ec
 1516 04df 06       		.uleb128 0x6
 1517 04e0 0F060000 		.4byte	.LASF78
 1518 04e4 0B       		.byte	0xb
 1519 04e5 42       		.byte	0x42
 1520 04e6 CD040000 		.4byte	0x4cd
 1521 04ea 00       		.byte	0
 1522 04eb 00       		.byte	0
 1523 04ec 04       		.uleb128 0x4
 1524 04ed 4C020000 		.4byte	.LASF77
 1525 04f1 0B       		.byte	0xb
 1526 04f2 45       		.byte	0x45
 1527 04f3 D3040000 		.4byte	0x4d3
ARM GAS  /tmp/cc62Brnt.s 			page 28


 1528 04f7 04       		.uleb128 0x4
 1529 04f8 58020000 		.4byte	.LASF79
 1530 04fc 0B       		.byte	0xb
 1531 04fd 4A       		.byte	0x4a
 1532 04fe 02050000 		.4byte	0x502
 1533 0502 09       		.uleb128 0x9
 1534 0503 04       		.byte	0x4
 1535 0504 08050000 		.4byte	0x508
 1536 0508 0D       		.uleb128 0xd
 1537 0509 13050000 		.4byte	0x513
 1538 050d 0E       		.uleb128 0xe
 1539 050e FD000000 		.4byte	0xfd
 1540 0512 00       		.byte	0
 1541 0513 10       		.uleb128 0x10
 1542 0514 04       		.byte	0x4
 1543 0515 06       		.byte	0x6
 1544 0516 96       		.byte	0x96
 1545 0517 48050000 		.4byte	0x548
 1546 051b 11       		.uleb128 0x11
 1547 051c 7E050000 		.4byte	.LASF80
 1548 0520 06       		.byte	0x6
 1549 0521 9D       		.byte	0x9d
 1550 0522 F2000000 		.4byte	0xf2
 1551 0526 11       		.uleb128 0x11
 1552 0527 2B010000 		.4byte	.LASF81
 1553 052b 06       		.byte	0x6
 1554 052c A4       		.byte	0xa4
 1555 052d F2000000 		.4byte	0xf2
 1556 0531 11       		.uleb128 0x11
 1557 0532 E9050000 		.4byte	.LASF82
 1558 0536 06       		.byte	0x6
 1559 0537 AB       		.byte	0xab
 1560 0538 82020000 		.4byte	0x282
 1561 053c 11       		.uleb128 0x11
 1562 053d AA040000 		.4byte	.LASF83
 1563 0541 06       		.byte	0x6
 1564 0542 B2       		.byte	0xb2
 1565 0543 08010000 		.4byte	0x108
 1566 0547 00       		.byte	0
 1567 0548 09       		.uleb128 0x9
 1568 0549 04       		.byte	0x4
 1569 054a 55050000 		.4byte	0x555
 1570 054e 03       		.uleb128 0x3
 1571 054f 01       		.byte	0x1
 1572 0550 08       		.byte	0x8
 1573 0551 09050000 		.4byte	.LASF84
 1574 0555 12       		.uleb128 0x12
 1575 0556 4E050000 		.4byte	0x54e
 1576 055a 09       		.uleb128 0x9
 1577 055b 04       		.byte	0x4
 1578 055c 7A040000 		.4byte	0x47a
 1579 0560 05       		.uleb128 0x5
 1580 0561 C7040000 		.4byte	.LASF85
 1581 0565 10       		.byte	0x10
 1582 0566 0C       		.byte	0xc
 1583 0567 3B       		.byte	0x3b
 1584 0568 9D050000 		.4byte	0x59d
ARM GAS  /tmp/cc62Brnt.s 			page 29


 1585 056c 06       		.uleb128 0x6
 1586 056d BF020000 		.4byte	.LASF86
 1587 0571 0C       		.byte	0xc
 1588 0572 3C       		.byte	0x3c
 1589 0573 48050000 		.4byte	0x548
 1590 0577 00       		.byte	0
 1591 0578 06       		.uleb128 0x6
 1592 0579 C8030000 		.4byte	.LASF87
 1593 057d 0C       		.byte	0xc
 1594 057e 3D       		.byte	0x3d
 1595 057f 9E050000 		.4byte	0x59e
 1596 0583 04       		.byte	0x4
 1597 0584 06       		.uleb128 0x6
 1598 0585 A2020000 		.4byte	.LASF88
 1599 0589 0C       		.byte	0xc
 1600 058a 3E       		.byte	0x3e
 1601 058b 9E050000 		.4byte	0x59e
 1602 058f 08       		.byte	0x8
 1603 0590 06       		.uleb128 0x6
 1604 0591 1A040000 		.4byte	.LASF89
 1605 0595 0C       		.byte	0xc
 1606 0596 3F       		.byte	0x3f
 1607 0597 9E050000 		.4byte	0x59e
 1608 059b 0C       		.byte	0xc
 1609 059c 00       		.byte	0
 1610 059d 13       		.uleb128 0x13
 1611 059e 09       		.uleb128 0x9
 1612 059f 04       		.byte	0x4
 1613 05a0 9D050000 		.4byte	0x59d
 1614 05a4 14       		.uleb128 0x14
 1615 05a5 5F040000 		.4byte	.LASF128
 1616 05a9 01       		.byte	0x1
 1617 05aa FE       		.byte	0xfe
 1618 05ab 01       		.byte	0x1
 1619 05ac BA050000 		.4byte	0x5ba
 1620 05b0 15       		.uleb128 0x15
 1621 05b1 6D00     		.ascii	"m\000"
 1622 05b3 01       		.byte	0x1
 1623 05b4 FF       		.byte	0xff
 1624 05b5 08010000 		.4byte	0x108
 1625 05b9 00       		.byte	0
 1626 05ba 16       		.uleb128 0x16
 1627 05bb 35060000 		.4byte	.LASF90
 1628 05bf 01       		.byte	0x1
 1629 05c0 55       		.byte	0x55
 1630 05c1 00000000 		.4byte	.LFB11
 1631 05c5 84000000 		.4byte	.LFE11-.LFB11
 1632 05c9 01       		.uleb128 0x1
 1633 05ca 9C       		.byte	0x9c
 1634 05cb CB060000 		.4byte	0x6cb
 1635 05cf 17       		.uleb128 0x17
 1636 05d0 656C3100 		.ascii	"el1\000"
 1637 05d4 01       		.byte	0x1
 1638 05d5 56       		.byte	0x56
 1639 05d6 85040000 		.4byte	0x485
 1640 05da 02       		.uleb128 0x2
 1641 05db 91       		.byte	0x91
ARM GAS  /tmp/cc62Brnt.s 			page 30


 1642 05dc 58       		.sleb128 -40
 1643 05dd 17       		.uleb128 0x17
 1644 05de 656C3200 		.ascii	"el2\000"
 1645 05e2 01       		.byte	0x1
 1646 05e3 56       		.byte	0x56
 1647 05e4 85040000 		.4byte	0x485
 1648 05e8 02       		.uleb128 0x2
 1649 05e9 91       		.byte	0x91
 1650 05ea 68       		.sleb128 -24
 1651 05eb 18       		.uleb128 0x18
 1652 05ec 12000000 		.4byte	.LVL0
 1653 05f0 600E0000 		.4byte	0xe60
 1654 05f4 0A060000 		.4byte	0x60a
 1655 05f8 19       		.uleb128 0x19
 1656 05f9 01       		.uleb128 0x1
 1657 05fa 50       		.byte	0x50
 1658 05fb 02       		.uleb128 0x2
 1659 05fc 74       		.byte	0x74
 1660 05fd 00       		.sleb128 0
 1661 05fe 19       		.uleb128 0x19
 1662 05ff 01       		.uleb128 0x1
 1663 0600 51       		.byte	0x51
 1664 0601 02       		.uleb128 0x2
 1665 0602 7D       		.byte	0x7d
 1666 0603 00       		.sleb128 0
 1667 0604 19       		.uleb128 0x19
 1668 0605 01       		.uleb128 0x1
 1669 0606 52       		.byte	0x52
 1670 0607 01       		.uleb128 0x1
 1671 0608 31       		.byte	0x31
 1672 0609 00       		.byte	0
 1673 060a 18       		.uleb128 0x18
 1674 060b 1C000000 		.4byte	.LVL1
 1675 060f 600E0000 		.4byte	0xe60
 1676 0613 29060000 		.4byte	0x629
 1677 0617 19       		.uleb128 0x19
 1678 0618 01       		.uleb128 0x1
 1679 0619 50       		.byte	0x50
 1680 061a 02       		.uleb128 0x2
 1681 061b 74       		.byte	0x74
 1682 061c 00       		.sleb128 0
 1683 061d 19       		.uleb128 0x19
 1684 061e 01       		.uleb128 0x1
 1685 061f 51       		.byte	0x51
 1686 0620 02       		.uleb128 0x2
 1687 0621 91       		.byte	0x91
 1688 0622 68       		.sleb128 -24
 1689 0623 19       		.uleb128 0x19
 1690 0624 01       		.uleb128 0x1
 1691 0625 52       		.byte	0x52
 1692 0626 01       		.uleb128 0x1
 1693 0627 32       		.byte	0x32
 1694 0628 00       		.byte	0
 1695 0629 18       		.uleb128 0x18
 1696 062a 2A000000 		.4byte	.LVL2
 1697 062e 6B0E0000 		.4byte	0xe6b
 1698 0632 3C060000 		.4byte	0x63c
ARM GAS  /tmp/cc62Brnt.s 			page 31


 1699 0636 19       		.uleb128 0x19
 1700 0637 01       		.uleb128 0x1
 1701 0638 50       		.byte	0x50
 1702 0639 01       		.uleb128 0x1
 1703 063a 31       		.byte	0x31
 1704 063b 00       		.byte	0
 1705 063c 18       		.uleb128 0x18
 1706 063d 38000000 		.4byte	.LVL3
 1707 0641 760E0000 		.4byte	0xe76
 1708 0645 56060000 		.4byte	0x656
 1709 0649 19       		.uleb128 0x19
 1710 064a 01       		.uleb128 0x1
 1711 064b 50       		.byte	0x50
 1712 064c 02       		.uleb128 0x2
 1713 064d 74       		.byte	0x74
 1714 064e 00       		.sleb128 0
 1715 064f 19       		.uleb128 0x19
 1716 0650 01       		.uleb128 0x1
 1717 0651 51       		.byte	0x51
 1718 0652 02       		.uleb128 0x2
 1719 0653 7D       		.byte	0x7d
 1720 0654 00       		.sleb128 0
 1721 0655 00       		.byte	0
 1722 0656 18       		.uleb128 0x18
 1723 0657 46000000 		.4byte	.LVL4
 1724 065b 6B0E0000 		.4byte	0xe6b
 1725 065f 69060000 		.4byte	0x669
 1726 0663 19       		.uleb128 0x19
 1727 0664 01       		.uleb128 0x1
 1728 0665 50       		.byte	0x50
 1729 0666 01       		.uleb128 0x1
 1730 0667 32       		.byte	0x32
 1731 0668 00       		.byte	0
 1732 0669 18       		.uleb128 0x18
 1733 066a 52000000 		.4byte	.LVL5
 1734 066e 760E0000 		.4byte	0xe76
 1735 0672 83060000 		.4byte	0x683
 1736 0676 19       		.uleb128 0x19
 1737 0677 01       		.uleb128 0x1
 1738 0678 50       		.byte	0x50
 1739 0679 02       		.uleb128 0x2
 1740 067a 74       		.byte	0x74
 1741 067b 00       		.sleb128 0
 1742 067c 19       		.uleb128 0x19
 1743 067d 01       		.uleb128 0x1
 1744 067e 51       		.byte	0x51
 1745 067f 02       		.uleb128 0x2
 1746 0680 91       		.byte	0x91
 1747 0681 68       		.sleb128 -24
 1748 0682 00       		.byte	0
 1749 0683 18       		.uleb128 0x18
 1750 0684 62000000 		.4byte	.LVL6
 1751 0688 6B0E0000 		.4byte	0xe6b
 1752 068c 96060000 		.4byte	0x696
 1753 0690 19       		.uleb128 0x19
 1754 0691 01       		.uleb128 0x1
 1755 0692 50       		.byte	0x50
ARM GAS  /tmp/cc62Brnt.s 			page 32


 1756 0693 01       		.uleb128 0x1
 1757 0694 33       		.byte	0x33
 1758 0695 00       		.byte	0
 1759 0696 18       		.uleb128 0x18
 1760 0697 6E000000 		.4byte	.LVL7
 1761 069b 810E0000 		.4byte	0xe81
 1762 069f B2060000 		.4byte	0x6b2
 1763 06a3 19       		.uleb128 0x19
 1764 06a4 01       		.uleb128 0x1
 1765 06a5 50       		.byte	0x50
 1766 06a6 05       		.uleb128 0x5
 1767 06a7 03       		.byte	0x3
 1768 06a8 00000000 		.4byte	.LANCHOR1
 1769 06ac 19       		.uleb128 0x19
 1770 06ad 01       		.uleb128 0x1
 1771 06ae 51       		.byte	0x51
 1772 06af 01       		.uleb128 0x1
 1773 06b0 37       		.byte	0x37
 1774 06b1 00       		.byte	0
 1775 06b2 1A       		.uleb128 0x1a
 1776 06b3 76000000 		.4byte	.LVL8
 1777 06b7 8C0E0000 		.4byte	0xe8c
 1778 06bb 19       		.uleb128 0x19
 1779 06bc 01       		.uleb128 0x1
 1780 06bd 50       		.byte	0x50
 1781 06be 01       		.uleb128 0x1
 1782 06bf 34       		.byte	0x34
 1783 06c0 19       		.uleb128 0x19
 1784 06c1 01       		.uleb128 0x1
 1785 06c2 51       		.byte	0x51
 1786 06c3 05       		.uleb128 0x5
 1787 06c4 03       		.byte	0x3
 1788 06c5 00000000 		.4byte	.LC0
 1789 06c9 00       		.byte	0
 1790 06ca 00       		.byte	0
 1791 06cb 1B       		.uleb128 0x1b
 1792 06cc 683300   		.ascii	"h3\000"
 1793 06cf 01       		.byte	0x1
 1794 06d0 52       		.byte	0x52
 1795 06d1 00000000 		.4byte	.LFB10
 1796 06d5 06000000 		.4byte	.LFE10-.LFB10
 1797 06d9 01       		.uleb128 0x1
 1798 06da 9C       		.byte	0x9c
 1799 06db FE060000 		.4byte	0x6fe
 1800 06df 1C       		.uleb128 0x1c
 1801 06e0 696400   		.ascii	"id\000"
 1802 06e3 01       		.byte	0x1
 1803 06e4 52       		.byte	0x52
 1804 06e5 FD000000 		.4byte	0xfd
 1805 06e9 00000000 		.4byte	.LLST0
 1806 06ed 1D       		.uleb128 0x1d
 1807 06ee 06000000 		.4byte	.LVL11
 1808 06f2 970E0000 		.4byte	0xe97
 1809 06f6 19       		.uleb128 0x19
 1810 06f7 01       		.uleb128 0x1
 1811 06f8 50       		.byte	0x50
 1812 06f9 02       		.uleb128 0x2
ARM GAS  /tmp/cc62Brnt.s 			page 33


 1813 06fa 08       		.byte	0x8
 1814 06fb 43       		.byte	0x43
 1815 06fc 00       		.byte	0
 1816 06fd 00       		.byte	0
 1817 06fe 1B       		.uleb128 0x1b
 1818 06ff 683200   		.ascii	"h2\000"
 1819 0702 01       		.byte	0x1
 1820 0703 51       		.byte	0x51
 1821 0704 00000000 		.4byte	.LFB9
 1822 0708 06000000 		.4byte	.LFE9-.LFB9
 1823 070c 01       		.uleb128 0x1
 1824 070d 9C       		.byte	0x9c
 1825 070e 31070000 		.4byte	0x731
 1826 0712 1C       		.uleb128 0x1c
 1827 0713 696400   		.ascii	"id\000"
 1828 0716 01       		.byte	0x1
 1829 0717 51       		.byte	0x51
 1830 0718 FD000000 		.4byte	0xfd
 1831 071c 21000000 		.4byte	.LLST1
 1832 0720 1D       		.uleb128 0x1d
 1833 0721 06000000 		.4byte	.LVL14
 1834 0725 970E0000 		.4byte	0xe97
 1835 0729 19       		.uleb128 0x19
 1836 072a 01       		.uleb128 0x1
 1837 072b 50       		.byte	0x50
 1838 072c 02       		.uleb128 0x2
 1839 072d 08       		.byte	0x8
 1840 072e 42       		.byte	0x42
 1841 072f 00       		.byte	0
 1842 0730 00       		.byte	0
 1843 0731 1B       		.uleb128 0x1b
 1844 0732 683100   		.ascii	"h1\000"
 1845 0735 01       		.byte	0x1
 1846 0736 50       		.byte	0x50
 1847 0737 00000000 		.4byte	.LFB8
 1848 073b 06000000 		.4byte	.LFE8-.LFB8
 1849 073f 01       		.uleb128 0x1
 1850 0740 9C       		.byte	0x9c
 1851 0741 64070000 		.4byte	0x764
 1852 0745 1C       		.uleb128 0x1c
 1853 0746 696400   		.ascii	"id\000"
 1854 0749 01       		.byte	0x1
 1855 074a 50       		.byte	0x50
 1856 074b FD000000 		.4byte	0xfd
 1857 074f 42000000 		.4byte	.LLST2
 1858 0753 1D       		.uleb128 0x1d
 1859 0754 06000000 		.4byte	.LVL17
 1860 0758 970E0000 		.4byte	0xe97
 1861 075c 19       		.uleb128 0x19
 1862 075d 01       		.uleb128 0x1
 1863 075e 50       		.byte	0x50
 1864 075f 02       		.uleb128 0x2
 1865 0760 08       		.byte	0x8
 1866 0761 41       		.byte	0x41
 1867 0762 00       		.byte	0
 1868 0763 00       		.byte	0
 1869 0764 16       		.uleb128 0x16
ARM GAS  /tmp/cc62Brnt.s 			page 34


 1870 0765 72030000 		.4byte	.LASF91
 1871 0769 01       		.byte	0x1
 1872 076a F9       		.byte	0xf9
 1873 076b 00000000 		.4byte	.LFB16
 1874 076f 08000000 		.4byte	.LFE16-.LFB16
 1875 0773 01       		.uleb128 0x1
 1876 0774 9C       		.byte	0x9c
 1877 0775 8A070000 		.4byte	0x78a
 1878 0779 1D       		.uleb128 0x1d
 1879 077a 08000000 		.4byte	.LVL18
 1880 077e A20E0000 		.4byte	0xea2
 1881 0782 19       		.uleb128 0x19
 1882 0783 01       		.uleb128 0x1
 1883 0784 50       		.byte	0x50
 1884 0785 02       		.uleb128 0x2
 1885 0786 09       		.byte	0x9
 1886 0787 FF       		.byte	0xff
 1887 0788 00       		.byte	0
 1888 0789 00       		.byte	0
 1889 078a 16       		.uleb128 0x16
 1890 078b 4F010000 		.4byte	.LASF92
 1891 078f 01       		.byte	0x1
 1892 0790 95       		.byte	0x95
 1893 0791 00000000 		.4byte	.LFB15
 1894 0795 6C020000 		.4byte	.LFE15-.LFB15
 1895 0799 01       		.uleb128 0x1
 1896 079a 9C       		.byte	0x9c
 1897 079b 730B0000 		.4byte	0xb73
 1898 079f 1E       		.uleb128 0x1e
 1899 07a0 6D00     		.ascii	"m\000"
 1900 07a2 01       		.byte	0x1
 1901 07a3 96       		.byte	0x96
 1902 07a4 08010000 		.4byte	0x108
 1903 07a8 63000000 		.4byte	.LLST3
 1904 07ac 17       		.uleb128 0x17
 1905 07ad 656C3100 		.ascii	"el1\000"
 1906 07b1 01       		.byte	0x1
 1907 07b2 97       		.byte	0x97
 1908 07b3 85040000 		.4byte	0x485
 1909 07b7 02       		.uleb128 0x2
 1910 07b8 91       		.byte	0x91
 1911 07b9 40       		.sleb128 -64
 1912 07ba 17       		.uleb128 0x17
 1913 07bb 656C3200 		.ascii	"el2\000"
 1914 07bf 01       		.byte	0x1
 1915 07c0 97       		.byte	0x97
 1916 07c1 85040000 		.4byte	0x485
 1917 07c5 02       		.uleb128 0x2
 1918 07c6 91       		.byte	0x91
 1919 07c7 50       		.sleb128 -48
 1920 07c8 1F       		.uleb128 0x1f
 1921 07c9 BD010000 		.4byte	.LASF93
 1922 07cd 01       		.byte	0x1
 1923 07ce 98       		.byte	0x98
 1924 07cf 1E010000 		.4byte	0x11e
 1925 07d3 07010000 		.4byte	.LLST4
 1926 07d7 18       		.uleb128 0x18
ARM GAS  /tmp/cc62Brnt.s 			page 35


 1927 07d8 0C000000 		.4byte	.LVL19
 1928 07dc AD0E0000 		.4byte	0xead
 1929 07e0 EA070000 		.4byte	0x7ea
 1930 07e4 19       		.uleb128 0x19
 1931 07e5 01       		.uleb128 0x1
 1932 07e6 50       		.byte	0x50
 1933 07e7 01       		.uleb128 0x1
 1934 07e8 37       		.byte	0x37
 1935 07e9 00       		.byte	0
 1936 07ea 18       		.uleb128 0x18
 1937 07eb 14000000 		.4byte	.LVL20
 1938 07ef B80E0000 		.4byte	0xeb8
 1939 07f3 FE070000 		.4byte	0x7fe
 1940 07f7 19       		.uleb128 0x19
 1941 07f8 01       		.uleb128 0x1
 1942 07f9 50       		.byte	0x50
 1943 07fa 02       		.uleb128 0x2
 1944 07fb 09       		.byte	0x9
 1945 07fc FF       		.byte	0xff
 1946 07fd 00       		.byte	0
 1947 07fe 18       		.uleb128 0x18
 1948 07ff 24000000 		.4byte	.LVL22
 1949 0803 6B0E0000 		.4byte	0xe6b
 1950 0807 11080000 		.4byte	0x811
 1951 080b 19       		.uleb128 0x19
 1952 080c 01       		.uleb128 0x1
 1953 080d 50       		.byte	0x50
 1954 080e 01       		.uleb128 0x1
 1955 080f 31       		.byte	0x31
 1956 0810 00       		.byte	0
 1957 0811 18       		.uleb128 0x18
 1958 0812 34000000 		.4byte	.LVL23
 1959 0816 B80E0000 		.4byte	0xeb8
 1960 081a 25080000 		.4byte	0x825
 1961 081e 19       		.uleb128 0x19
 1962 081f 01       		.uleb128 0x1
 1963 0820 50       		.byte	0x50
 1964 0821 02       		.uleb128 0x2
 1965 0822 09       		.byte	0x9
 1966 0823 FF       		.byte	0xff
 1967 0824 00       		.byte	0
 1968 0825 18       		.uleb128 0x18
 1969 0826 44000000 		.4byte	.LVL25
 1970 082a 6B0E0000 		.4byte	0xe6b
 1971 082e 38080000 		.4byte	0x838
 1972 0832 19       		.uleb128 0x19
 1973 0833 01       		.uleb128 0x1
 1974 0834 50       		.byte	0x50
 1975 0835 01       		.uleb128 0x1
 1976 0836 32       		.byte	0x32
 1977 0837 00       		.byte	0
 1978 0838 18       		.uleb128 0x18
 1979 0839 50000000 		.4byte	.LVL26
 1980 083d B80E0000 		.4byte	0xeb8
 1981 0841 4C080000 		.4byte	0x84c
 1982 0845 19       		.uleb128 0x19
 1983 0846 01       		.uleb128 0x1
ARM GAS  /tmp/cc62Brnt.s 			page 36


 1984 0847 50       		.byte	0x50
 1985 0848 02       		.uleb128 0x2
 1986 0849 09       		.byte	0x9
 1987 084a FF       		.byte	0xff
 1988 084b 00       		.byte	0
 1989 084c 18       		.uleb128 0x18
 1990 084d 60000000 		.4byte	.LVL28
 1991 0851 6B0E0000 		.4byte	0xe6b
 1992 0855 5F080000 		.4byte	0x85f
 1993 0859 19       		.uleb128 0x19
 1994 085a 01       		.uleb128 0x1
 1995 085b 50       		.byte	0x50
 1996 085c 01       		.uleb128 0x1
 1997 085d 33       		.byte	0x33
 1998 085e 00       		.byte	0
 1999 085f 18       		.uleb128 0x18
 2000 0860 6C000000 		.4byte	.LVL29
 2001 0864 A20E0000 		.4byte	0xea2
 2002 0868 73080000 		.4byte	0x873
 2003 086c 19       		.uleb128 0x19
 2004 086d 01       		.uleb128 0x1
 2005 086e 50       		.byte	0x50
 2006 086f 02       		.uleb128 0x2
 2007 0870 09       		.byte	0x9
 2008 0871 FF       		.byte	0xff
 2009 0872 00       		.byte	0
 2010 0873 18       		.uleb128 0x18
 2011 0874 78000000 		.4byte	.LVL31
 2012 0878 6B0E0000 		.4byte	0xe6b
 2013 087c 86080000 		.4byte	0x886
 2014 0880 19       		.uleb128 0x19
 2015 0881 01       		.uleb128 0x1
 2016 0882 50       		.byte	0x50
 2017 0883 01       		.uleb128 0x1
 2018 0884 34       		.byte	0x34
 2019 0885 00       		.byte	0
 2020 0886 20       		.uleb128 0x20
 2021 0887 88000000 		.4byte	.LVL32
 2022 088b C30E0000 		.4byte	0xec3
 2023 088f 18       		.uleb128 0x18
 2024 0890 A4000000 		.4byte	.LVL34
 2025 0894 CE0E0000 		.4byte	0xece
 2026 0898 B3080000 		.4byte	0x8b3
 2027 089c 19       		.uleb128 0x19
 2028 089d 01       		.uleb128 0x1
 2029 089e 50       		.byte	0x50
 2030 089f 02       		.uleb128 0x2
 2031 08a0 77       		.byte	0x77
 2032 08a1 00       		.sleb128 0
 2033 08a2 19       		.uleb128 0x19
 2034 08a3 01       		.uleb128 0x1
 2035 08a4 51       		.byte	0x51
 2036 08a5 03       		.uleb128 0x3
 2037 08a6 0A       		.byte	0xa
 2038 08a7 4801     		.2byte	0x148
 2039 08a9 19       		.uleb128 0x19
 2040 08aa 01       		.uleb128 0x1
ARM GAS  /tmp/cc62Brnt.s 			page 37


 2041 08ab 53       		.byte	0x53
 2042 08ac 05       		.uleb128 0x5
 2043 08ad 03       		.byte	0x3
 2044 08ae 00000000 		.4byte	thread1
 2045 08b2 00       		.byte	0
 2046 08b3 18       		.uleb128 0x18
 2047 08b4 AE000000 		.4byte	.LVL35
 2048 08b8 B80E0000 		.4byte	0xeb8
 2049 08bc C7080000 		.4byte	0x8c7
 2050 08c0 19       		.uleb128 0x19
 2051 08c1 01       		.uleb128 0x1
 2052 08c2 50       		.byte	0x50
 2053 08c3 02       		.uleb128 0x2
 2054 08c4 09       		.byte	0x9
 2055 08c5 FF       		.byte	0xff
 2056 08c6 00       		.byte	0
 2057 08c7 18       		.uleb128 0x18
 2058 08c8 BE000000 		.4byte	.LVL39
 2059 08cc DA0E0000 		.4byte	0xeda
 2060 08d0 E6080000 		.4byte	0x8e6
 2061 08d4 19       		.uleb128 0x19
 2062 08d5 01       		.uleb128 0x1
 2063 08d6 50       		.byte	0x50
 2064 08d7 01       		.uleb128 0x1
 2065 08d8 35       		.byte	0x35
 2066 08d9 19       		.uleb128 0x19
 2067 08da 01       		.uleb128 0x1
 2068 08db 51       		.byte	0x51
 2069 08dc 02       		.uleb128 0x2
 2070 08dd 74       		.byte	0x74
 2071 08de 32       		.sleb128 50
 2072 08df 19       		.uleb128 0x19
 2073 08e0 01       		.uleb128 0x1
 2074 08e1 52       		.byte	0x52
 2075 08e2 02       		.uleb128 0x2
 2076 08e3 74       		.byte	0x74
 2077 08e4 37       		.sleb128 55
 2078 08e5 00       		.byte	0
 2079 08e6 18       		.uleb128 0x18
 2080 08e7 D2000000 		.4byte	.LVL40
 2081 08eb 6B0E0000 		.4byte	0xe6b
 2082 08ef 01090000 		.4byte	0x901
 2083 08f3 19       		.uleb128 0x19
 2084 08f4 01       		.uleb128 0x1
 2085 08f5 50       		.byte	0x50
 2086 08f6 01       		.uleb128 0x1
 2087 08f7 36       		.byte	0x36
 2088 08f8 19       		.uleb128 0x19
 2089 08f9 01       		.uleb128 0x1
 2090 08fa 51       		.byte	0x51
 2091 08fb 04       		.uleb128 0x4
 2092 08fc 79       		.byte	0x79
 2093 08fd 00       		.sleb128 0
 2094 08fe 31       		.byte	0x31
 2095 08ff 29       		.byte	0x29
 2096 0900 00       		.byte	0
 2097 0901 18       		.uleb128 0x18
ARM GAS  /tmp/cc62Brnt.s 			page 38


 2098 0902 DE000000 		.4byte	.LVL41
 2099 0906 A20E0000 		.4byte	0xea2
 2100 090a 15090000 		.4byte	0x915
 2101 090e 19       		.uleb128 0x19
 2102 090f 01       		.uleb128 0x1
 2103 0910 50       		.byte	0x50
 2104 0911 02       		.uleb128 0x2
 2105 0912 09       		.byte	0x9
 2106 0913 FF       		.byte	0xff
 2107 0914 00       		.byte	0
 2108 0915 18       		.uleb128 0x18
 2109 0916 EA000000 		.4byte	.LVL43
 2110 091a 6B0E0000 		.4byte	0xe6b
 2111 091e 28090000 		.4byte	0x928
 2112 0922 19       		.uleb128 0x19
 2113 0923 01       		.uleb128 0x1
 2114 0924 50       		.byte	0x50
 2115 0925 01       		.uleb128 0x1
 2116 0926 37       		.byte	0x37
 2117 0927 00       		.byte	0
 2118 0928 20       		.uleb128 0x20
 2119 0929 F2000000 		.4byte	.LVL44
 2120 092d E50E0000 		.4byte	0xee5
 2121 0931 18       		.uleb128 0x18
 2122 0932 F8000000 		.4byte	.LVL45
 2123 0936 AD0E0000 		.4byte	0xead
 2124 093a 44090000 		.4byte	0x944
 2125 093e 19       		.uleb128 0x19
 2126 093f 01       		.uleb128 0x1
 2127 0940 50       		.byte	0x50
 2128 0941 01       		.uleb128 0x1
 2129 0942 35       		.byte	0x35
 2130 0943 00       		.byte	0
 2131 0944 18       		.uleb128 0x18
 2132 0945 00010000 		.4byte	.LVL46
 2133 0949 F00E0000 		.4byte	0xef0
 2134 094d 58090000 		.4byte	0x958
 2135 0951 19       		.uleb128 0x19
 2136 0952 01       		.uleb128 0x1
 2137 0953 50       		.byte	0x50
 2138 0954 02       		.uleb128 0x2
 2139 0955 09       		.byte	0x9
 2140 0956 FF       		.byte	0xff
 2141 0957 00       		.byte	0
 2142 0958 18       		.uleb128 0x18
 2143 0959 0C010000 		.4byte	.LVL49
 2144 095d 6B0E0000 		.4byte	0xe6b
 2145 0961 73090000 		.4byte	0x973
 2146 0965 19       		.uleb128 0x19
 2147 0966 01       		.uleb128 0x1
 2148 0967 50       		.byte	0x50
 2149 0968 01       		.uleb128 0x1
 2150 0969 38       		.byte	0x38
 2151 096a 19       		.uleb128 0x19
 2152 096b 01       		.uleb128 0x1
 2153 096c 51       		.byte	0x51
 2154 096d 04       		.uleb128 0x4
ARM GAS  /tmp/cc62Brnt.s 			page 39


 2155 096e 74       		.byte	0x74
 2156 096f 00       		.sleb128 0
 2157 0970 30       		.byte	0x30
 2158 0971 29       		.byte	0x29
 2159 0972 00       		.byte	0
 2160 0973 18       		.uleb128 0x18
 2161 0974 18010000 		.4byte	.LVL50
 2162 0978 A20E0000 		.4byte	0xea2
 2163 097c 87090000 		.4byte	0x987
 2164 0980 19       		.uleb128 0x19
 2165 0981 01       		.uleb128 0x1
 2166 0982 50       		.byte	0x50
 2167 0983 02       		.uleb128 0x2
 2168 0984 09       		.byte	0x9
 2169 0985 FF       		.byte	0xff
 2170 0986 00       		.byte	0
 2171 0987 18       		.uleb128 0x18
 2172 0988 24010000 		.4byte	.LVL52
 2173 098c 6B0E0000 		.4byte	0xe6b
 2174 0990 9A090000 		.4byte	0x99a
 2175 0994 19       		.uleb128 0x19
 2176 0995 01       		.uleb128 0x1
 2177 0996 50       		.byte	0x50
 2178 0997 01       		.uleb128 0x1
 2179 0998 39       		.byte	0x39
 2180 0999 00       		.byte	0
 2181 099a 20       		.uleb128 0x20
 2182 099b 2E010000 		.4byte	.LVL53
 2183 099f C30E0000 		.4byte	0xec3
 2184 09a3 18       		.uleb128 0x18
 2185 09a4 46010000 		.4byte	.LVL55
 2186 09a8 CE0E0000 		.4byte	0xece
 2187 09ac C7090000 		.4byte	0x9c7
 2188 09b0 19       		.uleb128 0x19
 2189 09b1 01       		.uleb128 0x1
 2190 09b2 50       		.byte	0x50
 2191 09b3 02       		.uleb128 0x2
 2192 09b4 77       		.byte	0x77
 2193 09b5 00       		.sleb128 0
 2194 09b6 19       		.uleb128 0x19
 2195 09b7 01       		.uleb128 0x1
 2196 09b8 51       		.byte	0x51
 2197 09b9 03       		.uleb128 0x3
 2198 09ba 0A       		.byte	0xa
 2199 09bb 4801     		.2byte	0x148
 2200 09bd 19       		.uleb128 0x19
 2201 09be 01       		.uleb128 0x1
 2202 09bf 53       		.byte	0x53
 2203 09c0 05       		.uleb128 0x5
 2204 09c1 03       		.byte	0x3
 2205 09c2 00000000 		.4byte	thread1
 2206 09c6 00       		.byte	0
 2207 09c7 18       		.uleb128 0x18
 2208 09c8 50010000 		.4byte	.LVL56
 2209 09cc F00E0000 		.4byte	0xef0
 2210 09d0 DB090000 		.4byte	0x9db
 2211 09d4 19       		.uleb128 0x19
ARM GAS  /tmp/cc62Brnt.s 			page 40


 2212 09d5 01       		.uleb128 0x1
 2213 09d6 50       		.byte	0x50
 2214 09d7 02       		.uleb128 0x2
 2215 09d8 09       		.byte	0x9
 2216 09d9 FF       		.byte	0xff
 2217 09da 00       		.byte	0
 2218 09db 18       		.uleb128 0x18
 2219 09dc 60010000 		.4byte	.LVL60
 2220 09e0 DA0E0000 		.4byte	0xeda
 2221 09e4 FA090000 		.4byte	0x9fa
 2222 09e8 19       		.uleb128 0x19
 2223 09e9 01       		.uleb128 0x1
 2224 09ea 50       		.byte	0x50
 2225 09eb 01       		.uleb128 0x1
 2226 09ec 3A       		.byte	0x3a
 2227 09ed 19       		.uleb128 0x19
 2228 09ee 01       		.uleb128 0x1
 2229 09ef 51       		.byte	0x51
 2230 09f0 02       		.uleb128 0x2
 2231 09f1 74       		.byte	0x74
 2232 09f2 32       		.sleb128 50
 2233 09f3 19       		.uleb128 0x19
 2234 09f4 01       		.uleb128 0x1
 2235 09f5 52       		.byte	0x52
 2236 09f6 02       		.uleb128 0x2
 2237 09f7 74       		.byte	0x74
 2238 09f8 37       		.sleb128 55
 2239 09f9 00       		.byte	0
 2240 09fa 18       		.uleb128 0x18
 2241 09fb 74010000 		.4byte	.LVL61
 2242 09ff 6B0E0000 		.4byte	0xe6b
 2243 0a03 150A0000 		.4byte	0xa15
 2244 0a07 19       		.uleb128 0x19
 2245 0a08 01       		.uleb128 0x1
 2246 0a09 50       		.byte	0x50
 2247 0a0a 01       		.uleb128 0x1
 2248 0a0b 3B       		.byte	0x3b
 2249 0a0c 19       		.uleb128 0x19
 2250 0a0d 01       		.uleb128 0x1
 2251 0a0e 51       		.byte	0x51
 2252 0a0f 04       		.uleb128 0x4
 2253 0a10 79       		.byte	0x79
 2254 0a11 00       		.sleb128 0
 2255 0a12 31       		.byte	0x31
 2256 0a13 29       		.byte	0x29
 2257 0a14 00       		.byte	0
 2258 0a15 18       		.uleb128 0x18
 2259 0a16 82010000 		.4byte	.LVL62
 2260 0a1a A20E0000 		.4byte	0xea2
 2261 0a1e 290A0000 		.4byte	0xa29
 2262 0a22 19       		.uleb128 0x19
 2263 0a23 01       		.uleb128 0x1
 2264 0a24 50       		.byte	0x50
 2265 0a25 02       		.uleb128 0x2
 2266 0a26 09       		.byte	0x9
 2267 0a27 FF       		.byte	0xff
 2268 0a28 00       		.byte	0
ARM GAS  /tmp/cc62Brnt.s 			page 41


 2269 0a29 18       		.uleb128 0x18
 2270 0a2a 8E010000 		.4byte	.LVL64
 2271 0a2e 6B0E0000 		.4byte	0xe6b
 2272 0a32 3C0A0000 		.4byte	0xa3c
 2273 0a36 19       		.uleb128 0x19
 2274 0a37 01       		.uleb128 0x1
 2275 0a38 50       		.byte	0x50
 2276 0a39 01       		.uleb128 0x1
 2277 0a3a 3C       		.byte	0x3c
 2278 0a3b 00       		.byte	0
 2279 0a3c 20       		.uleb128 0x20
 2280 0a3d 9E010000 		.4byte	.LVL66
 2281 0a41 E50E0000 		.4byte	0xee5
 2282 0a45 18       		.uleb128 0x18
 2283 0a46 AE010000 		.4byte	.LVL67
 2284 0a4a 600E0000 		.4byte	0xe60
 2285 0a4e 640A0000 		.4byte	0xa64
 2286 0a52 19       		.uleb128 0x19
 2287 0a53 01       		.uleb128 0x1
 2288 0a54 50       		.byte	0x50
 2289 0a55 02       		.uleb128 0x2
 2290 0a56 79       		.byte	0x79
 2291 0a57 00       		.sleb128 0
 2292 0a58 19       		.uleb128 0x19
 2293 0a59 01       		.uleb128 0x1
 2294 0a5a 51       		.byte	0x51
 2295 0a5b 02       		.uleb128 0x2
 2296 0a5c 91       		.byte	0x91
 2297 0a5d 40       		.sleb128 -64
 2298 0a5e 19       		.uleb128 0x19
 2299 0a5f 01       		.uleb128 0x1
 2300 0a60 52       		.byte	0x52
 2301 0a61 01       		.uleb128 0x1
 2302 0a62 31       		.byte	0x31
 2303 0a63 00       		.byte	0
 2304 0a64 18       		.uleb128 0x18
 2305 0a65 B8010000 		.4byte	.LVL68
 2306 0a69 600E0000 		.4byte	0xe60
 2307 0a6d 830A0000 		.4byte	0xa83
 2308 0a71 19       		.uleb128 0x19
 2309 0a72 01       		.uleb128 0x1
 2310 0a73 50       		.byte	0x50
 2311 0a74 02       		.uleb128 0x2
 2312 0a75 74       		.byte	0x74
 2313 0a76 00       		.sleb128 0
 2314 0a77 19       		.uleb128 0x19
 2315 0a78 01       		.uleb128 0x1
 2316 0a79 51       		.byte	0x51
 2317 0a7a 02       		.uleb128 0x2
 2318 0a7b 91       		.byte	0x91
 2319 0a7c 50       		.sleb128 -48
 2320 0a7d 19       		.uleb128 0x19
 2321 0a7e 01       		.uleb128 0x1
 2322 0a7f 52       		.byte	0x52
 2323 0a80 01       		.uleb128 0x1
 2324 0a81 34       		.byte	0x34
 2325 0a82 00       		.byte	0
ARM GAS  /tmp/cc62Brnt.s 			page 42


 2326 0a83 20       		.uleb128 0x20
 2327 0a84 BC010000 		.4byte	.LVL69
 2328 0a88 C30E0000 		.4byte	0xec3
 2329 0a8c 18       		.uleb128 0x18
 2330 0a8d D6010000 		.4byte	.LVL71
 2331 0a91 CE0E0000 		.4byte	0xece
 2332 0a95 BA0A0000 		.4byte	0xaba
 2333 0a99 19       		.uleb128 0x19
 2334 0a9a 01       		.uleb128 0x1
 2335 0a9b 50       		.byte	0x50
 2336 0a9c 02       		.uleb128 0x2
 2337 0a9d 77       		.byte	0x77
 2338 0a9e 00       		.sleb128 0
 2339 0a9f 19       		.uleb128 0x19
 2340 0aa0 01       		.uleb128 0x1
 2341 0aa1 51       		.byte	0x51
 2342 0aa2 03       		.uleb128 0x3
 2343 0aa3 0A       		.byte	0xa
 2344 0aa4 4801     		.2byte	0x148
 2345 0aa6 19       		.uleb128 0x19
 2346 0aa7 01       		.uleb128 0x1
 2347 0aa8 53       		.byte	0x53
 2348 0aa9 05       		.uleb128 0x5
 2349 0aaa 03       		.byte	0x3
 2350 0aab 00000000 		.4byte	thread2
 2351 0aaf 19       		.uleb128 0x19
 2352 0ab0 02       		.uleb128 0x2
 2353 0ab1 7D       		.byte	0x7d
 2354 0ab2 00       		.sleb128 0
 2355 0ab3 05       		.uleb128 0x5
 2356 0ab4 03       		.byte	0x3
 2357 0ab5 04000000 		.4byte	.LC1
 2358 0ab9 00       		.byte	0
 2359 0aba 18       		.uleb128 0x18
 2360 0abb DE010000 		.4byte	.LVL72
 2361 0abf FB0E0000 		.4byte	0xefb
 2362 0ac3 CD0A0000 		.4byte	0xacd
 2363 0ac7 19       		.uleb128 0x19
 2364 0ac8 01       		.uleb128 0x1
 2365 0ac9 50       		.byte	0x50
 2366 0aca 01       		.uleb128 0x1
 2367 0acb 35       		.byte	0x35
 2368 0acc 00       		.byte	0
 2369 0acd 18       		.uleb128 0x18
 2370 0ace EC010000 		.4byte	.LVL74
 2371 0ad2 DA0E0000 		.4byte	0xeda
 2372 0ad6 EC0A0000 		.4byte	0xaec
 2373 0ada 19       		.uleb128 0x19
 2374 0adb 01       		.uleb128 0x1
 2375 0adc 50       		.byte	0x50
 2376 0add 01       		.uleb128 0x1
 2377 0ade 3D       		.byte	0x3d
 2378 0adf 19       		.uleb128 0x19
 2379 0ae0 01       		.uleb128 0x1
 2380 0ae1 51       		.byte	0x51
 2381 0ae2 02       		.uleb128 0x2
 2382 0ae3 76       		.byte	0x76
ARM GAS  /tmp/cc62Brnt.s 			page 43


 2383 0ae4 32       		.sleb128 50
 2384 0ae5 19       		.uleb128 0x19
 2385 0ae6 01       		.uleb128 0x1
 2386 0ae7 52       		.byte	0x52
 2387 0ae8 02       		.uleb128 0x2
 2388 0ae9 76       		.byte	0x76
 2389 0aea 37       		.sleb128 55
 2390 0aeb 00       		.byte	0
 2391 0aec 18       		.uleb128 0x18
 2392 0aed FA010000 		.4byte	.LVL75
 2393 0af1 A20E0000 		.4byte	0xea2
 2394 0af5 000B0000 		.4byte	0xb00
 2395 0af9 19       		.uleb128 0x19
 2396 0afa 01       		.uleb128 0x1
 2397 0afb 50       		.byte	0x50
 2398 0afc 02       		.uleb128 0x2
 2399 0afd 09       		.byte	0x9
 2400 0afe FF       		.byte	0xff
 2401 0aff 00       		.byte	0
 2402 0b00 18       		.uleb128 0x18
 2403 0b01 06020000 		.4byte	.LVL77
 2404 0b05 6B0E0000 		.4byte	0xe6b
 2405 0b09 130B0000 		.4byte	0xb13
 2406 0b0d 19       		.uleb128 0x19
 2407 0b0e 01       		.uleb128 0x1
 2408 0b0f 50       		.byte	0x50
 2409 0b10 01       		.uleb128 0x1
 2410 0b11 3E       		.byte	0x3e
 2411 0b12 00       		.byte	0
 2412 0b13 20       		.uleb128 0x20
 2413 0b14 10020000 		.4byte	.LVL78
 2414 0b18 E50E0000 		.4byte	0xee5
 2415 0b1c 18       		.uleb128 0x18
 2416 0b1d 18020000 		.4byte	.LVL79
 2417 0b21 760E0000 		.4byte	0xe76
 2418 0b25 360B0000 		.4byte	0xb36
 2419 0b29 19       		.uleb128 0x19
 2420 0b2a 01       		.uleb128 0x1
 2421 0b2b 50       		.byte	0x50
 2422 0b2c 02       		.uleb128 0x2
 2423 0b2d 79       		.byte	0x79
 2424 0b2e 00       		.sleb128 0
 2425 0b2f 19       		.uleb128 0x19
 2426 0b30 01       		.uleb128 0x1
 2427 0b31 51       		.byte	0x51
 2428 0b32 02       		.uleb128 0x2
 2429 0b33 91       		.byte	0x91
 2430 0b34 40       		.sleb128 -64
 2431 0b35 00       		.byte	0
 2432 0b36 18       		.uleb128 0x18
 2433 0b37 20020000 		.4byte	.LVL80
 2434 0b3b 760E0000 		.4byte	0xe76
 2435 0b3f 500B0000 		.4byte	0xb50
 2436 0b43 19       		.uleb128 0x19
 2437 0b44 01       		.uleb128 0x1
 2438 0b45 50       		.byte	0x50
 2439 0b46 02       		.uleb128 0x2
ARM GAS  /tmp/cc62Brnt.s 			page 44


 2440 0b47 74       		.byte	0x74
 2441 0b48 00       		.sleb128 0
 2442 0b49 19       		.uleb128 0x19
 2443 0b4a 01       		.uleb128 0x1
 2444 0b4b 51       		.byte	0x51
 2445 0b4c 02       		.uleb128 0x2
 2446 0b4d 91       		.byte	0x91
 2447 0b4e 50       		.sleb128 -48
 2448 0b4f 00       		.byte	0
 2449 0b50 18       		.uleb128 0x18
 2450 0b51 32020000 		.4byte	.LVL81
 2451 0b55 6B0E0000 		.4byte	0xe6b
 2452 0b59 630B0000 		.4byte	0xb63
 2453 0b5d 19       		.uleb128 0x19
 2454 0b5e 01       		.uleb128 0x1
 2455 0b5f 50       		.byte	0x50
 2456 0b60 01       		.uleb128 0x1
 2457 0b61 3F       		.byte	0x3f
 2458 0b62 00       		.byte	0
 2459 0b63 1A       		.uleb128 0x1a
 2460 0b64 46020000 		.4byte	.LVL82
 2461 0b68 6B0E0000 		.4byte	0xe6b
 2462 0b6c 19       		.uleb128 0x19
 2463 0b6d 01       		.uleb128 0x1
 2464 0b6e 50       		.byte	0x50
 2465 0b6f 01       		.uleb128 0x1
 2466 0b70 40       		.byte	0x40
 2467 0b71 00       		.byte	0
 2468 0b72 00       		.byte	0
 2469 0b73 21       		.uleb128 0x21
 2470 0b74 AD030000 		.4byte	.LASF94
 2471 0b78 01       		.byte	0x1
 2472 0b79 8C       		.byte	0x8c
 2473 0b7a F2000000 		.4byte	0xf2
 2474 0b7e 00000000 		.4byte	.LFB14
 2475 0b82 24000000 		.4byte	.LFE14-.LFB14
 2476 0b86 01       		.uleb128 0x1
 2477 0b87 9C       		.byte	0x9c
 2478 0b88 E20B0000 		.4byte	0xbe2
 2479 0b8c 1C       		.uleb128 0x1c
 2480 0b8d 7000     		.ascii	"p\000"
 2481 0b8f 01       		.byte	0x1
 2482 0b90 8C       		.byte	0x8c
 2483 0b91 82020000 		.4byte	0x282
 2484 0b95 7E010000 		.4byte	.LLST5
 2485 0b99 18       		.uleb128 0x18
 2486 0b9a 0A000000 		.4byte	.LVL85
 2487 0b9e 060F0000 		.4byte	0xf06
 2488 0ba2 B50B0000 		.4byte	0xbb5
 2489 0ba6 19       		.uleb128 0x19
 2490 0ba7 01       		.uleb128 0x1
 2491 0ba8 50       		.byte	0x50
 2492 0ba9 05       		.uleb128 0x5
 2493 0baa 03       		.byte	0x3
 2494 0bab 00000000 		.4byte	.LANCHOR0
 2495 0baf 19       		.uleb128 0x19
 2496 0bb0 01       		.uleb128 0x1
ARM GAS  /tmp/cc62Brnt.s 			page 45


 2497 0bb1 51       		.byte	0x51
 2498 0bb2 01       		.uleb128 0x1
 2499 0bb3 30       		.byte	0x30
 2500 0bb4 00       		.byte	0
 2501 0bb5 18       		.uleb128 0x18
 2502 0bb6 10000000 		.4byte	.LVL86
 2503 0bba 110F0000 		.4byte	0xf11
 2504 0bbe C90B0000 		.4byte	0xbc9
 2505 0bc2 19       		.uleb128 0x19
 2506 0bc3 01       		.uleb128 0x1
 2507 0bc4 50       		.byte	0x50
 2508 0bc5 02       		.uleb128 0x2
 2509 0bc6 08       		.byte	0x8
 2510 0bc7 32       		.byte	0x32
 2511 0bc8 00       		.byte	0
 2512 0bc9 1A       		.uleb128 0x1a
 2513 0bca 18000000 		.4byte	.LVL87
 2514 0bce 060F0000 		.4byte	0xf06
 2515 0bd2 19       		.uleb128 0x19
 2516 0bd3 01       		.uleb128 0x1
 2517 0bd4 50       		.byte	0x50
 2518 0bd5 05       		.uleb128 0x5
 2519 0bd6 03       		.byte	0x3
 2520 0bd7 00000000 		.4byte	.LANCHOR2
 2521 0bdb 19       		.uleb128 0x19
 2522 0bdc 01       		.uleb128 0x1
 2523 0bdd 51       		.byte	0x51
 2524 0bde 01       		.uleb128 0x1
 2525 0bdf 30       		.byte	0x30
 2526 0be0 00       		.byte	0
 2527 0be1 00       		.byte	0
 2528 0be2 21       		.uleb128 0x21
 2529 0be3 A5030000 		.4byte	.LASF95
 2530 0be7 01       		.byte	0x1
 2531 0be8 85       		.byte	0x85
 2532 0be9 F2000000 		.4byte	0xf2
 2533 0bed 00000000 		.4byte	.LFB13
 2534 0bf1 16000000 		.4byte	.LFE13-.LFB13
 2535 0bf5 01       		.uleb128 0x1
 2536 0bf6 9C       		.byte	0x9c
 2537 0bf7 320C0000 		.4byte	0xc32
 2538 0bfb 1C       		.uleb128 0x1c
 2539 0bfc 7000     		.ascii	"p\000"
 2540 0bfe 01       		.byte	0x1
 2541 0bff 85       		.byte	0x85
 2542 0c00 82020000 		.4byte	0x282
 2543 0c04 9F010000 		.4byte	.LLST6
 2544 0c08 18       		.uleb128 0x18
 2545 0c09 0A000000 		.4byte	.LVL90
 2546 0c0d 110F0000 		.4byte	0xf11
 2547 0c11 1C0C0000 		.4byte	0xc1c
 2548 0c15 19       		.uleb128 0x19
 2549 0c16 01       		.uleb128 0x1
 2550 0c17 50       		.byte	0x50
 2551 0c18 02       		.uleb128 0x2
 2552 0c19 08       		.byte	0x8
 2553 0c1a 32       		.byte	0x32
ARM GAS  /tmp/cc62Brnt.s 			page 46


 2554 0c1b 00       		.byte	0
 2555 0c1c 1A       		.uleb128 0x1a
 2556 0c1d 12000000 		.4byte	.LVL91
 2557 0c21 1D0F0000 		.4byte	0xf1d
 2558 0c25 19       		.uleb128 0x19
 2559 0c26 01       		.uleb128 0x1
 2560 0c27 50       		.byte	0x50
 2561 0c28 02       		.uleb128 0x2
 2562 0c29 74       		.byte	0x74
 2563 0c2a 00       		.sleb128 0
 2564 0c2b 19       		.uleb128 0x19
 2565 0c2c 01       		.uleb128 0x1
 2566 0c2d 51       		.byte	0x51
 2567 0c2e 01       		.uleb128 0x1
 2568 0c2f 31       		.byte	0x31
 2569 0c30 00       		.byte	0
 2570 0c31 00       		.byte	0
 2571 0c32 22       		.uleb128 0x22
 2572 0c33 A4050000 		.4byte	0x5a4
 2573 0c37 00000000 		.4byte	.LFB17
 2574 0c3b 9E000000 		.4byte	.LFE17-.LFB17
 2575 0c3f 01       		.uleb128 0x1
 2576 0c40 9C       		.byte	0x9c
 2577 0c41 580D0000 		.4byte	0xd58
 2578 0c45 23       		.uleb128 0x23
 2579 0c46 B0050000 		.4byte	0x5b0
 2580 0c4a BD010000 		.4byte	.LLST7
 2581 0c4e 24       		.uleb128 0x24
 2582 0c4f 00000000 		.4byte	.Ldebug_ranges0+0
 2583 0c53 E10C0000 		.4byte	0xce1
 2584 0c57 23       		.uleb128 0x23
 2585 0c58 B0050000 		.4byte	0x5b0
 2586 0c5c E6010000 		.4byte	.LLST8
 2587 0c60 18       		.uleb128 0x18
 2588 0c61 5A000000 		.4byte	.LVL101
 2589 0c65 280F0000 		.4byte	0xf28
 2590 0c69 790C0000 		.4byte	0xc79
 2591 0c6d 19       		.uleb128 0x19
 2592 0c6e 01       		.uleb128 0x1
 2593 0c6f 50       		.byte	0x50
 2594 0c70 02       		.uleb128 0x2
 2595 0c71 09       		.byte	0x9
 2596 0c72 FF       		.byte	0xff
 2597 0c73 19       		.uleb128 0x19
 2598 0c74 01       		.uleb128 0x1
 2599 0c75 51       		.byte	0x51
 2600 0c76 01       		.uleb128 0x1
 2601 0c77 3A       		.byte	0x3a
 2602 0c78 00       		.byte	0
 2603 0c79 18       		.uleb128 0x18
 2604 0c7a 66000000 		.4byte	.LVL103
 2605 0c7e 6B0E0000 		.4byte	0xe6b
 2606 0c82 8C0C0000 		.4byte	0xc8c
 2607 0c86 19       		.uleb128 0x19
 2608 0c87 01       		.uleb128 0x1
 2609 0c88 50       		.byte	0x50
 2610 0c89 01       		.uleb128 0x1
ARM GAS  /tmp/cc62Brnt.s 			page 47


 2611 0c8a 34       		.byte	0x34
 2612 0c8b 00       		.byte	0
 2613 0c8c 18       		.uleb128 0x18
 2614 0c8d 74000000 		.4byte	.LVL104
 2615 0c91 330F0000 		.4byte	0xf33
 2616 0c95 A50C0000 		.4byte	0xca5
 2617 0c99 19       		.uleb128 0x19
 2618 0c9a 01       		.uleb128 0x1
 2619 0c9b 50       		.byte	0x50
 2620 0c9c 02       		.uleb128 0x2
 2621 0c9d 09       		.byte	0x9
 2622 0c9e FF       		.byte	0xff
 2623 0c9f 19       		.uleb128 0x19
 2624 0ca0 01       		.uleb128 0x1
 2625 0ca1 51       		.byte	0x51
 2626 0ca2 01       		.uleb128 0x1
 2627 0ca3 3A       		.byte	0x3a
 2628 0ca4 00       		.byte	0
 2629 0ca5 18       		.uleb128 0x18
 2630 0ca6 80000000 		.4byte	.LVL106
 2631 0caa 6B0E0000 		.4byte	0xe6b
 2632 0cae B80C0000 		.4byte	0xcb8
 2633 0cb2 19       		.uleb128 0x19
 2634 0cb3 01       		.uleb128 0x1
 2635 0cb4 50       		.byte	0x50
 2636 0cb5 01       		.uleb128 0x1
 2637 0cb6 35       		.byte	0x35
 2638 0cb7 00       		.byte	0
 2639 0cb8 18       		.uleb128 0x18
 2640 0cb9 8E000000 		.4byte	.LVL107
 2641 0cbd 3E0F0000 		.4byte	0xf3e
 2642 0cc1 D10C0000 		.4byte	0xcd1
 2643 0cc5 19       		.uleb128 0x19
 2644 0cc6 01       		.uleb128 0x1
 2645 0cc7 50       		.byte	0x50
 2646 0cc8 02       		.uleb128 0x2
 2647 0cc9 09       		.byte	0x9
 2648 0cca FF       		.byte	0xff
 2649 0ccb 19       		.uleb128 0x19
 2650 0ccc 01       		.uleb128 0x1
 2651 0ccd 51       		.byte	0x51
 2652 0cce 01       		.uleb128 0x1
 2653 0ccf 3A       		.byte	0x3a
 2654 0cd0 00       		.byte	0
 2655 0cd1 1D       		.uleb128 0x1d
 2656 0cd2 9E000000 		.4byte	.LVL109
 2657 0cd6 6B0E0000 		.4byte	0xe6b
 2658 0cda 19       		.uleb128 0x19
 2659 0cdb 01       		.uleb128 0x1
 2660 0cdc 50       		.byte	0x50
 2661 0cdd 01       		.uleb128 0x1
 2662 0cde 36       		.byte	0x36
 2663 0cdf 00       		.byte	0
 2664 0ce0 00       		.byte	0
 2665 0ce1 18       		.uleb128 0x18
 2666 0ce2 0C000000 		.4byte	.LVL92
 2667 0ce6 280F0000 		.4byte	0xf28
ARM GAS  /tmp/cc62Brnt.s 			page 48


 2668 0cea FA0C0000 		.4byte	0xcfa
 2669 0cee 19       		.uleb128 0x19
 2670 0cef 01       		.uleb128 0x1
 2671 0cf0 50       		.byte	0x50
 2672 0cf1 02       		.uleb128 0x2
 2673 0cf2 09       		.byte	0x9
 2674 0cf3 FF       		.byte	0xff
 2675 0cf4 19       		.uleb128 0x19
 2676 0cf5 01       		.uleb128 0x1
 2677 0cf6 51       		.byte	0x51
 2678 0cf7 01       		.uleb128 0x1
 2679 0cf8 30       		.byte	0x30
 2680 0cf9 00       		.byte	0
 2681 0cfa 18       		.uleb128 0x18
 2682 0cfb 18000000 		.4byte	.LVL94
 2683 0cff 6B0E0000 		.4byte	0xe6b
 2684 0d03 0D0D0000 		.4byte	0xd0d
 2685 0d07 19       		.uleb128 0x19
 2686 0d08 01       		.uleb128 0x1
 2687 0d09 50       		.byte	0x50
 2688 0d0a 01       		.uleb128 0x1
 2689 0d0b 31       		.byte	0x31
 2690 0d0c 00       		.byte	0
 2691 0d0d 18       		.uleb128 0x18
 2692 0d0e 26000000 		.4byte	.LVL95
 2693 0d12 330F0000 		.4byte	0xf33
 2694 0d16 210D0000 		.4byte	0xd21
 2695 0d1a 19       		.uleb128 0x19
 2696 0d1b 01       		.uleb128 0x1
 2697 0d1c 50       		.byte	0x50
 2698 0d1d 02       		.uleb128 0x2
 2699 0d1e 09       		.byte	0x9
 2700 0d1f FF       		.byte	0xff
 2701 0d20 00       		.byte	0
 2702 0d21 18       		.uleb128 0x18
 2703 0d22 32000000 		.4byte	.LVL97
 2704 0d26 6B0E0000 		.4byte	0xe6b
 2705 0d2a 340D0000 		.4byte	0xd34
 2706 0d2e 19       		.uleb128 0x19
 2707 0d2f 01       		.uleb128 0x1
 2708 0d30 50       		.byte	0x50
 2709 0d31 01       		.uleb128 0x1
 2710 0d32 32       		.byte	0x32
 2711 0d33 00       		.byte	0
 2712 0d34 18       		.uleb128 0x18
 2713 0d35 40000000 		.4byte	.LVL98
 2714 0d39 3E0F0000 		.4byte	0xf3e
 2715 0d3d 480D0000 		.4byte	0xd48
 2716 0d41 19       		.uleb128 0x19
 2717 0d42 01       		.uleb128 0x1
 2718 0d43 50       		.byte	0x50
 2719 0d44 02       		.uleb128 0x2
 2720 0d45 09       		.byte	0x9
 2721 0d46 FF       		.byte	0xff
 2722 0d47 00       		.byte	0
 2723 0d48 1A       		.uleb128 0x1a
 2724 0d49 4C000000 		.4byte	.LVL100
ARM GAS  /tmp/cc62Brnt.s 			page 49


 2725 0d4d 6B0E0000 		.4byte	0xe6b
 2726 0d51 19       		.uleb128 0x19
 2727 0d52 01       		.uleb128 0x1
 2728 0d53 50       		.byte	0x50
 2729 0d54 01       		.uleb128 0x1
 2730 0d55 33       		.byte	0x33
 2731 0d56 00       		.byte	0
 2732 0d57 00       		.byte	0
 2733 0d58 17       		.uleb128 0x17
 2734 0d59 65733100 		.ascii	"es1\000"
 2735 0d5d 01       		.byte	0x1
 2736 0d5e 3B       		.byte	0x3b
 2737 0d5f EC040000 		.4byte	0x4ec
 2738 0d63 05       		.uleb128 0x5
 2739 0d64 03       		.byte	0x3
 2740 0d65 00000000 		.4byte	es1
 2741 0d69 17       		.uleb128 0x17
 2742 0d6a 65733200 		.ascii	"es2\000"
 2743 0d6e 01       		.byte	0x1
 2744 0d6f 3C       		.byte	0x3c
 2745 0d70 EC040000 		.4byte	0x4ec
 2746 0d74 05       		.uleb128 0x5
 2747 0d75 03       		.byte	0x3
 2748 0d76 00000000 		.4byte	es2
 2749 0d7a 25       		.uleb128 0x25
 2750 0d7b 8A0D0000 		.4byte	0xd8a
 2751 0d7f 8A0D0000 		.4byte	0xd8a
 2752 0d83 26       		.uleb128 0x26
 2753 0d84 21030000 		.4byte	0x321
 2754 0d88 02       		.byte	0x2
 2755 0d89 00       		.byte	0
 2756 0d8a 12       		.uleb128 0x12
 2757 0d8b F7040000 		.4byte	0x4f7
 2758 0d8f 27       		.uleb128 0x27
 2759 0d90 E4040000 		.4byte	.LASF96
 2760 0d94 01       		.byte	0x1
 2761 0d95 53       		.byte	0x53
 2762 0d96 A00D0000 		.4byte	0xda0
 2763 0d9a 05       		.uleb128 0x5
 2764 0d9b 03       		.byte	0x3
 2765 0d9c 00000000 		.4byte	evhndl
 2766 0da0 12       		.uleb128 0x12
 2767 0da1 7A0D0000 		.4byte	0xd7a
 2768 0da5 28       		.uleb128 0x28
 2769 0da6 18000000 		.4byte	.LASF97
 2770 0daa 08       		.byte	0x8
 2771 0dab F5       		.byte	0xf5
 2772 0dac DC030000 		.4byte	0x3dc
 2773 0db0 28       		.uleb128 0x28
 2774 0db1 B9050000 		.4byte	.LASF98
 2775 0db5 09       		.byte	0x9
 2776 0db6 6F       		.byte	0x6f
 2777 0db7 38040000 		.4byte	0x438
 2778 0dbb 25       		.uleb128 0x25
 2779 0dbc 46020000 		.4byte	0x246
 2780 0dc0 CB0D0000 		.4byte	0xdcb
 2781 0dc4 26       		.uleb128 0x26
ARM GAS  /tmp/cc62Brnt.s 			page 50


 2782 0dc5 21030000 		.4byte	0x321
 2783 0dc9 04       		.byte	0x4
 2784 0dca 00       		.byte	0
 2785 0dcb 28       		.uleb128 0x28
 2786 0dcc 9B040000 		.4byte	.LASF99
 2787 0dd0 0C       		.byte	0xc
 2788 0dd1 A5       		.byte	0xa5
 2789 0dd2 BB0D0000 		.4byte	0xdbb
 2790 0dd6 25       		.uleb128 0x25
 2791 0dd7 E10D0000 		.4byte	0xde1
 2792 0ddb E10D0000 		.4byte	0xde1
 2793 0ddf 29       		.uleb128 0x29
 2794 0de0 00       		.byte	0
 2795 0de1 12       		.uleb128 0x12
 2796 0de2 82020000 		.4byte	0x282
 2797 0de6 2A       		.uleb128 0x2a
 2798 0de7 776100   		.ascii	"wa\000"
 2799 0dea 0C       		.byte	0xc
 2800 0deb A7       		.byte	0xa7
 2801 0dec F00D0000 		.4byte	0xdf0
 2802 0df0 12       		.uleb128 0x12
 2803 0df1 D60D0000 		.4byte	0xdd6
 2804 0df5 2B       		.uleb128 0x2b
 2805 0df6 DB040000 		.4byte	.LASF100
 2806 0dfa 01       		.byte	0x1
 2807 0dfb 6B       		.byte	0x6b
 2808 0dfc 060E0000 		.4byte	0xe06
 2809 0e00 05       		.uleb128 0x5
 2810 0e01 03       		.byte	0x3
 2811 0e02 00000000 		.4byte	testevt1
 2812 0e06 12       		.uleb128 0x12
 2813 0e07 60050000 		.4byte	0x560
 2814 0e0b 2B       		.uleb128 0x2b
 2815 0e0c EB010000 		.4byte	.LASF101
 2816 0e10 01       		.byte	0x1
 2817 0e11 E2       		.byte	0xe2
 2818 0e12 060E0000 		.4byte	0xe06
 2819 0e16 05       		.uleb128 0x5
 2820 0e17 03       		.byte	0x3
 2821 0e18 00000000 		.4byte	testevt2
 2822 0e1c 2C       		.uleb128 0x2c
 2823 0e1d 01020000 		.4byte	.LASF102
 2824 0e21 01       		.byte	0x1
 2825 0e22 1201     		.2byte	0x112
 2826 0e24 060E0000 		.4byte	0xe06
 2827 0e28 05       		.uleb128 0x5
 2828 0e29 03       		.byte	0x3
 2829 0e2a 00000000 		.4byte	testevt3
 2830 0e2e 25       		.uleb128 0x25
 2831 0e2f 440E0000 		.4byte	0xe44
 2832 0e33 3E0E0000 		.4byte	0xe3e
 2833 0e37 26       		.uleb128 0x26
 2834 0e38 21030000 		.4byte	0x321
 2835 0e3c 03       		.byte	0x3
 2836 0e3d 00       		.byte	0
 2837 0e3e 09       		.uleb128 0x9
 2838 0e3f 04       		.byte	0x4
ARM GAS  /tmp/cc62Brnt.s 			page 51


 2839 0e40 060E0000 		.4byte	0xe06
 2840 0e44 12       		.uleb128 0x12
 2841 0e45 3E0E0000 		.4byte	0xe3e
 2842 0e49 2C       		.uleb128 0x2c
 2843 0e4a AB020000 		.4byte	.LASF103
 2844 0e4e 01       		.byte	0x1
 2845 0e4f 1D01     		.2byte	0x11d
 2846 0e51 5B0E0000 		.4byte	0xe5b
 2847 0e55 05       		.uleb128 0x5
 2848 0e56 03       		.byte	0x3
 2849 0e57 00000000 		.4byte	patternevt
 2850 0e5b 12       		.uleb128 0x12
 2851 0e5c 2E0E0000 		.4byte	0xe2e
 2852 0e60 2D       		.uleb128 0x2d
 2853 0e61 D7020000 		.4byte	.LASF104
 2854 0e65 D7020000 		.4byte	.LASF104
 2855 0e69 0B       		.byte	0xb
 2856 0e6a AF       		.byte	0xaf
 2857 0e6b 2D       		.uleb128 0x2d
 2858 0e6c F7050000 		.4byte	.LASF105
 2859 0e70 F7050000 		.4byte	.LASF105
 2860 0e74 0C       		.byte	0xc
 2861 0e75 58       		.byte	0x58
 2862 0e76 2D       		.uleb128 0x2d
 2863 0e77 FF020000 		.4byte	.LASF106
 2864 0e7b FF020000 		.4byte	.LASF106
 2865 0e7f 0B       		.byte	0xb
 2866 0e80 B2       		.byte	0xb2
 2867 0e81 2D       		.uleb128 0x2d
 2868 0e82 64030000 		.4byte	.LASF107
 2869 0e86 64030000 		.4byte	.LASF107
 2870 0e8a 0B       		.byte	0xb
 2871 0e8b BB       		.byte	0xbb
 2872 0e8c 2D       		.uleb128 0x2d
 2873 0e8d CE030000 		.4byte	.LASF108
 2874 0e91 CE030000 		.4byte	.LASF108
 2875 0e95 0C       		.byte	0xc
 2876 0e96 59       		.byte	0x59
 2877 0e97 2D       		.uleb128 0x2d
 2878 0e98 9A010000 		.4byte	.LASF109
 2879 0e9c 9A010000 		.4byte	.LASF109
 2880 0ea0 0C       		.byte	0xc
 2881 0ea1 56       		.byte	0x56
 2882 0ea2 2D       		.uleb128 0x2d
 2883 0ea3 8B020000 		.4byte	.LASF110
 2884 0ea7 8B020000 		.4byte	.LASF110
 2885 0eab 0B       		.byte	0xb
 2886 0eac B3       		.byte	0xb3
 2887 0ead 2D       		.uleb128 0x2d
 2888 0eae 1C010000 		.4byte	.LASF111
 2889 0eb2 1C010000 		.4byte	.LASF111
 2890 0eb6 0B       		.byte	0xb
 2891 0eb7 B4       		.byte	0xb4
 2892 0eb8 2D       		.uleb128 0x2d
 2893 0eb9 46040000 		.4byte	.LASF112
 2894 0ebd 46040000 		.4byte	.LASF112
 2895 0ec1 0B       		.byte	0xb
ARM GAS  /tmp/cc62Brnt.s 			page 52


 2896 0ec2 BD       		.byte	0xbd
 2897 0ec3 2D       		.uleb128 0x2d
 2898 0ec4 26060000 		.4byte	.LASF113
 2899 0ec8 26060000 		.4byte	.LASF113
 2900 0ecc 0C       		.byte	0xc
 2901 0ecd 5D       		.byte	0x5d
 2902 0ece 2E       		.uleb128 0x2e
 2903 0ecf 35030000 		.4byte	.LASF114
 2904 0ed3 35030000 		.4byte	.LASF114
 2905 0ed7 06       		.byte	0x6
 2906 0ed8 7001     		.2byte	0x170
 2907 0eda 2D       		.uleb128 0x2d
 2908 0edb D2010000 		.4byte	.LASF115
 2909 0edf D2010000 		.4byte	.LASF115
 2910 0ee3 0C       		.byte	0xc
 2911 0ee4 5A       		.byte	0x5a
 2912 0ee5 2D       		.uleb128 0x2d
 2913 0ee6 0E050000 		.4byte	.LASF116
 2914 0eea 0E050000 		.4byte	.LASF116
 2915 0eee 0C       		.byte	0xc
 2916 0eef 5C       		.byte	0x5c
 2917 0ef0 2D       		.uleb128 0x2d
 2918 0ef1 F4010000 		.4byte	.LASF117
 2919 0ef5 F4010000 		.4byte	.LASF117
 2920 0ef9 0B       		.byte	0xb
 2921 0efa BE       		.byte	0xbe
 2922 0efb 2D       		.uleb128 0x2d
 2923 0efc E4030000 		.4byte	.LASF118
 2924 0f00 E4030000 		.4byte	.LASF118
 2925 0f04 0B       		.byte	0xb
 2926 0f05 BF       		.byte	0xbf
 2927 0f06 2D       		.uleb128 0x2d
 2928 0f07 2E020000 		.4byte	.LASF119
 2929 0f0b 2E020000 		.4byte	.LASF119
 2930 0f0f 0B       		.byte	0xb
 2931 0f10 B9       		.byte	0xb9
 2932 0f11 2E       		.uleb128 0x2e
 2933 0f12 73050000 		.4byte	.LASF120
 2934 0f16 73050000 		.4byte	.LASF120
 2935 0f1a 06       		.byte	0x6
 2936 0f1b 7501     		.2byte	0x175
 2937 0f1d 2D       		.uleb128 0x2d
 2938 0f1e 1F000000 		.4byte	.LASF121
 2939 0f22 1F000000 		.4byte	.LASF121
 2940 0f26 0B       		.byte	0xb
 2941 0f27 B7       		.byte	0xb7
 2942 0f28 2D       		.uleb128 0x2d
 2943 0f29 D5050000 		.4byte	.LASF122
 2944 0f2d D5050000 		.4byte	.LASF122
 2945 0f31 0B       		.byte	0xb
 2946 0f32 C2       		.byte	0xc2
 2947 0f33 2D       		.uleb128 0x2d
 2948 0f34 34010000 		.4byte	.LASF123
 2949 0f38 34010000 		.4byte	.LASF123
 2950 0f3c 0B       		.byte	0xb
 2951 0f3d C3       		.byte	0xc3
 2952 0f3e 2D       		.uleb128 0x2d
ARM GAS  /tmp/cc62Brnt.s 			page 53


 2953 0f3f 76010000 		.4byte	.LASF124
 2954 0f43 76010000 		.4byte	.LASF124
 2955 0f47 0B       		.byte	0xb
 2956 0f48 C4       		.byte	0xc4
 2957 0f49 00       		.byte	0
 2958              		.section	.debug_abbrev,"",%progbits
 2959              	.Ldebug_abbrev0:
 2960 0000 01       		.uleb128 0x1
 2961 0001 11       		.uleb128 0x11
 2962 0002 01       		.byte	0x1
 2963 0003 25       		.uleb128 0x25
 2964 0004 0E       		.uleb128 0xe
 2965 0005 13       		.uleb128 0x13
 2966 0006 0B       		.uleb128 0xb
 2967 0007 03       		.uleb128 0x3
 2968 0008 0E       		.uleb128 0xe
 2969 0009 1B       		.uleb128 0x1b
 2970 000a 0E       		.uleb128 0xe
 2971 000b 55       		.uleb128 0x55
 2972 000c 17       		.uleb128 0x17
 2973 000d 11       		.uleb128 0x11
 2974 000e 01       		.uleb128 0x1
 2975 000f 10       		.uleb128 0x10
 2976 0010 17       		.uleb128 0x17
 2977 0011 00       		.byte	0
 2978 0012 00       		.byte	0
 2979 0013 02       		.uleb128 0x2
 2980 0014 24       		.uleb128 0x24
 2981 0015 00       		.byte	0
 2982 0016 0B       		.uleb128 0xb
 2983 0017 0B       		.uleb128 0xb
 2984 0018 3E       		.uleb128 0x3e
 2985 0019 0B       		.uleb128 0xb
 2986 001a 03       		.uleb128 0x3
 2987 001b 08       		.uleb128 0x8
 2988 001c 00       		.byte	0
 2989 001d 00       		.byte	0
 2990 001e 03       		.uleb128 0x3
 2991 001f 24       		.uleb128 0x24
 2992 0020 00       		.byte	0
 2993 0021 0B       		.uleb128 0xb
 2994 0022 0B       		.uleb128 0xb
 2995 0023 3E       		.uleb128 0x3e
 2996 0024 0B       		.uleb128 0xb
 2997 0025 03       		.uleb128 0x3
 2998 0026 0E       		.uleb128 0xe
 2999 0027 00       		.byte	0
 3000 0028 00       		.byte	0
 3001 0029 04       		.uleb128 0x4
 3002 002a 16       		.uleb128 0x16
 3003 002b 00       		.byte	0
 3004 002c 03       		.uleb128 0x3
 3005 002d 0E       		.uleb128 0xe
 3006 002e 3A       		.uleb128 0x3a
 3007 002f 0B       		.uleb128 0xb
 3008 0030 3B       		.uleb128 0x3b
 3009 0031 0B       		.uleb128 0xb
ARM GAS  /tmp/cc62Brnt.s 			page 54


 3010 0032 49       		.uleb128 0x49
 3011 0033 13       		.uleb128 0x13
 3012 0034 00       		.byte	0
 3013 0035 00       		.byte	0
 3014 0036 05       		.uleb128 0x5
 3015 0037 13       		.uleb128 0x13
 3016 0038 01       		.byte	0x1
 3017 0039 03       		.uleb128 0x3
 3018 003a 0E       		.uleb128 0xe
 3019 003b 0B       		.uleb128 0xb
 3020 003c 0B       		.uleb128 0xb
 3021 003d 3A       		.uleb128 0x3a
 3022 003e 0B       		.uleb128 0xb
 3023 003f 3B       		.uleb128 0x3b
 3024 0040 0B       		.uleb128 0xb
 3025 0041 01       		.uleb128 0x1
 3026 0042 13       		.uleb128 0x13
 3027 0043 00       		.byte	0
 3028 0044 00       		.byte	0
 3029 0045 06       		.uleb128 0x6
 3030 0046 0D       		.uleb128 0xd
 3031 0047 00       		.byte	0
 3032 0048 03       		.uleb128 0x3
 3033 0049 0E       		.uleb128 0xe
 3034 004a 3A       		.uleb128 0x3a
 3035 004b 0B       		.uleb128 0xb
 3036 004c 3B       		.uleb128 0x3b
 3037 004d 0B       		.uleb128 0xb
 3038 004e 49       		.uleb128 0x49
 3039 004f 13       		.uleb128 0x13
 3040 0050 38       		.uleb128 0x38
 3041 0051 0B       		.uleb128 0xb
 3042 0052 00       		.byte	0
 3043 0053 00       		.byte	0
 3044 0054 07       		.uleb128 0x7
 3045 0055 0D       		.uleb128 0xd
 3046 0056 00       		.byte	0
 3047 0057 03       		.uleb128 0x3
 3048 0058 08       		.uleb128 0x8
 3049 0059 3A       		.uleb128 0x3a
 3050 005a 0B       		.uleb128 0xb
 3051 005b 3B       		.uleb128 0x3b
 3052 005c 0B       		.uleb128 0xb
 3053 005d 49       		.uleb128 0x49
 3054 005e 13       		.uleb128 0x13
 3055 005f 38       		.uleb128 0x38
 3056 0060 0B       		.uleb128 0xb
 3057 0061 00       		.byte	0
 3058 0062 00       		.byte	0
 3059 0063 08       		.uleb128 0x8
 3060 0064 13       		.uleb128 0x13
 3061 0065 01       		.byte	0x1
 3062 0066 0B       		.uleb128 0xb
 3063 0067 0B       		.uleb128 0xb
 3064 0068 3A       		.uleb128 0x3a
 3065 0069 0B       		.uleb128 0xb
 3066 006a 3B       		.uleb128 0x3b
ARM GAS  /tmp/cc62Brnt.s 			page 55


 3067 006b 0B       		.uleb128 0xb
 3068 006c 01       		.uleb128 0x1
 3069 006d 13       		.uleb128 0x13
 3070 006e 00       		.byte	0
 3071 006f 00       		.byte	0
 3072 0070 09       		.uleb128 0x9
 3073 0071 0F       		.uleb128 0xf
 3074 0072 00       		.byte	0
 3075 0073 0B       		.uleb128 0xb
 3076 0074 0B       		.uleb128 0xb
 3077 0075 49       		.uleb128 0x49
 3078 0076 13       		.uleb128 0x13
 3079 0077 00       		.byte	0
 3080 0078 00       		.byte	0
 3081 0079 0A       		.uleb128 0xa
 3082 007a 0F       		.uleb128 0xf
 3083 007b 00       		.byte	0
 3084 007c 0B       		.uleb128 0xb
 3085 007d 0B       		.uleb128 0xb
 3086 007e 00       		.byte	0
 3087 007f 00       		.byte	0
 3088 0080 0B       		.uleb128 0xb
 3089 0081 13       		.uleb128 0x13
 3090 0082 01       		.byte	0x1
 3091 0083 03       		.uleb128 0x3
 3092 0084 0E       		.uleb128 0xe
 3093 0085 0B       		.uleb128 0xb
 3094 0086 0B       		.uleb128 0xb
 3095 0087 3A       		.uleb128 0x3a
 3096 0088 0B       		.uleb128 0xb
 3097 0089 3B       		.uleb128 0x3b
 3098 008a 05       		.uleb128 0x5
 3099 008b 01       		.uleb128 0x1
 3100 008c 13       		.uleb128 0x13
 3101 008d 00       		.byte	0
 3102 008e 00       		.byte	0
 3103 008f 0C       		.uleb128 0xc
 3104 0090 0D       		.uleb128 0xd
 3105 0091 00       		.byte	0
 3106 0092 03       		.uleb128 0x3
 3107 0093 08       		.uleb128 0x8
 3108 0094 3A       		.uleb128 0x3a
 3109 0095 0B       		.uleb128 0xb
 3110 0096 3B       		.uleb128 0x3b
 3111 0097 05       		.uleb128 0x5
 3112 0098 49       		.uleb128 0x49
 3113 0099 13       		.uleb128 0x13
 3114 009a 38       		.uleb128 0x38
 3115 009b 0B       		.uleb128 0xb
 3116 009c 00       		.byte	0
 3117 009d 00       		.byte	0
 3118 009e 0D       		.uleb128 0xd
 3119 009f 15       		.uleb128 0x15
 3120 00a0 01       		.byte	0x1
 3121 00a1 27       		.uleb128 0x27
 3122 00a2 19       		.uleb128 0x19
 3123 00a3 01       		.uleb128 0x1
ARM GAS  /tmp/cc62Brnt.s 			page 56


 3124 00a4 13       		.uleb128 0x13
 3125 00a5 00       		.byte	0
 3126 00a6 00       		.byte	0
 3127 00a7 0E       		.uleb128 0xe
 3128 00a8 05       		.uleb128 0x5
 3129 00a9 00       		.byte	0
 3130 00aa 49       		.uleb128 0x49
 3131 00ab 13       		.uleb128 0x13
 3132 00ac 00       		.byte	0
 3133 00ad 00       		.byte	0
 3134 00ae 0F       		.uleb128 0xf
 3135 00af 35       		.uleb128 0x35
 3136 00b0 00       		.byte	0
 3137 00b1 49       		.uleb128 0x49
 3138 00b2 13       		.uleb128 0x13
 3139 00b3 00       		.byte	0
 3140 00b4 00       		.byte	0
 3141 00b5 10       		.uleb128 0x10
 3142 00b6 17       		.uleb128 0x17
 3143 00b7 01       		.byte	0x1
 3144 00b8 0B       		.uleb128 0xb
 3145 00b9 0B       		.uleb128 0xb
 3146 00ba 3A       		.uleb128 0x3a
 3147 00bb 0B       		.uleb128 0xb
 3148 00bc 3B       		.uleb128 0x3b
 3149 00bd 0B       		.uleb128 0xb
 3150 00be 01       		.uleb128 0x1
 3151 00bf 13       		.uleb128 0x13
 3152 00c0 00       		.byte	0
 3153 00c1 00       		.byte	0
 3154 00c2 11       		.uleb128 0x11
 3155 00c3 0D       		.uleb128 0xd
 3156 00c4 00       		.byte	0
 3157 00c5 03       		.uleb128 0x3
 3158 00c6 0E       		.uleb128 0xe
 3159 00c7 3A       		.uleb128 0x3a
 3160 00c8 0B       		.uleb128 0xb
 3161 00c9 3B       		.uleb128 0x3b
 3162 00ca 0B       		.uleb128 0xb
 3163 00cb 49       		.uleb128 0x49
 3164 00cc 13       		.uleb128 0x13
 3165 00cd 00       		.byte	0
 3166 00ce 00       		.byte	0
 3167 00cf 12       		.uleb128 0x12
 3168 00d0 26       		.uleb128 0x26
 3169 00d1 00       		.byte	0
 3170 00d2 49       		.uleb128 0x49
 3171 00d3 13       		.uleb128 0x13
 3172 00d4 00       		.byte	0
 3173 00d5 00       		.byte	0
 3174 00d6 13       		.uleb128 0x13
 3175 00d7 15       		.uleb128 0x15
 3176 00d8 00       		.byte	0
 3177 00d9 27       		.uleb128 0x27
 3178 00da 19       		.uleb128 0x19
 3179 00db 00       		.byte	0
 3180 00dc 00       		.byte	0
ARM GAS  /tmp/cc62Brnt.s 			page 57


 3181 00dd 14       		.uleb128 0x14
 3182 00de 2E       		.uleb128 0x2e
 3183 00df 01       		.byte	0x1
 3184 00e0 03       		.uleb128 0x3
 3185 00e1 0E       		.uleb128 0xe
 3186 00e2 3A       		.uleb128 0x3a
 3187 00e3 0B       		.uleb128 0xb
 3188 00e4 3B       		.uleb128 0x3b
 3189 00e5 0B       		.uleb128 0xb
 3190 00e6 27       		.uleb128 0x27
 3191 00e7 19       		.uleb128 0x19
 3192 00e8 20       		.uleb128 0x20
 3193 00e9 0B       		.uleb128 0xb
 3194 00ea 01       		.uleb128 0x1
 3195 00eb 13       		.uleb128 0x13
 3196 00ec 00       		.byte	0
 3197 00ed 00       		.byte	0
 3198 00ee 15       		.uleb128 0x15
 3199 00ef 34       		.uleb128 0x34
 3200 00f0 00       		.byte	0
 3201 00f1 03       		.uleb128 0x3
 3202 00f2 08       		.uleb128 0x8
 3203 00f3 3A       		.uleb128 0x3a
 3204 00f4 0B       		.uleb128 0xb
 3205 00f5 3B       		.uleb128 0x3b
 3206 00f6 0B       		.uleb128 0xb
 3207 00f7 49       		.uleb128 0x49
 3208 00f8 13       		.uleb128 0x13
 3209 00f9 00       		.byte	0
 3210 00fa 00       		.byte	0
 3211 00fb 16       		.uleb128 0x16
 3212 00fc 2E       		.uleb128 0x2e
 3213 00fd 01       		.byte	0x1
 3214 00fe 03       		.uleb128 0x3
 3215 00ff 0E       		.uleb128 0xe
 3216 0100 3A       		.uleb128 0x3a
 3217 0101 0B       		.uleb128 0xb
 3218 0102 3B       		.uleb128 0x3b
 3219 0103 0B       		.uleb128 0xb
 3220 0104 27       		.uleb128 0x27
 3221 0105 19       		.uleb128 0x19
 3222 0106 11       		.uleb128 0x11
 3223 0107 01       		.uleb128 0x1
 3224 0108 12       		.uleb128 0x12
 3225 0109 06       		.uleb128 0x6
 3226 010a 40       		.uleb128 0x40
 3227 010b 18       		.uleb128 0x18
 3228 010c 9742     		.uleb128 0x2117
 3229 010e 19       		.uleb128 0x19
 3230 010f 01       		.uleb128 0x1
 3231 0110 13       		.uleb128 0x13
 3232 0111 00       		.byte	0
 3233 0112 00       		.byte	0
 3234 0113 17       		.uleb128 0x17
 3235 0114 34       		.uleb128 0x34
 3236 0115 00       		.byte	0
 3237 0116 03       		.uleb128 0x3
ARM GAS  /tmp/cc62Brnt.s 			page 58


 3238 0117 08       		.uleb128 0x8
 3239 0118 3A       		.uleb128 0x3a
 3240 0119 0B       		.uleb128 0xb
 3241 011a 3B       		.uleb128 0x3b
 3242 011b 0B       		.uleb128 0xb
 3243 011c 49       		.uleb128 0x49
 3244 011d 13       		.uleb128 0x13
 3245 011e 02       		.uleb128 0x2
 3246 011f 18       		.uleb128 0x18
 3247 0120 00       		.byte	0
 3248 0121 00       		.byte	0
 3249 0122 18       		.uleb128 0x18
 3250 0123 898201   		.uleb128 0x4109
 3251 0126 01       		.byte	0x1
 3252 0127 11       		.uleb128 0x11
 3253 0128 01       		.uleb128 0x1
 3254 0129 31       		.uleb128 0x31
 3255 012a 13       		.uleb128 0x13
 3256 012b 01       		.uleb128 0x1
 3257 012c 13       		.uleb128 0x13
 3258 012d 00       		.byte	0
 3259 012e 00       		.byte	0
 3260 012f 19       		.uleb128 0x19
 3261 0130 8A8201   		.uleb128 0x410a
 3262 0133 00       		.byte	0
 3263 0134 02       		.uleb128 0x2
 3264 0135 18       		.uleb128 0x18
 3265 0136 9142     		.uleb128 0x2111
 3266 0138 18       		.uleb128 0x18
 3267 0139 00       		.byte	0
 3268 013a 00       		.byte	0
 3269 013b 1A       		.uleb128 0x1a
 3270 013c 898201   		.uleb128 0x4109
 3271 013f 01       		.byte	0x1
 3272 0140 11       		.uleb128 0x11
 3273 0141 01       		.uleb128 0x1
 3274 0142 31       		.uleb128 0x31
 3275 0143 13       		.uleb128 0x13
 3276 0144 00       		.byte	0
 3277 0145 00       		.byte	0
 3278 0146 1B       		.uleb128 0x1b
 3279 0147 2E       		.uleb128 0x2e
 3280 0148 01       		.byte	0x1
 3281 0149 03       		.uleb128 0x3
 3282 014a 08       		.uleb128 0x8
 3283 014b 3A       		.uleb128 0x3a
 3284 014c 0B       		.uleb128 0xb
 3285 014d 3B       		.uleb128 0x3b
 3286 014e 0B       		.uleb128 0xb
 3287 014f 27       		.uleb128 0x27
 3288 0150 19       		.uleb128 0x19
 3289 0151 11       		.uleb128 0x11
 3290 0152 01       		.uleb128 0x1
 3291 0153 12       		.uleb128 0x12
 3292 0154 06       		.uleb128 0x6
 3293 0155 40       		.uleb128 0x40
 3294 0156 18       		.uleb128 0x18
ARM GAS  /tmp/cc62Brnt.s 			page 59


 3295 0157 9742     		.uleb128 0x2117
 3296 0159 19       		.uleb128 0x19
 3297 015a 01       		.uleb128 0x1
 3298 015b 13       		.uleb128 0x13
 3299 015c 00       		.byte	0
 3300 015d 00       		.byte	0
 3301 015e 1C       		.uleb128 0x1c
 3302 015f 05       		.uleb128 0x5
 3303 0160 00       		.byte	0
 3304 0161 03       		.uleb128 0x3
 3305 0162 08       		.uleb128 0x8
 3306 0163 3A       		.uleb128 0x3a
 3307 0164 0B       		.uleb128 0xb
 3308 0165 3B       		.uleb128 0x3b
 3309 0166 0B       		.uleb128 0xb
 3310 0167 49       		.uleb128 0x49
 3311 0168 13       		.uleb128 0x13
 3312 0169 02       		.uleb128 0x2
 3313 016a 17       		.uleb128 0x17
 3314 016b 00       		.byte	0
 3315 016c 00       		.byte	0
 3316 016d 1D       		.uleb128 0x1d
 3317 016e 898201   		.uleb128 0x4109
 3318 0171 01       		.byte	0x1
 3319 0172 11       		.uleb128 0x11
 3320 0173 01       		.uleb128 0x1
 3321 0174 9542     		.uleb128 0x2115
 3322 0176 19       		.uleb128 0x19
 3323 0177 31       		.uleb128 0x31
 3324 0178 13       		.uleb128 0x13
 3325 0179 00       		.byte	0
 3326 017a 00       		.byte	0
 3327 017b 1E       		.uleb128 0x1e
 3328 017c 34       		.uleb128 0x34
 3329 017d 00       		.byte	0
 3330 017e 03       		.uleb128 0x3
 3331 017f 08       		.uleb128 0x8
 3332 0180 3A       		.uleb128 0x3a
 3333 0181 0B       		.uleb128 0xb
 3334 0182 3B       		.uleb128 0x3b
 3335 0183 0B       		.uleb128 0xb
 3336 0184 49       		.uleb128 0x49
 3337 0185 13       		.uleb128 0x13
 3338 0186 02       		.uleb128 0x2
 3339 0187 17       		.uleb128 0x17
 3340 0188 00       		.byte	0
 3341 0189 00       		.byte	0
 3342 018a 1F       		.uleb128 0x1f
 3343 018b 34       		.uleb128 0x34
 3344 018c 00       		.byte	0
 3345 018d 03       		.uleb128 0x3
 3346 018e 0E       		.uleb128 0xe
 3347 018f 3A       		.uleb128 0x3a
 3348 0190 0B       		.uleb128 0xb
 3349 0191 3B       		.uleb128 0x3b
 3350 0192 0B       		.uleb128 0xb
 3351 0193 49       		.uleb128 0x49
ARM GAS  /tmp/cc62Brnt.s 			page 60


 3352 0194 13       		.uleb128 0x13
 3353 0195 02       		.uleb128 0x2
 3354 0196 17       		.uleb128 0x17
 3355 0197 00       		.byte	0
 3356 0198 00       		.byte	0
 3357 0199 20       		.uleb128 0x20
 3358 019a 898201   		.uleb128 0x4109
 3359 019d 00       		.byte	0
 3360 019e 11       		.uleb128 0x11
 3361 019f 01       		.uleb128 0x1
 3362 01a0 31       		.uleb128 0x31
 3363 01a1 13       		.uleb128 0x13
 3364 01a2 00       		.byte	0
 3365 01a3 00       		.byte	0
 3366 01a4 21       		.uleb128 0x21
 3367 01a5 2E       		.uleb128 0x2e
 3368 01a6 01       		.byte	0x1
 3369 01a7 03       		.uleb128 0x3
 3370 01a8 0E       		.uleb128 0xe
 3371 01a9 3A       		.uleb128 0x3a
 3372 01aa 0B       		.uleb128 0xb
 3373 01ab 3B       		.uleb128 0x3b
 3374 01ac 0B       		.uleb128 0xb
 3375 01ad 27       		.uleb128 0x27
 3376 01ae 19       		.uleb128 0x19
 3377 01af 49       		.uleb128 0x49
 3378 01b0 13       		.uleb128 0x13
 3379 01b1 11       		.uleb128 0x11
 3380 01b2 01       		.uleb128 0x1
 3381 01b3 12       		.uleb128 0x12
 3382 01b4 06       		.uleb128 0x6
 3383 01b5 40       		.uleb128 0x40
 3384 01b6 18       		.uleb128 0x18
 3385 01b7 9742     		.uleb128 0x2117
 3386 01b9 19       		.uleb128 0x19
 3387 01ba 01       		.uleb128 0x1
 3388 01bb 13       		.uleb128 0x13
 3389 01bc 00       		.byte	0
 3390 01bd 00       		.byte	0
 3391 01be 22       		.uleb128 0x22
 3392 01bf 2E       		.uleb128 0x2e
 3393 01c0 01       		.byte	0x1
 3394 01c1 31       		.uleb128 0x31
 3395 01c2 13       		.uleb128 0x13
 3396 01c3 11       		.uleb128 0x11
 3397 01c4 01       		.uleb128 0x1
 3398 01c5 12       		.uleb128 0x12
 3399 01c6 06       		.uleb128 0x6
 3400 01c7 40       		.uleb128 0x40
 3401 01c8 18       		.uleb128 0x18
 3402 01c9 9742     		.uleb128 0x2117
 3403 01cb 19       		.uleb128 0x19
 3404 01cc 01       		.uleb128 0x1
 3405 01cd 13       		.uleb128 0x13
 3406 01ce 00       		.byte	0
 3407 01cf 00       		.byte	0
 3408 01d0 23       		.uleb128 0x23
ARM GAS  /tmp/cc62Brnt.s 			page 61


 3409 01d1 34       		.uleb128 0x34
 3410 01d2 00       		.byte	0
 3411 01d3 31       		.uleb128 0x31
 3412 01d4 13       		.uleb128 0x13
 3413 01d5 02       		.uleb128 0x2
 3414 01d6 17       		.uleb128 0x17
 3415 01d7 00       		.byte	0
 3416 01d8 00       		.byte	0
 3417 01d9 24       		.uleb128 0x24
 3418 01da 0B       		.uleb128 0xb
 3419 01db 01       		.byte	0x1
 3420 01dc 55       		.uleb128 0x55
 3421 01dd 17       		.uleb128 0x17
 3422 01de 01       		.uleb128 0x1
 3423 01df 13       		.uleb128 0x13
 3424 01e0 00       		.byte	0
 3425 01e1 00       		.byte	0
 3426 01e2 25       		.uleb128 0x25
 3427 01e3 01       		.uleb128 0x1
 3428 01e4 01       		.byte	0x1
 3429 01e5 49       		.uleb128 0x49
 3430 01e6 13       		.uleb128 0x13
 3431 01e7 01       		.uleb128 0x1
 3432 01e8 13       		.uleb128 0x13
 3433 01e9 00       		.byte	0
 3434 01ea 00       		.byte	0
 3435 01eb 26       		.uleb128 0x26
 3436 01ec 21       		.uleb128 0x21
 3437 01ed 00       		.byte	0
 3438 01ee 49       		.uleb128 0x49
 3439 01ef 13       		.uleb128 0x13
 3440 01f0 2F       		.uleb128 0x2f
 3441 01f1 0B       		.uleb128 0xb
 3442 01f2 00       		.byte	0
 3443 01f3 00       		.byte	0
 3444 01f4 27       		.uleb128 0x27
 3445 01f5 34       		.uleb128 0x34
 3446 01f6 00       		.byte	0
 3447 01f7 03       		.uleb128 0x3
 3448 01f8 0E       		.uleb128 0xe
 3449 01f9 3A       		.uleb128 0x3a
 3450 01fa 0B       		.uleb128 0xb
 3451 01fb 3B       		.uleb128 0x3b
 3452 01fc 0B       		.uleb128 0xb
 3453 01fd 49       		.uleb128 0x49
 3454 01fe 13       		.uleb128 0x13
 3455 01ff 02       		.uleb128 0x2
 3456 0200 18       		.uleb128 0x18
 3457 0201 00       		.byte	0
 3458 0202 00       		.byte	0
 3459 0203 28       		.uleb128 0x28
 3460 0204 34       		.uleb128 0x34
 3461 0205 00       		.byte	0
 3462 0206 03       		.uleb128 0x3
 3463 0207 0E       		.uleb128 0xe
 3464 0208 3A       		.uleb128 0x3a
 3465 0209 0B       		.uleb128 0xb
ARM GAS  /tmp/cc62Brnt.s 			page 62


 3466 020a 3B       		.uleb128 0x3b
 3467 020b 0B       		.uleb128 0xb
 3468 020c 49       		.uleb128 0x49
 3469 020d 13       		.uleb128 0x13
 3470 020e 3F       		.uleb128 0x3f
 3471 020f 19       		.uleb128 0x19
 3472 0210 3C       		.uleb128 0x3c
 3473 0211 19       		.uleb128 0x19
 3474 0212 00       		.byte	0
 3475 0213 00       		.byte	0
 3476 0214 29       		.uleb128 0x29
 3477 0215 21       		.uleb128 0x21
 3478 0216 00       		.byte	0
 3479 0217 00       		.byte	0
 3480 0218 00       		.byte	0
 3481 0219 2A       		.uleb128 0x2a
 3482 021a 34       		.uleb128 0x34
 3483 021b 00       		.byte	0
 3484 021c 03       		.uleb128 0x3
 3485 021d 08       		.uleb128 0x8
 3486 021e 3A       		.uleb128 0x3a
 3487 021f 0B       		.uleb128 0xb
 3488 0220 3B       		.uleb128 0x3b
 3489 0221 0B       		.uleb128 0xb
 3490 0222 49       		.uleb128 0x49
 3491 0223 13       		.uleb128 0x13
 3492 0224 3F       		.uleb128 0x3f
 3493 0225 19       		.uleb128 0x19
 3494 0226 3C       		.uleb128 0x3c
 3495 0227 19       		.uleb128 0x19
 3496 0228 00       		.byte	0
 3497 0229 00       		.byte	0
 3498 022a 2B       		.uleb128 0x2b
 3499 022b 34       		.uleb128 0x34
 3500 022c 00       		.byte	0
 3501 022d 03       		.uleb128 0x3
 3502 022e 0E       		.uleb128 0xe
 3503 022f 3A       		.uleb128 0x3a
 3504 0230 0B       		.uleb128 0xb
 3505 0231 3B       		.uleb128 0x3b
 3506 0232 0B       		.uleb128 0xb
 3507 0233 49       		.uleb128 0x49
 3508 0234 13       		.uleb128 0x13
 3509 0235 3F       		.uleb128 0x3f
 3510 0236 19       		.uleb128 0x19
 3511 0237 02       		.uleb128 0x2
 3512 0238 18       		.uleb128 0x18
 3513 0239 00       		.byte	0
 3514 023a 00       		.byte	0
 3515 023b 2C       		.uleb128 0x2c
 3516 023c 34       		.uleb128 0x34
 3517 023d 00       		.byte	0
 3518 023e 03       		.uleb128 0x3
 3519 023f 0E       		.uleb128 0xe
 3520 0240 3A       		.uleb128 0x3a
 3521 0241 0B       		.uleb128 0xb
 3522 0242 3B       		.uleb128 0x3b
ARM GAS  /tmp/cc62Brnt.s 			page 63


 3523 0243 05       		.uleb128 0x5
 3524 0244 49       		.uleb128 0x49
 3525 0245 13       		.uleb128 0x13
 3526 0246 3F       		.uleb128 0x3f
 3527 0247 19       		.uleb128 0x19
 3528 0248 02       		.uleb128 0x2
 3529 0249 18       		.uleb128 0x18
 3530 024a 00       		.byte	0
 3531 024b 00       		.byte	0
 3532 024c 2D       		.uleb128 0x2d
 3533 024d 2E       		.uleb128 0x2e
 3534 024e 00       		.byte	0
 3535 024f 3F       		.uleb128 0x3f
 3536 0250 19       		.uleb128 0x19
 3537 0251 3C       		.uleb128 0x3c
 3538 0252 19       		.uleb128 0x19
 3539 0253 6E       		.uleb128 0x6e
 3540 0254 0E       		.uleb128 0xe
 3541 0255 03       		.uleb128 0x3
 3542 0256 0E       		.uleb128 0xe
 3543 0257 3A       		.uleb128 0x3a
 3544 0258 0B       		.uleb128 0xb
 3545 0259 3B       		.uleb128 0x3b
 3546 025a 0B       		.uleb128 0xb
 3547 025b 00       		.byte	0
 3548 025c 00       		.byte	0
 3549 025d 2E       		.uleb128 0x2e
 3550 025e 2E       		.uleb128 0x2e
 3551 025f 00       		.byte	0
 3552 0260 3F       		.uleb128 0x3f
 3553 0261 19       		.uleb128 0x19
 3554 0262 3C       		.uleb128 0x3c
 3555 0263 19       		.uleb128 0x19
 3556 0264 6E       		.uleb128 0x6e
 3557 0265 0E       		.uleb128 0xe
 3558 0266 03       		.uleb128 0x3
 3559 0267 0E       		.uleb128 0xe
 3560 0268 3A       		.uleb128 0x3a
 3561 0269 0B       		.uleb128 0xb
 3562 026a 3B       		.uleb128 0x3b
 3563 026b 05       		.uleb128 0x5
 3564 026c 00       		.byte	0
 3565 026d 00       		.byte	0
 3566 026e 00       		.byte	0
 3567              		.section	.debug_loc,"",%progbits
 3568              	.Ldebug_loc0:
 3569              	.LLST0:
 3570 0000 00000000 		.4byte	.LVL9
 3571 0004 02000000 		.4byte	.LVL10
 3572 0008 0100     		.2byte	0x1
 3573 000a 50       		.byte	0x50
 3574 000b 02000000 		.4byte	.LVL10
 3575 000f 06000000 		.4byte	.LFE10
 3576 0013 0400     		.2byte	0x4
 3577 0015 F3       		.byte	0xf3
 3578 0016 01       		.uleb128 0x1
 3579 0017 50       		.byte	0x50
ARM GAS  /tmp/cc62Brnt.s 			page 64


 3580 0018 9F       		.byte	0x9f
 3581 0019 00000000 		.4byte	0
 3582 001d 00000000 		.4byte	0
 3583              	.LLST1:
 3584 0021 00000000 		.4byte	.LVL12
 3585 0025 02000000 		.4byte	.LVL13
 3586 0029 0100     		.2byte	0x1
 3587 002b 50       		.byte	0x50
 3588 002c 02000000 		.4byte	.LVL13
 3589 0030 06000000 		.4byte	.LFE9
 3590 0034 0400     		.2byte	0x4
 3591 0036 F3       		.byte	0xf3
 3592 0037 01       		.uleb128 0x1
 3593 0038 50       		.byte	0x50
 3594 0039 9F       		.byte	0x9f
 3595 003a 00000000 		.4byte	0
 3596 003e 00000000 		.4byte	0
 3597              	.LLST2:
 3598 0042 00000000 		.4byte	.LVL15
 3599 0046 02000000 		.4byte	.LVL16
 3600 004a 0100     		.2byte	0x1
 3601 004c 50       		.byte	0x50
 3602 004d 02000000 		.4byte	.LVL16
 3603 0051 06000000 		.4byte	.LFE8
 3604 0055 0400     		.2byte	0x4
 3605 0057 F3       		.byte	0xf3
 3606 0058 01       		.uleb128 0x1
 3607 0059 50       		.byte	0x50
 3608 005a 9F       		.byte	0x9f
 3609 005b 00000000 		.4byte	0
 3610 005f 00000000 		.4byte	0
 3611              	.LLST3:
 3612 0063 14000000 		.4byte	.LVL20
 3613 0067 20000000 		.4byte	.LVL21
 3614 006b 0100     		.2byte	0x1
 3615 006d 50       		.byte	0x50
 3616 006e 34000000 		.4byte	.LVL23
 3617 0072 40000000 		.4byte	.LVL24
 3618 0076 0100     		.2byte	0x1
 3619 0078 50       		.byte	0x50
 3620 0079 50000000 		.4byte	.LVL26
 3621 007d 5C000000 		.4byte	.LVL27
 3622 0081 0100     		.2byte	0x1
 3623 0083 50       		.byte	0x50
 3624 0084 6C000000 		.4byte	.LVL29
 3625 0088 74000000 		.4byte	.LVL30
 3626 008c 0100     		.2byte	0x1
 3627 008e 50       		.byte	0x50
 3628 008f B4000000 		.4byte	.LVL36
 3629 0093 BA000000 		.4byte	.LVL38
 3630 0097 0100     		.2byte	0x1
 3631 0099 50       		.byte	0x50
 3632 009a BA000000 		.4byte	.LVL38
 3633 009e DE000000 		.4byte	.LVL41
 3634 00a2 0100     		.2byte	0x1
 3635 00a4 59       		.byte	0x59
 3636 00a5 DE000000 		.4byte	.LVL41
ARM GAS  /tmp/cc62Brnt.s 			page 65


 3637 00a9 E6000000 		.4byte	.LVL42
 3638 00ad 0100     		.2byte	0x1
 3639 00af 50       		.byte	0x50
 3640 00b0 00010000 		.4byte	.LVL46
 3641 00b4 08010000 		.4byte	.LVL48
 3642 00b8 0100     		.2byte	0x1
 3643 00ba 50       		.byte	0x50
 3644 00bb 08010000 		.4byte	.LVL48
 3645 00bf 18010000 		.4byte	.LVL50
 3646 00c3 0300     		.2byte	0x3
 3647 00c5 74       		.byte	0x74
 3648 00c6 05       		.sleb128 5
 3649 00c7 9F       		.byte	0x9f
 3650 00c8 18010000 		.4byte	.LVL50
 3651 00cc 20010000 		.4byte	.LVL51
 3652 00d0 0100     		.2byte	0x1
 3653 00d2 50       		.byte	0x50
 3654 00d3 56010000 		.4byte	.LVL57
 3655 00d7 5C010000 		.4byte	.LVL59
 3656 00db 0100     		.2byte	0x1
 3657 00dd 50       		.byte	0x50
 3658 00de 5C010000 		.4byte	.LVL59
 3659 00e2 82010000 		.4byte	.LVL62
 3660 00e6 0100     		.2byte	0x1
 3661 00e8 59       		.byte	0x59
 3662 00e9 82010000 		.4byte	.LVL62
 3663 00ed 8A010000 		.4byte	.LVL63
 3664 00f1 0100     		.2byte	0x1
 3665 00f3 50       		.byte	0x50
 3666 00f4 FA010000 		.4byte	.LVL75
 3667 00f8 02020000 		.4byte	.LVL76
 3668 00fc 0100     		.2byte	0x1
 3669 00fe 50       		.byte	0x50
 3670 00ff 00000000 		.4byte	0
 3671 0103 00000000 		.4byte	0
 3672              	.LLST4:
 3673 0107 9E000000 		.4byte	.LVL33
 3674 010b B8000000 		.4byte	.LVL37
 3675 010f 0300     		.2byte	0x3
 3676 0111 74       		.byte	0x74
 3677 0112 32       		.sleb128 50
 3678 0113 9F       		.byte	0x9f
 3679 0114 B8000000 		.4byte	.LVL37
 3680 0118 BD000000 		.4byte	.LVL39-1
 3681 011c 0100     		.2byte	0x1
 3682 011e 51       		.byte	0x51
 3683 011f BD000000 		.4byte	.LVL39-1
 3684 0123 02010000 		.4byte	.LVL47
 3685 0127 0300     		.2byte	0x3
 3686 0129 74       		.byte	0x74
 3687 012a 32       		.sleb128 50
 3688 012b 9F       		.byte	0x9f
 3689 012c 42010000 		.4byte	.LVL54
 3690 0130 5A010000 		.4byte	.LVL58
 3691 0134 0300     		.2byte	0x3
 3692 0136 74       		.byte	0x74
 3693 0137 32       		.sleb128 50
ARM GAS  /tmp/cc62Brnt.s 			page 66


 3694 0138 9F       		.byte	0x9f
 3695 0139 5A010000 		.4byte	.LVL58
 3696 013d 5F010000 		.4byte	.LVL60-1
 3697 0141 0100     		.2byte	0x1
 3698 0143 51       		.byte	0x51
 3699 0144 5F010000 		.4byte	.LVL60-1
 3700 0148 9A010000 		.4byte	.LVL65
 3701 014c 0300     		.2byte	0x3
 3702 014e 74       		.byte	0x74
 3703 014f 32       		.sleb128 50
 3704 0150 9F       		.byte	0x9f
 3705 0151 D0010000 		.4byte	.LVL70
 3706 0155 E6010000 		.4byte	.LVL73
 3707 0159 0300     		.2byte	0x3
 3708 015b 76       		.byte	0x76
 3709 015c 32       		.sleb128 50
 3710 015d 9F       		.byte	0x9f
 3711 015e E6010000 		.4byte	.LVL73
 3712 0162 EB010000 		.4byte	.LVL74-1
 3713 0166 0100     		.2byte	0x1
 3714 0168 51       		.byte	0x51
 3715 0169 EB010000 		.4byte	.LVL74-1
 3716 016d 6C020000 		.4byte	.LFE15
 3717 0171 0300     		.2byte	0x3
 3718 0173 76       		.byte	0x76
 3719 0174 32       		.sleb128 50
 3720 0175 9F       		.byte	0x9f
 3721 0176 00000000 		.4byte	0
 3722 017a 00000000 		.4byte	0
 3723              	.LLST5:
 3724 017e 00000000 		.4byte	.LVL83
 3725 0182 06000000 		.4byte	.LVL84
 3726 0186 0100     		.2byte	0x1
 3727 0188 50       		.byte	0x50
 3728 0189 06000000 		.4byte	.LVL84
 3729 018d 24000000 		.4byte	.LFE14
 3730 0191 0400     		.2byte	0x4
 3731 0193 F3       		.byte	0xf3
 3732 0194 01       		.uleb128 0x1
 3733 0195 50       		.byte	0x50
 3734 0196 9F       		.byte	0x9f
 3735 0197 00000000 		.4byte	0
 3736 019b 00000000 		.4byte	0
 3737              	.LLST6:
 3738 019f 00000000 		.4byte	.LVL88
 3739 01a3 06000000 		.4byte	.LVL89
 3740 01a7 0100     		.2byte	0x1
 3741 01a9 50       		.byte	0x50
 3742 01aa 06000000 		.4byte	.LVL89
 3743 01ae 16000000 		.4byte	.LFE13
 3744 01b2 0100     		.2byte	0x1
 3745 01b4 54       		.byte	0x54
 3746 01b5 00000000 		.4byte	0
 3747 01b9 00000000 		.4byte	0
 3748              	.LLST7:
 3749 01bd 0C000000 		.4byte	.LVL92
 3750 01c1 14000000 		.4byte	.LVL93
ARM GAS  /tmp/cc62Brnt.s 			page 67


 3751 01c5 0100     		.2byte	0x1
 3752 01c7 50       		.byte	0x50
 3753 01c8 26000000 		.4byte	.LVL95
 3754 01cc 2E000000 		.4byte	.LVL96
 3755 01d0 0100     		.2byte	0x1
 3756 01d2 50       		.byte	0x50
 3757 01d3 40000000 		.4byte	.LVL98
 3758 01d7 48000000 		.4byte	.LVL99
 3759 01db 0100     		.2byte	0x1
 3760 01dd 50       		.byte	0x50
 3761 01de 00000000 		.4byte	0
 3762 01e2 00000000 		.4byte	0
 3763              	.LLST8:
 3764 01e6 5A000000 		.4byte	.LVL101
 3765 01ea 62000000 		.4byte	.LVL102
 3766 01ee 0100     		.2byte	0x1
 3767 01f0 50       		.byte	0x50
 3768 01f1 74000000 		.4byte	.LVL104
 3769 01f5 7C000000 		.4byte	.LVL105
 3770 01f9 0100     		.2byte	0x1
 3771 01fb 50       		.byte	0x50
 3772 01fc 8E000000 		.4byte	.LVL107
 3773 0200 96000000 		.4byte	.LVL108
 3774 0204 0100     		.2byte	0x1
 3775 0206 50       		.byte	0x50
 3776 0207 00000000 		.4byte	0
 3777 020b 00000000 		.4byte	0
 3778              		.section	.debug_aranges,"",%progbits
 3779 0000 5C000000 		.4byte	0x5c
 3780 0004 0200     		.2byte	0x2
 3781 0006 00000000 		.4byte	.Ldebug_info0
 3782 000a 04       		.byte	0x4
 3783 000b 00       		.byte	0
 3784 000c 0000     		.2byte	0
 3785 000e 0000     		.2byte	0
 3786 0010 00000000 		.4byte	.LFB11
 3787 0014 84000000 		.4byte	.LFE11-.LFB11
 3788 0018 00000000 		.4byte	.LFB10
 3789 001c 06000000 		.4byte	.LFE10-.LFB10
 3790 0020 00000000 		.4byte	.LFB9
 3791 0024 06000000 		.4byte	.LFE9-.LFB9
 3792 0028 00000000 		.4byte	.LFB8
 3793 002c 06000000 		.4byte	.LFE8-.LFB8
 3794 0030 00000000 		.4byte	.LFB16
 3795 0034 08000000 		.4byte	.LFE16-.LFB16
 3796 0038 00000000 		.4byte	.LFB15
 3797 003c 6C020000 		.4byte	.LFE15-.LFB15
 3798 0040 00000000 		.4byte	.LFB14
 3799 0044 24000000 		.4byte	.LFE14-.LFB14
 3800 0048 00000000 		.4byte	.LFB13
 3801 004c 16000000 		.4byte	.LFE13-.LFB13
 3802 0050 00000000 		.4byte	.LFB17
 3803 0054 9E000000 		.4byte	.LFE17-.LFB17
 3804 0058 00000000 		.4byte	0
 3805 005c 00000000 		.4byte	0
 3806              		.section	.debug_ranges,"",%progbits
 3807              	.Ldebug_ranges0:
ARM GAS  /tmp/cc62Brnt.s 			page 68


 3808 0000 50000000 		.4byte	.LBB5
 3809 0004 96000000 		.4byte	.LBE5
 3810 0008 9A000000 		.4byte	.LBB6
 3811 000c 9E000000 		.4byte	.LBE6
 3812 0010 00000000 		.4byte	0
 3813 0014 00000000 		.4byte	0
 3814 0018 00000000 		.4byte	.LFB11
 3815 001c 84000000 		.4byte	.LFE11
 3816 0020 00000000 		.4byte	.LFB10
 3817 0024 06000000 		.4byte	.LFE10
 3818 0028 00000000 		.4byte	.LFB9
 3819 002c 06000000 		.4byte	.LFE9
 3820 0030 00000000 		.4byte	.LFB8
 3821 0034 06000000 		.4byte	.LFE8
 3822 0038 00000000 		.4byte	.LFB16
 3823 003c 08000000 		.4byte	.LFE16
 3824 0040 00000000 		.4byte	.LFB15
 3825 0044 6C020000 		.4byte	.LFE15
 3826 0048 00000000 		.4byte	.LFB14
 3827 004c 24000000 		.4byte	.LFE14
 3828 0050 00000000 		.4byte	.LFB13
 3829 0054 16000000 		.4byte	.LFE13
 3830 0058 00000000 		.4byte	.LFB17
 3831 005c 9E000000 		.4byte	.LFE17
 3832 0060 00000000 		.4byte	0
 3833 0064 00000000 		.4byte	0
 3834              		.section	.debug_line,"",%progbits
 3835              	.Ldebug_line0:
 3836 0000 A7020000 		.section	.debug_str,"MS",%progbits,1
 3836      02009901 
 3836      00000201 
 3836      FB0E0D00 
 3836      01010101 
 3837              	.LASF41:
 3838 0000 705F6D73 		.ascii	"p_msg\000"
 3838      6700
 3839              	.LASF57:
 3840 0006 76745F66 		.ascii	"vt_func\000"
 3840      756E6300 
 3841              	.LASF7:
 3842 000e 5F5F7569 		.ascii	"__uint8_t\000"
 3842      6E74385F 
 3842      7400
 3843              	.LASF97:
 3844 0018 76746C69 		.ascii	"vtlist\000"
 3844      737400
 3845              	.LASF121:
 3846 001f 63684576 		.ascii	"chEvtSignal\000"
 3846      74536967 
 3846      6E616C00 
 3847              	.LASF125:
 3848 002b 474E5520 		.ascii	"GNU C11 5.4.1 20160919 (release) [ARM/embedded-5-br"
 3848      43313120 
 3848      352E342E 
 3848      31203230 
 3848      31363039 
 3849 005e 616E6368 		.ascii	"anch revision 240496] -mcpu=cortex-m4 -mno-thumb-in"
ARM GAS  /tmp/cc62Brnt.s 			page 69


 3849      20726576 
 3849      6973696F 
 3849      6E203234 
 3849      30343936 
 3850 0091 74657277 		.ascii	"terwork -mthumb -ggdb -O2 -fomit-frame-pointer -fal"
 3850      6F726B20 
 3850      2D6D7468 
 3850      756D6220 
 3850      2D676764 
 3851 00c4 69676E2D 		.ascii	"ign-functions=16 -ffunction-sections -fdata-section"
 3851      66756E63 
 3851      74696F6E 
 3851      733D3136 
 3851      202D6666 
 3852 00f7 73202D66 		.ascii	"s -fno-common\000"
 3852      6E6F2D63 
 3852      6F6D6D6F 
 3852      6E00
 3853              	.LASF12:
 3854 0105 6C6F6E67 		.ascii	"long long unsigned int\000"
 3854      206C6F6E 
 3854      6720756E 
 3854      7369676E 
 3854      65642069 
 3855              	.LASF111:
 3856 011c 63684576 		.ascii	"chEvtAddEvents\000"
 3856      74416464 
 3856      4576656E 
 3856      747300
 3857              	.LASF81:
 3858 012b 65786974 		.ascii	"exitcode\000"
 3858      636F6465 
 3858      00
 3859              	.LASF123:
 3860 0134 63684576 		.ascii	"chEvtWaitAnyTimeout\000"
 3860      74576169 
 3860      74416E79 
 3860      54696D65 
 3860      6F757400 
 3861              	.LASF30:
 3862 0148 705F7072 		.ascii	"p_prio\000"
 3862      696F00
 3863              	.LASF92:
 3864 014f 65767432 		.ascii	"evt2_execute\000"
 3864      5F657865 
 3864      63757465 
 3864      00
 3865              	.LASF1:
 3866 015c 6C6F6E67 		.ascii	"long long int\000"
 3866      206C6F6E 
 3866      6720696E 
 3866      7400
 3867              	.LASF3:
 3868 016a 7369676E 		.ascii	"signed char\000"
 3868      65642063 
 3868      68617200 
 3869              	.LASF124:
ARM GAS  /tmp/cc62Brnt.s 			page 70


 3870 0176 63684576 		.ascii	"chEvtWaitAllTimeout\000"
 3870      74576169 
 3870      74416C6C 
 3870      54696D65 
 3870      6F757400 
 3871              	.LASF45:
 3872 018a 705F6D70 		.ascii	"p_mpool\000"
 3872      6F6F6C00 
 3873              	.LASF69:
 3874 0192 6D5F7175 		.ascii	"m_queue\000"
 3874      65756500 
 3875              	.LASF109:
 3876 019a 74657374 		.ascii	"test_emit_token\000"
 3876      5F656D69 
 3876      745F746F 
 3876      6B656E00 
 3877              	.LASF20:
 3878 01aa 74736C69 		.ascii	"tslices_t\000"
 3878      6365735F 
 3878      7400
 3879              	.LASF9:
 3880 01b4 6C6F6E67 		.ascii	"long int\000"
 3880      20696E74 
 3880      00
 3881              	.LASF93:
 3882 01bd 74617267 		.ascii	"target_time\000"
 3882      65745F74 
 3882      696D6500 
 3883              	.LASF18:
 3884 01c9 74737461 		.ascii	"tstate_t\000"
 3884      74655F74 
 3884      00
 3885              	.LASF115:
 3886 01d2 5F746573 		.ascii	"_test_assert_time_window\000"
 3886      745F6173 
 3886      73657274 
 3886      5F74696D 
 3886      655F7769 
 3887              	.LASF101:
 3888 01eb 74657374 		.ascii	"testevt2\000"
 3888      65767432 
 3888      00
 3889              	.LASF117:
 3890 01f4 63684576 		.ascii	"chEvtWaitAny\000"
 3890      74576169 
 3890      74416E79 
 3890      00
 3891              	.LASF102:
 3892 0201 74657374 		.ascii	"testevt3\000"
 3892      65767433 
 3892      00
 3893              	.LASF32:
 3894 020a 705F6E65 		.ascii	"p_newer\000"
 3894      77657200 
 3895              	.LASF10:
 3896 0212 5F5F7569 		.ascii	"__uint32_t\000"
 3896      6E743332 
ARM GAS  /tmp/cc62Brnt.s 			page 71


 3896      5F7400
 3897              	.LASF48:
 3898 021d 72656761 		.ascii	"regarm_t\000"
 3898      726D5F74 
 3898      00
 3899              	.LASF55:
 3900 0226 76745F70 		.ascii	"vt_prev\000"
 3900      72657600 
 3901              	.LASF119:
 3902 022e 63684576 		.ascii	"chEvtBroadcastFlags\000"
 3902      7442726F 
 3902      61646361 
 3902      7374466C 
 3902      61677300 
 3903              	.LASF23:
 3904 0242 6576656E 		.ascii	"eventid_t\000"
 3904      7469645F 
 3904      7400
 3905              	.LASF77:
 3906 024c 4576656E 		.ascii	"EventSource\000"
 3906      74536F75 
 3906      72636500 
 3907              	.LASF79:
 3908 0258 65766861 		.ascii	"evhandler_t\000"
 3908      6E646C65 
 3908      725F7400 
 3909              	.LASF0:
 3910 0264 756E7369 		.ascii	"unsigned int\000"
 3910      676E6564 
 3910      20696E74 
 3910      00
 3911              	.LASF54:
 3912 0271 76745F6E 		.ascii	"vt_next\000"
 3912      65787400 
 3913              	.LASF11:
 3914 0279 6C6F6E67 		.ascii	"long unsigned int\000"
 3914      20756E73 
 3914      69676E65 
 3914      6420696E 
 3914      7400
 3915              	.LASF110:
 3916 028b 63684576 		.ascii	"chEvtGetAndClearEvents\000"
 3916      74476574 
 3916      416E6443 
 3916      6C656172 
 3916      4576656E 
 3917              	.LASF88:
 3918 02a2 74656172 		.ascii	"teardown\000"
 3918      646F776E 
 3918      00
 3919              	.LASF103:
 3920 02ab 70617474 		.ascii	"patternevt\000"
 3920      65726E65 
 3920      767400
 3921              	.LASF52:
 3922 02b6 76746675 		.ascii	"vtfunc_t\000"
 3922      6E635F74 
ARM GAS  /tmp/cc62Brnt.s 			page 72


 3922      00
 3923              	.LASF86:
 3924 02bf 6E616D65 		.ascii	"name\000"
 3924      00
 3925              	.LASF6:
 3926 02c4 73686F72 		.ascii	"short unsigned int\000"
 3926      7420756E 
 3926      7369676E 
 3926      65642069 
 3926      6E7400
 3927              	.LASF104:
 3928 02d7 63684576 		.ascii	"chEvtRegisterMask\000"
 3928      74526567 
 3928      69737465 
 3928      724D6173 
 3928      6B00
 3929              	.LASF22:
 3930 02e9 6D73675F 		.ascii	"msg_t\000"
 3930      7400
 3931              	.LASF64:
 3932 02ef 725F6E65 		.ascii	"r_newer\000"
 3932      77657200 
 3933              	.LASF73:
 3934 02f7 656C5F6E 		.ascii	"el_next\000"
 3934      65787400 
 3935              	.LASF106:
 3936 02ff 63684576 		.ascii	"chEvtUnregister\000"
 3936      74556E72 
 3936      65676973 
 3936      74657200 
 3937              	.LASF17:
 3938 030f 746D6F64 		.ascii	"tmode_t\000"
 3938      655F7400 
 3939              	.LASF47:
 3940 0317 54687265 		.ascii	"ThreadsList\000"
 3940      6164734C 
 3940      69737400 
 3941              	.LASF24:
 3942 0323 6576656E 		.ascii	"eventmask_t\000"
 3942      746D6173 
 3942      6B5F7400 
 3943              	.LASF68:
 3944 032f 4D757465 		.ascii	"Mutex\000"
 3944      7800
 3945              	.LASF114:
 3946 0335 63685468 		.ascii	"chThdCreateStatic\000"
 3946      64437265 
 3946      61746553 
 3946      74617469 
 3946      6300
 3947              	.LASF56:
 3948 0347 76745F74 		.ascii	"vt_time\000"
 3948      696D6500 
 3949              	.LASF51:
 3950 034f 73697A65 		.ascii	"sizetype\000"
 3950      74797065 
 3950      00
ARM GAS  /tmp/cc62Brnt.s 			page 73


 3951              	.LASF2:
 3952 0358 6C6F6E67 		.ascii	"long double\000"
 3952      20646F75 
 3952      626C6500 
 3953              	.LASF107:
 3954 0364 63684576 		.ascii	"chEvtDispatch\000"
 3954      74446973 
 3954      70617463 
 3954      6800
 3955              	.LASF91:
 3956 0372 65767433 		.ascii	"evt3_setup\000"
 3956      5F736574 
 3956      757000
 3957              	.LASF126:
 3958 037d 2E2E2F43 		.ascii	"../ChibiOS_2.6.9/test/testevt.c\000"
 3958      68696269 
 3958      4F535F32 
 3958      2E362E39 
 3958      2F746573 
 3959              	.LASF33:
 3960 039d 705F6F6C 		.ascii	"p_older\000"
 3960      64657200 
 3961              	.LASF95:
 3962 03a5 74687265 		.ascii	"thread1\000"
 3962      61643100 
 3963              	.LASF94:
 3964 03ad 74687265 		.ascii	"thread2\000"
 3964      61643200 
 3965              	.LASF63:
 3966 03b5 725F6374 		.ascii	"r_ctx\000"
 3966      7800
 3967              	.LASF46:
 3968 03bb 54687265 		.ascii	"ThreadsQueue\000"
 3968      61647351 
 3968      75657565 
 3968      00
 3969              	.LASF87:
 3970 03c8 73657475 		.ascii	"setup\000"
 3970      7000
 3971              	.LASF108:
 3972 03ce 5F746573 		.ascii	"_test_assert_sequence\000"
 3972      745F6173 
 3972      73657274 
 3972      5F736571 
 3972      75656E63 
 3973              	.LASF118:
 3974 03e4 63684576 		.ascii	"chEvtWaitAll\000"
 3974      74576169 
 3974      74416C6C 
 3974      00
 3975              	.LASF66:
 3976 03f1 725F6375 		.ascii	"r_current\000"
 3976      7272656E 
 3976      7400
 3977              	.LASF65:
 3978 03fb 725F6F6C 		.ascii	"r_older\000"
 3978      64657200 
ARM GAS  /tmp/cc62Brnt.s 			page 74


 3979              	.LASF75:
 3980 0403 656C5F6D 		.ascii	"el_mask\000"
 3980      61736B00 
 3981              	.LASF19:
 3982 040b 74726566 		.ascii	"trefs_t\000"
 3982      735F7400 
 3983              	.LASF29:
 3984 0413 705F7072 		.ascii	"p_prev\000"
 3984      657600
 3985              	.LASF89:
 3986 041a 65786563 		.ascii	"execute\000"
 3986      75746500 
 3987              	.LASF21:
 3988 0422 74707269 		.ascii	"tprio_t\000"
 3988      6F5F7400 
 3989              	.LASF16:
 3990 042a 5F426F6F 		.ascii	"_Bool\000"
 3990      6C00
 3991              	.LASF14:
 3992 0430 696E7433 		.ascii	"int32_t\000"
 3992      325F7400 
 3993              	.LASF4:
 3994 0438 756E7369 		.ascii	"unsigned char\000"
 3994      676E6564 
 3994      20636861 
 3994      7200
 3995              	.LASF112:
 3996 0446 63684576 		.ascii	"chEvtWaitOne\000"
 3996      74576169 
 3996      744F6E65 
 3996      00
 3997              	.LASF74:
 3998 0453 656C5F6C 		.ascii	"el_listener\000"
 3998      69737465 
 3998      6E657200 
 3999              	.LASF128:
 4000 045f 65767433 		.ascii	"evt3_execute\000"
 4000      5F657865 
 4000      63757465 
 4000      00
 4001              	.LASF76:
 4002 046c 656C5F66 		.ascii	"el_flags\000"
 4002      6C616773 
 4002      00
 4003              	.LASF43:
 4004 0475 705F6D74 		.ascii	"p_mtxlist\000"
 4004      786C6973 
 4004      7400
 4005              	.LASF5:
 4006 047f 73686F72 		.ascii	"short int\000"
 4006      7420696E 
 4006      7400
 4007              	.LASF35:
 4008 0489 705F7374 		.ascii	"p_state\000"
 4008      61746500 
 4009              	.LASF38:
 4010 0491 705F7072 		.ascii	"p_preempt\000"
ARM GAS  /tmp/cc62Brnt.s 			page 75


 4010      65656D70 
 4010      7400
 4011              	.LASF99:
 4012 049b 74687265 		.ascii	"threads\000"
 4012      61647300 
 4013              	.LASF62:
 4014 04a3 725F7072 		.ascii	"r_prio\000"
 4014      696F00
 4015              	.LASF83:
 4016 04aa 65776D61 		.ascii	"ewmask\000"
 4016      736B00
 4017              	.LASF28:
 4018 04b1 705F6E65 		.ascii	"p_next\000"
 4018      787400
 4019              	.LASF36:
 4020 04b8 705F666C 		.ascii	"p_flags\000"
 4020      61677300 
 4021              	.LASF27:
 4022 04c0 54687265 		.ascii	"Thread\000"
 4022      616400
 4023              	.LASF85:
 4024 04c7 74657374 		.ascii	"testcase\000"
 4024      63617365 
 4024      00
 4025              	.LASF42:
 4026 04d0 705F6570 		.ascii	"p_epending\000"
 4026      656E6469 
 4026      6E6700
 4027              	.LASF100:
 4028 04db 74657374 		.ascii	"testevt1\000"
 4028      65767431 
 4028      00
 4029              	.LASF96:
 4030 04e4 6576686E 		.ascii	"evhndl\000"
 4030      646C00
 4031              	.LASF15:
 4032 04eb 75696E74 		.ascii	"uint32_t\000"
 4032      33325F74 
 4032      00
 4033              	.LASF61:
 4034 04f4 725F7175 		.ascii	"r_queue\000"
 4034      65756500 
 4035              	.LASF53:
 4036 04fc 56697274 		.ascii	"VirtualTimer\000"
 4036      75616C54 
 4036      696D6572 
 4036      00
 4037              	.LASF84:
 4038 0509 63686172 		.ascii	"char\000"
 4038      00
 4039              	.LASF116:
 4040 050e 74657374 		.ascii	"test_wait_threads\000"
 4040      5F776169 
 4040      745F7468 
 4040      72656164 
 4040      7300
 4041              	.LASF71:
ARM GAS  /tmp/cc62Brnt.s 			page 76


 4042 0520 6D5F6E65 		.ascii	"m_next\000"
 4042      787400
 4043              	.LASF26:
 4044 0527 73797374 		.ascii	"systime_t\000"
 4044      696D655F 
 4044      7400
 4045              	.LASF44:
 4046 0531 705F7265 		.ascii	"p_realprio\000"
 4046      616C7072 
 4046      696F00
 4047              	.LASF8:
 4048 053c 5F5F696E 		.ascii	"__int32_t\000"
 4048      7433325F 
 4048      7400
 4049              	.LASF50:
 4050 0546 636F6E74 		.ascii	"context\000"
 4050      65787400 
 4051              	.LASF49:
 4052 054e 696E7463 		.ascii	"intctx\000"
 4052      747800
 4053              	.LASF40:
 4054 0555 705F6D73 		.ascii	"p_msgqueue\000"
 4054      67717565 
 4054      756500
 4055              	.LASF58:
 4056 0560 76745F70 		.ascii	"vt_par\000"
 4056      617200
 4057              	.LASF25:
 4058 0567 666C6167 		.ascii	"flagsmask_t\000"
 4058      736D6173 
 4058      6B5F7400 
 4059              	.LASF120:
 4060 0573 63685468 		.ascii	"chThdSleep\000"
 4060      64536C65 
 4060      657000
 4061              	.LASF80:
 4062 057e 7264796D 		.ascii	"rdymsg\000"
 4062      736700
 4063              	.LASF37:
 4064 0585 705F7265 		.ascii	"p_refs\000"
 4064      667300
 4065              	.LASF67:
 4066 058c 52656164 		.ascii	"ReadyList\000"
 4066      794C6973 
 4066      7400
 4067              	.LASF127:
 4068 0596 2F686F6D 		.ascii	"/home/mark/repos/pc_gamecontroller\000"
 4068      652F6D61 
 4068      726B2F72 
 4068      65706F73 
 4068      2F70635F 
 4069              	.LASF98:
 4070 05b9 726C6973 		.ascii	"rlist\000"
 4070      7400
 4071              	.LASF13:
 4072 05bf 75696E74 		.ascii	"uint8_t\000"
 4072      385F7400 
ARM GAS  /tmp/cc62Brnt.s 			page 77


 4073              	.LASF72:
 4074 05c7 4576656E 		.ascii	"EventListener\000"
 4074      744C6973 
 4074      74656E65 
 4074      7200
 4075              	.LASF122:
 4076 05d5 63684576 		.ascii	"chEvtWaitOneTimeout\000"
 4076      74576169 
 4076      744F6E65 
 4076      54696D65 
 4076      6F757400 
 4077              	.LASF82:
 4078 05e9 77746F62 		.ascii	"wtobjp\000"
 4078      6A7000
 4079              	.LASF34:
 4080 05f0 705F6E61 		.ascii	"p_name\000"
 4080      6D6500
 4081              	.LASF105:
 4082 05f7 5F746573 		.ascii	"_test_assert\000"
 4082      745F6173 
 4082      73657274 
 4082      00
 4083              	.LASF59:
 4084 0604 76745F73 		.ascii	"vt_systime\000"
 4084      79737469 
 4084      6D6500
 4085              	.LASF78:
 4086 060f 65735F6E 		.ascii	"es_next\000"
 4086      65787400 
 4087              	.LASF60:
 4088 0617 56544C69 		.ascii	"VTList\000"
 4088      737400
 4089              	.LASF70:
 4090 061e 6D5F6F77 		.ascii	"m_owner\000"
 4090      6E657200 
 4091              	.LASF113:
 4092 0626 74657374 		.ascii	"test_wait_tick\000"
 4092      5F776169 
 4092      745F7469 
 4092      636B00
 4093              	.LASF90:
 4094 0635 65767431 		.ascii	"evt1_execute\000"
 4094      5F657865 
 4094      63757465 
 4094      00
 4095              	.LASF31:
 4096 0642 705F6374 		.ascii	"p_ctx\000"
 4096      7800
 4097              	.LASF39:
 4098 0648 705F7761 		.ascii	"p_waiting\000"
 4098      6974696E 
 4098      6700
 4099              		.ident	"GCC: (GNU Tools for ARM Embedded Processors) 5.4.1 20160919 (release) [ARM/embedded-5-bran
ARM GAS  /tmp/cc62Brnt.s 			page 78


DEFINED SYMBOLS
                            *ABS*:00000000 testevt.c
     /tmp/cc62Brnt.s:20     .text.evt1_execute:00000000 $t
     /tmp/cc62Brnt.s:25     .text.evt1_execute:00000000 evt1_execute
     /tmp/cc62Brnt.s:118    .text.evt1_execute:00000078 $d
     /tmp/cc62Brnt.s:125    .text.h3:00000000 $t
     /tmp/cc62Brnt.s:130    .text.h3:00000000 h3
     /tmp/cc62Brnt.s:147    .text.h2:00000000 $t
     /tmp/cc62Brnt.s:152    .text.h2:00000000 h2
     /tmp/cc62Brnt.s:169    .text.h1:00000000 $t
     /tmp/cc62Brnt.s:174    .text.h1:00000000 h1
     /tmp/cc62Brnt.s:191    .text.evt3_setup:00000000 $t
     /tmp/cc62Brnt.s:196    .text.evt3_setup:00000000 evt3_setup
     /tmp/cc62Brnt.s:211    .text.evt2_setup:00000000 $t
     /tmp/cc62Brnt.s:216    .text.evt2_setup:00000000 evt2_setup
     /tmp/cc62Brnt.s:227    .text.evt1_setup:00000000 $t
     /tmp/cc62Brnt.s:232    .text.evt1_setup:00000000 evt1_setup
     /tmp/cc62Brnt.s:243    .text.evt2_execute:00000000 $t
     /tmp/cc62Brnt.s:248    .text.evt2_execute:00000000 evt2_execute
     /tmp/cc62Brnt.s:599    .text.evt2_execute:00000248 $d
     /tmp/cc62Brnt.s:660    .text.thread1:00000000 thread1
     /tmp/cc62Brnt.s:617    .text.thread2:00000000 thread2
     /tmp/cc62Brnt.s:612    .text.thread2:00000000 $t
     /tmp/cc62Brnt.s:649    .text.thread2:0000001c $d
     /tmp/cc62Brnt.s:655    .text.thread1:00000000 $t
     /tmp/cc62Brnt.s:690    .text.evt3_execute:00000000 $t
     /tmp/cc62Brnt.s:695    .text.evt3_execute:00000000 evt3_execute
     /tmp/cc62Brnt.s:814    .rodata.patternevt:00000000 patternevt
     /tmp/cc62Brnt.s:865    .rodata.testevt3:00000000 testevt3
     /tmp/cc62Brnt.s:823    .rodata.testevt2:00000000 testevt2
     /tmp/cc62Brnt.s:847    .rodata.testevt1:00000000 testevt1
     /tmp/cc62Brnt.s:811    .rodata.patternevt:00000000 $d
     /tmp/cc62Brnt.s:820    .rodata.testevt2:00000000 $d
     /tmp/cc62Brnt.s:829    .rodata.str1.4:00000000 $d
     /tmp/cc62Brnt.s:844    .rodata.testevt1:00000000 $d
     /tmp/cc62Brnt.s:853    .rodata.evhndl:00000000 $d
     /tmp/cc62Brnt.s:857    .rodata.evhndl:00000000 evhndl
     /tmp/cc62Brnt.s:862    .rodata.testevt3:00000000 $d
     /tmp/cc62Brnt.s:871    .data.es1:00000000 $d
     /tmp/cc62Brnt.s:875    .data.es1:00000000 es1
     /tmp/cc62Brnt.s:878    .data.es2:00000000 $d
     /tmp/cc62Brnt.s:882    .data.es2:00000000 es2
                     .debug_frame:00000010 $d

UNDEFINED SYMBOLS
chEvtRegisterMask
_test_assert
chEvtUnregister
chEvtDispatch
_test_assert_sequence
test_emit_token
chEvtGetAndClearEvents
chEvtAddEvents
chEvtWaitOne
test_wait_tick
chThdCreateStatic
_test_assert_time_window
ARM GAS  /tmp/cc62Brnt.s 			page 79


test_wait_threads
chEvtWaitAny
chEvtWaitAll
vtlist
threads
wa
rlist
chEvtBroadcastFlags
chThdSleep
chEvtSignal
chEvtWaitOneTimeout
chEvtWaitAnyTimeout
chEvtWaitAllTimeout
