ARM GAS  /tmp/ccAoyHKJ.s 			page 1


   1              		.syntax unified
   2              		.cpu cortex-m4
   3              		.fpu softvfp
   4              		.eabi_attribute 20, 1
   5              		.eabi_attribute 21, 1
   6              		.eabi_attribute 23, 3
   7              		.eabi_attribute 24, 1
   8              		.eabi_attribute 25, 1
   9              		.eabi_attribute 26, 1
  10              		.eabi_attribute 30, 2
  11              		.eabi_attribute 34, 1
  12              		.eabi_attribute 18, 4
  13              		.thumb
  14              		.syntax unified
  15              		.file	"testdyn.c"
  16              		.text
  17              	.Ltext0:
  18              		.cfi_sections	.debug_frame
  19              		.section	.text.dyn1_execute,"ax",%progbits
  20              		.align	2
  21              		.p2align 4,,15
  22              		.thumb
  23              		.thumb_func
  24              		.type	dyn1_execute, %function
  25              	dyn1_execute:
  26              	.LFB9:
  27              		.file 1 "../ChibiOS_2.6.9/test/testdyn.c"
  28              		.loc 1 83 0
  29              		.cfi_startproc
  30              		@ args = 0, pretend = 0, frame = 8
  31              		@ frame_needed = 0, uses_anonymous_args = 0
  32 0000 70B5     		push	{r4, r5, r6, lr}
  33              		.cfi_def_cfa_offset 16
  34              		.cfi_offset 4, -16
  35              		.cfi_offset 5, -12
  36              		.cfi_offset 6, -8
  37              		.cfi_offset 14, -4
  38              		.loc 1 86 0
  39 0002 344B     		ldr	r3, .L13
  40              		.loc 1 88 0
  41 0004 3448     		ldr	r0, .L13+4
  42              		.loc 1 86 0
  43 0006 9B69     		ldr	r3, [r3, #24]
  44              		.loc 1 90 0
  45 0008 344C     		ldr	r4, .L13+8
  46              		.loc 1 86 0
  47 000a 9D68     		ldr	r5, [r3, #8]
  48              	.LVL0:
  49              		.loc 1 83 0
  50 000c 84B0     		sub	sp, sp, #16
  51              		.cfi_def_cfa_offset 32
  52              		.loc 1 88 0
  53 000e 03A9     		add	r1, sp, #12
  54 0010 FFF7FEFF 		bl	chHeapStatus
  55              	.LVL1:
  56              		.loc 1 90 0
  57 0014 324B     		ldr	r3, .L13+12
ARM GAS  /tmp/ccAoyHKJ.s 			page 2


  58 0016 0093     		str	r3, [sp]
  59 0018 6A1E     		subs	r2, r5, #1
  60 001a 324B     		ldr	r3, .L13+16
  61 001c 2E48     		ldr	r0, .L13+4
  62 001e 4FF4A471 		mov	r1, #328
  63 0022 FFF7FEFF 		bl	chThdCreateFromHeap
  64              	.LVL2:
  65              		.loc 1 92 0
  66 0026 304B     		ldr	r3, .L13+20
  67              		.loc 1 90 0
  68 0028 2060     		str	r0, [r4]
  69              		.loc 1 92 0
  70 002a AA1E     		subs	r2, r5, #2
  71 002c 0093     		str	r3, [sp]
  72 002e 4FF4A471 		mov	r1, #328
  73 0032 2C4B     		ldr	r3, .L13+16
  74 0034 2848     		ldr	r0, .L13+4
  75 0036 FFF7FEFF 		bl	chThdCreateFromHeap
  76              	.LVL3:
  77              		.loc 1 95 0
  78 003a 02A9     		add	r1, sp, #8
  79              		.loc 1 92 0
  80 003c 6060     		str	r0, [r4, #4]
  81              		.loc 1 95 0
  82 003e 2648     		ldr	r0, .L13+4
  83 0040 FFF7FEFF 		bl	chHeapStatus
  84              	.LVL4:
  85              		.loc 1 96 0
  86 0044 0299     		ldr	r1, [sp, #8]
  87 0046 2448     		ldr	r0, .L13+4
  88 0048 FFF7FEFF 		bl	chHeapAlloc
  89              	.LVL5:
  90              		.loc 1 97 0
  91 004c 274B     		ldr	r3, .L13+24
  92 004e 0093     		str	r3, [sp]
  93 0050 4FF4A471 		mov	r1, #328
  94              		.loc 1 96 0
  95 0054 0646     		mov	r6, r0
  96              	.LVL6:
  97              		.loc 1 97 0
  98 0056 EA1E     		subs	r2, r5, #3
  99 0058 224B     		ldr	r3, .L13+16
 100 005a 1F48     		ldr	r0, .L13+4
 101              	.LVL7:
 102 005c FFF7FEFF 		bl	chThdCreateFromHeap
 103              	.LVL8:
 104 0060 A060     		str	r0, [r4, #8]
 105              		.loc 1 99 0
 106 0062 3046     		mov	r0, r6
 107 0064 FFF7FEFF 		bl	chHeapFree
 108              	.LVL9:
 109              		.loc 1 101 0
 110 0068 2168     		ldr	r1, [r4]
 111 006a 21B1     		cbz	r1, .L2
 112              		.loc 1 101 0 is_stmt 0 discriminator 1
 113 006c 6168     		ldr	r1, [r4, #4]
 114 006e 11B1     		cbz	r1, .L2
ARM GAS  /tmp/ccAoyHKJ.s 			page 3


 115              		.loc 1 101 0 discriminator 3
 116 0070 A168     		ldr	r1, [r4, #8]
 117 0072 31B3     		cbz	r1, .L11
 118 0074 0021     		movs	r1, #0
 119              	.L2:
 120              		.loc 1 101 0 discriminator 12
 121 0076 0120     		movs	r0, #1
 122 0078 FFF7FEFF 		bl	_test_assert
 123              	.LVL10:
 124 007c 08B1     		cbz	r0, .L12
 125              	.L1:
 126              		.loc 1 115 0 is_stmt 1
 127 007e 04B0     		add	sp, sp, #16
 128              		.cfi_remember_state
 129              		.cfi_def_cfa_offset 16
 130              		@ sp needed
 131 0080 70BD     		pop	{r4, r5, r6, pc}
 132              	.LVL11:
 133              	.L12:
 134              		.cfi_restore_state
 135              		.loc 1 109 0
 136 0082 FFF7FEFF 		bl	test_wait_threads
 137              	.LVL12:
 138              		.loc 1 110 0
 139 0086 1A49     		ldr	r1, .L13+28
 140 0088 0220     		movs	r0, #2
 141 008a FFF7FEFF 		bl	_test_assert_sequence
 142              	.LVL13:
 143 008e 0028     		cmp	r0, #0
 144 0090 F5D1     		bne	.L1
 145              		.loc 1 113 0
 146 0092 02A9     		add	r1, sp, #8
 147 0094 1048     		ldr	r0, .L13+4
 148 0096 FFF7FEFF 		bl	chHeapStatus
 149              	.LVL14:
 150 009a A0F10101 		sub	r1, r0, #1
 151 009e B1FA81F1 		clz	r1, r1
 152 00a2 4909     		lsrs	r1, r1, #5
 153 00a4 0320     		movs	r0, #3
 154 00a6 FFF7FEFF 		bl	_test_assert
 155              	.LVL15:
 156 00aa 0028     		cmp	r0, #0
 157 00ac E7D1     		bne	.L1
 158              		.loc 1 114 0
 159 00ae 0299     		ldr	r1, [sp, #8]
 160 00b0 039B     		ldr	r3, [sp, #12]
 161 00b2 C91A     		subs	r1, r1, r3
 162 00b4 B1FA81F1 		clz	r1, r1
 163 00b8 4909     		lsrs	r1, r1, #5
 164 00ba 0420     		movs	r0, #4
 165 00bc FFF7FEFF 		bl	_test_assert
 166              	.LVL16:
 167 00c0 DDE7     		b	.L1
 168              	.L11:
 169              		.loc 1 101 0 discriminator 5
 170 00c2 E368     		ldr	r3, [r4, #12]
 171 00c4 002B     		cmp	r3, #0
ARM GAS  /tmp/ccAoyHKJ.s 			page 4


 172 00c6 D6D1     		bne	.L2
 173              		.loc 1 101 0 is_stmt 0 discriminator 7
 174 00c8 2169     		ldr	r1, [r4, #16]
 175 00ca B1FA81F1 		clz	r1, r1
 176 00ce 4909     		lsrs	r1, r1, #5
 177 00d0 D1E7     		b	.L2
 178              	.L14:
 179 00d2 00BF     		.align	2
 180              	.L13:
 181 00d4 00000000 		.word	rlist
 182 00d8 00000000 		.word	.LANCHOR0
 183 00dc 00000000 		.word	threads
 184 00e0 00000000 		.word	.LC0
 185 00e4 00000000 		.word	thread
 186 00e8 04000000 		.word	.LC1
 187 00ec 08000000 		.word	.LC2
 188 00f0 0C000000 		.word	.LC3
 189              		.cfi_endproc
 190              	.LFE9:
 191              		.size	dyn1_execute, .-dyn1_execute
 192              		.section	.text.thread,"ax",%progbits
 193              		.align	2
 194              		.p2align 4,,15
 195              		.thumb
 196              		.thumb_func
 197              		.type	thread, %function
 198              	thread:
 199              	.LFB7:
 200              		.loc 1 71 0 is_stmt 1
 201              		.cfi_startproc
 202              		@ args = 0, pretend = 0, frame = 0
 203              		@ frame_needed = 0, uses_anonymous_args = 0
 204              	.LVL17:
 205 0000 08B5     		push	{r3, lr}
 206              		.cfi_def_cfa_offset 8
 207              		.cfi_offset 3, -8
 208              		.cfi_offset 14, -4
 209              		.loc 1 73 0
 210 0002 0078     		ldrb	r0, [r0]	@ zero_extendqisi2
 211              	.LVL18:
 212 0004 FFF7FEFF 		bl	test_emit_token
 213              	.LVL19:
 214              		.loc 1 75 0
 215 0008 0020     		movs	r0, #0
 216 000a 08BD     		pop	{r3, pc}
 217              		.cfi_endproc
 218              	.LFE7:
 219              		.size	thread, .-thread
 220              		.section	.text.dyn3_setup,"ax",%progbits
 221              		.align	2
 222              		.p2align 4,,15
 223              		.thumb
 224              		.thumb_func
 225              		.type	dyn3_setup, %function
 226              	dyn3_setup:
 227              	.LFB13:
 228              		.loc 1 203 0
ARM GAS  /tmp/ccAoyHKJ.s 			page 5


 229              		.cfi_startproc
 230              		@ args = 0, pretend = 0, frame = 0
 231              		@ frame_needed = 0, uses_anonymous_args = 0
 232              		@ link register save eliminated.
 233              		.loc 1 205 0
 234 0000 4FF4CD62 		mov	r2, #1640
 235 0004 0149     		ldr	r1, .L18
 236 0006 0248     		ldr	r0, .L18+4
 237 0008 FFF7FEBF 		b	chHeapInit
 238              	.LVL20:
 239              	.L19:
 240              		.align	2
 241              	.L18:
 242 000c 00000000 		.word	test
 243 0010 00000000 		.word	.LANCHOR0
 244              		.cfi_endproc
 245              	.LFE13:
 246              		.size	dyn3_setup, .-dyn3_setup
 247              		.section	.text.dyn1_setup,"ax",%progbits
 248              		.align	2
 249              		.p2align 4,,15
 250              		.thumb
 251              		.thumb_func
 252              		.type	dyn1_setup, %function
 253              	dyn1_setup:
 254              	.LFB16:
 255              		.cfi_startproc
 256              		@ args = 0, pretend = 0, frame = 0
 257              		@ frame_needed = 0, uses_anonymous_args = 0
 258              		@ link register save eliminated.
 259 0000 FFF7FEBF 		b	dyn3_setup
 260              		.cfi_endproc
 261              	.LFE16:
 262              		.size	dyn1_setup, .-dyn1_setup
 263              		.section	.text.dyn2_execute,"ax",%progbits
 264              		.align	2
 265              		.p2align 4,,15
 266              		.thumb
 267              		.thumb_func
 268              		.type	dyn2_execute, %function
 269              	dyn2_execute:
 270              	.LFB11:
 271              		.loc 1 141 0
 272              		.cfi_startproc
 273              		@ args = 0, pretend = 0, frame = 0
 274              		@ frame_needed = 0, uses_anonymous_args = 0
 275              		.loc 1 143 0
 276 0000 314B     		ldr	r3, .L36
 277 0002 9B69     		ldr	r3, [r3, #24]
 278              		.loc 1 141 0
 279 0004 70B5     		push	{r4, r5, r6, lr}
 280              		.cfi_def_cfa_offset 16
 281              		.cfi_offset 4, -16
 282              		.cfi_offset 5, -12
 283              		.cfi_offset 6, -8
 284              		.cfi_offset 14, -4
 285 0006 314C     		ldr	r4, .L36+4
ARM GAS  /tmp/ccAoyHKJ.s 			page 6


 286              		.loc 1 143 0
 287 0008 9D68     		ldr	r5, [r3, #8]
 288              	.LVL21:
 289 000a 04F11006 		add	r6, r4, #16
 290              	.LVL22:
 291              	.L22:
 292              		.loc 1 147 0 discriminator 3
 293 000e 54F8041B 		ldr	r1, [r4], #4
 294 0012 2F48     		ldr	r0, .L36+8
 295 0014 FFF7FEFF 		bl	chPoolFree
 296              	.LVL23:
 297              		.loc 1 146 0 discriminator 3
 298 0018 A642     		cmp	r6, r4
 299 001a F8D1     		bne	.L22
 300              		.loc 1 150 0
 301 001c 2D4B     		ldr	r3, .L36+12
 302 001e 2E4A     		ldr	r2, .L36+16
 303 0020 2B48     		ldr	r0, .L36+8
 304 0022 2E4C     		ldr	r4, .L36+20
 305 0024 691E     		subs	r1, r5, #1
 306 0026 FFF7FEFF 		bl	chThdCreateFromMemoryPool
 307              	.LVL24:
 308              		.loc 1 151 0
 309 002a 2D4B     		ldr	r3, .L36+24
 310              		.loc 1 150 0
 311 002c 2060     		str	r0, [r4]
 312              		.loc 1 151 0
 313 002e 2A4A     		ldr	r2, .L36+16
 314 0030 2748     		ldr	r0, .L36+8
 315 0032 A91E     		subs	r1, r5, #2
 316 0034 FFF7FEFF 		bl	chThdCreateFromMemoryPool
 317              	.LVL25:
 318              		.loc 1 152 0
 319 0038 2A4B     		ldr	r3, .L36+28
 320              		.loc 1 151 0
 321 003a 6060     		str	r0, [r4, #4]
 322              		.loc 1 152 0
 323 003c 264A     		ldr	r2, .L36+16
 324 003e 2448     		ldr	r0, .L36+8
 325 0040 E91E     		subs	r1, r5, #3
 326 0042 FFF7FEFF 		bl	chThdCreateFromMemoryPool
 327              	.LVL26:
 328              		.loc 1 153 0
 329 0046 284B     		ldr	r3, .L36+32
 330              		.loc 1 152 0
 331 0048 A060     		str	r0, [r4, #8]
 332              		.loc 1 153 0
 333 004a 234A     		ldr	r2, .L36+16
 334 004c 2048     		ldr	r0, .L36+8
 335 004e 291F     		subs	r1, r5, #4
 336 0050 FFF7FEFF 		bl	chThdCreateFromMemoryPool
 337              	.LVL27:
 338              		.loc 1 154 0
 339 0054 691F     		subs	r1, r5, #5
 340              		.loc 1 153 0
 341 0056 E060     		str	r0, [r4, #12]
 342              		.loc 1 154 0
ARM GAS  /tmp/ccAoyHKJ.s 			page 7


 343 0058 244B     		ldr	r3, .L36+36
 344 005a 1F4A     		ldr	r2, .L36+16
 345 005c 1C48     		ldr	r0, .L36+8
 346 005e FFF7FEFF 		bl	chThdCreateFromMemoryPool
 347              	.LVL28:
 348              		.loc 1 156 0
 349 0062 2168     		ldr	r1, [r4]
 350              		.loc 1 154 0
 351 0064 2061     		str	r0, [r4, #16]
 352              		.loc 1 156 0
 353 0066 41B1     		cbz	r1, .L23
 354              		.loc 1 156 0 is_stmt 0 discriminator 1
 355 0068 6168     		ldr	r1, [r4, #4]
 356 006a 31B1     		cbz	r1, .L23
 357              		.loc 1 156 0 discriminator 3
 358 006c A168     		ldr	r1, [r4, #8]
 359 006e 21B1     		cbz	r1, .L23
 360              		.loc 1 156 0 discriminator 5
 361 0070 E168     		ldr	r1, [r4, #12]
 362 0072 11B1     		cbz	r1, .L23
 363              		.loc 1 156 0 discriminator 7
 364 0074 B0FA80F1 		clz	r1, r0
 365 0078 4909     		lsrs	r1, r1, #5
 366              	.L23:
 367              		.loc 1 156 0 discriminator 12
 368 007a 0120     		movs	r0, #1
 369 007c FFF7FEFF 		bl	_test_assert
 370              	.LVL29:
 371 0080 00B1     		cbz	r0, .L35
 372              	.L21:
 373 0082 70BD     		pop	{r4, r5, r6, pc}
 374              	.LVL30:
 375              	.L35:
 376              		.loc 1 164 0 is_stmt 1
 377 0084 FFF7FEFF 		bl	test_wait_threads
 378              	.LVL31:
 379              		.loc 1 165 0
 380 0088 1949     		ldr	r1, .L36+40
 381 008a 0220     		movs	r0, #2
 382 008c FFF7FEFF 		bl	_test_assert_sequence
 383              	.LVL32:
 384 0090 0028     		cmp	r0, #0
 385 0092 F6D1     		bne	.L21
 386 0094 0424     		movs	r4, #4
 387              	.L27:
 388              	.LVL33:
 389              		.loc 1 169 0
 390 0096 0E48     		ldr	r0, .L36+8
 391 0098 FFF7FEFF 		bl	chPoolAlloc
 392              	.LVL34:
 393 009c 011C     		adds	r1, r0, #0
 394 009e 18BF     		it	ne
 395 00a0 0121     		movne	r1, #1
 396 00a2 0320     		movs	r0, #3
 397 00a4 FFF7FEFF 		bl	_test_assert
 398              	.LVL35:
 399 00a8 0028     		cmp	r0, #0
ARM GAS  /tmp/ccAoyHKJ.s 			page 8


 400 00aa EAD1     		bne	.L21
 401              		.loc 1 168 0 discriminator 2
 402 00ac 013C     		subs	r4, r4, #1
 403              	.LVL36:
 404 00ae F2D1     		bne	.L27
 405              		.loc 1 170 0
 406 00b0 0748     		ldr	r0, .L36+8
 407 00b2 FFF7FEFF 		bl	chPoolAlloc
 408              	.LVL37:
 409 00b6 B0FA80F1 		clz	r1, r0
 410 00ba 4909     		lsrs	r1, r1, #5
 411 00bc 0420     		movs	r0, #4
 412              		.loc 1 171 0
 413 00be BDE87040 		pop	{r4, r5, r6, lr}
 414              		.cfi_restore 14
 415              		.cfi_restore 6
 416              		.cfi_restore 5
 417              		.cfi_restore 4
 418              		.cfi_def_cfa_offset 0
 419              	.LVL38:
 420              		.loc 1 170 0
 421 00c2 FFF7FEBF 		b	_test_assert
 422              	.LVL39:
 423              	.L37:
 424 00c6 00BF     		.align	2
 425              	.L36:
 426 00c8 00000000 		.word	rlist
 427 00cc 00000000 		.word	wa
 428 00d0 00000000 		.word	.LANCHOR1
 429 00d4 00000000 		.word	.LC0
 430 00d8 00000000 		.word	thread
 431 00dc 00000000 		.word	threads
 432 00e0 04000000 		.word	.LC1
 433 00e4 08000000 		.word	.LC2
 434 00e8 10000000 		.word	.LC4
 435 00ec 14000000 		.word	.LC5
 436 00f0 18000000 		.word	.LC6
 437              		.cfi_endproc
 438              	.LFE11:
 439              		.size	dyn2_execute, .-dyn2_execute
 440              		.section	.text.dyn2_setup,"ax",%progbits
 441              		.align	2
 442              		.p2align 4,,15
 443              		.thumb
 444              		.thumb_func
 445              		.type	dyn2_setup, %function
 446              	dyn2_setup:
 447              	.LFB10:
 448              		.loc 1 136 0
 449              		.cfi_startproc
 450              		@ args = 0, pretend = 0, frame = 0
 451              		@ frame_needed = 0, uses_anonymous_args = 0
 452              		@ link register save eliminated.
 453              		.loc 1 138 0
 454 0000 0022     		movs	r2, #0
 455 0002 4FF4A471 		mov	r1, #328
 456 0006 0148     		ldr	r0, .L39
ARM GAS  /tmp/ccAoyHKJ.s 			page 9


 457 0008 FFF7FEBF 		b	chPoolInit
 458              	.LVL40:
 459              	.L40:
 460              		.align	2
 461              	.L39:
 462 000c 00000000 		.word	.LANCHOR1
 463              		.cfi_endproc
 464              	.LFE10:
 465              		.size	dyn2_setup, .-dyn2_setup
 466              		.section	.text.regfind,"ax",%progbits
 467              		.align	2
 468              		.p2align 4,,15
 469              		.thumb
 470              		.thumb_func
 471              		.type	regfind, %function
 472              	regfind:
 473              	.LFB12:
 474              		.loc 1 191 0
 475              		.cfi_startproc
 476              		@ args = 0, pretend = 0, frame = 0
 477              		@ frame_needed = 0, uses_anonymous_args = 0
 478              	.LVL41:
 479 0000 38B5     		push	{r3, r4, r5, lr}
 480              		.cfi_def_cfa_offset 16
 481              		.cfi_offset 3, -16
 482              		.cfi_offset 4, -12
 483              		.cfi_offset 5, -8
 484              		.cfi_offset 14, -4
 485              		.loc 1 191 0
 486 0002 0546     		mov	r5, r0
 487              		.loc 1 195 0
 488 0004 FFF7FEFF 		bl	chRegFirstThread
 489              	.LVL42:
 490              		.loc 1 193 0
 491 0008 0024     		movs	r4, #0
 492              		.loc 1 195 0
 493 000a 0346     		mov	r3, r0
 494              	.LVL43:
 495              	.L42:
 496              		.loc 1 198 0 discriminator 1
 497 000c 1846     		mov	r0, r3
 498 000e AB42     		cmp	r3, r5
 499 0010 08BF     		it	eq
 500 0012 44F00104 		orreq	r4, r4, #1
 501              	.LVL44:
 502 0016 FFF7FEFF 		bl	chRegNextThread
 503              	.LVL45:
 504              		.loc 1 199 0 discriminator 1
 505 001a 0346     		mov	r3, r0
 506 001c 0028     		cmp	r0, #0
 507 001e F5D1     		bne	.L42
 508              		.loc 1 201 0
 509 0020 2046     		mov	r0, r4
 510              	.LVL46:
 511 0022 38BD     		pop	{r3, r4, r5, pc}
 512              		.cfi_endproc
 513              	.LFE12:
ARM GAS  /tmp/ccAoyHKJ.s 			page 10


 514              		.size	regfind, .-regfind
 515              		.section	.text.dyn3_execute,"ax",%progbits
 516              		.align	2
 517              		.p2align 4,,15
 518              		.thumb
 519              		.thumb_func
 520              		.type	dyn3_execute, %function
 521              	dyn3_execute:
 522              	.LFB14:
 523              		.loc 1 208 0
 524              		.cfi_startproc
 525              		@ args = 0, pretend = 0, frame = 0
 526              		@ frame_needed = 0, uses_anonymous_args = 0
 527              	.LVL47:
 528 0000 10B5     		push	{r4, lr}
 529              		.cfi_def_cfa_offset 8
 530              		.cfi_offset 4, -8
 531              		.cfi_offset 14, -4
 532              		.loc 1 210 0
 533 0002 474B     		ldr	r3, .L51
 534              		.loc 1 213 0
 535 0004 4749     		ldr	r1, .L51+4
 536              		.loc 1 210 0
 537 0006 9A69     		ldr	r2, [r3, #24]
 538              		.loc 1 213 0
 539 0008 4748     		ldr	r0, .L51+8
 540 000a 9268     		ldr	r2, [r2, #8]
 541 000c 474B     		ldr	r3, .L51+12
 542              		.loc 1 208 0
 543 000e 82B0     		sub	sp, sp, #8
 544              		.cfi_def_cfa_offset 16
 545              		.loc 1 213 0
 546 0010 013A     		subs	r2, r2, #1
 547 0012 0091     		str	r1, [sp]
 548              	.LVL48:
 549 0014 4FF4A471 		mov	r1, #328
 550 0018 FFF7FEFF 		bl	chThdCreateFromHeap
 551              	.LVL49:
 552 001c 0446     		mov	r4, r0
 553              	.LVL50:
 554              		.loc 1 214 0
 555 001e 0120     		movs	r0, #1
 556              	.LVL51:
 557 0020 A17F     		ldrb	r1, [r4, #30]	@ zero_extendqisi2
 558 0022 091A     		subs	r1, r1, r0
 559 0024 B1FA81F1 		clz	r1, r1
 560 0028 4909     		lsrs	r1, r1, #5
 561 002a FFF7FEFF 		bl	_test_assert
 562              	.LVL52:
 563 002e 08B1     		cbz	r0, .L50
 564              	.L45:
 565              		.loc 1 236 0
 566 0030 02B0     		add	sp, sp, #8
 567              		.cfi_remember_state
 568              		.cfi_def_cfa_offset 8
 569              		@ sp needed
 570 0032 10BD     		pop	{r4, pc}
ARM GAS  /tmp/ccAoyHKJ.s 			page 11


 571              	.LVL53:
 572              	.L50:
 573              		.cfi_restore_state
 574              		.loc 1 215 0
 575 0034 2046     		mov	r0, r4
 576 0036 FFF7FEFF 		bl	chThdAddRef
 577              	.LVL54:
 578              		.loc 1 216 0
 579 003a A17F     		ldrb	r1, [r4, #30]	@ zero_extendqisi2
 580 003c 0220     		movs	r0, #2
 581 003e 091A     		subs	r1, r1, r0
 582 0040 B1FA81F1 		clz	r1, r1
 583 0044 4909     		lsrs	r1, r1, #5
 584 0046 FFF7FEFF 		bl	_test_assert
 585              	.LVL55:
 586 004a 0028     		cmp	r0, #0
 587 004c F0D1     		bne	.L45
 588              		.loc 1 217 0
 589 004e 2046     		mov	r0, r4
 590 0050 FFF7FEFF 		bl	chThdRelease
 591              	.LVL56:
 592              		.loc 1 218 0
 593 0054 A17F     		ldrb	r1, [r4, #30]	@ zero_extendqisi2
 594 0056 A1F10101 		sub	r1, #1
 595 005a B1FA81F1 		clz	r1, r1
 596 005e 0320     		movs	r0, #3
 597 0060 4909     		lsrs	r1, r1, #5
 598 0062 FFF7FEFF 		bl	_test_assert
 599              	.LVL57:
 600 0066 0028     		cmp	r0, #0
 601 0068 E2D1     		bne	.L45
 602              		.loc 1 221 0
 603 006a 2046     		mov	r0, r4
 604 006c FFF7FEFF 		bl	regfind
 605              	.LVL58:
 606 0070 0146     		mov	r1, r0
 607 0072 0420     		movs	r0, #4
 608 0074 FFF7FEFF 		bl	_test_assert
 609              	.LVL59:
 610 0078 0028     		cmp	r0, #0
 611 007a D9D1     		bne	.L45
 612              		.loc 1 222 0
 613 007c 2046     		mov	r0, r4
 614 007e FFF7FEFF 		bl	regfind
 615              	.LVL60:
 616 0082 0146     		mov	r1, r0
 617 0084 0520     		movs	r0, #5
 618 0086 FFF7FEFF 		bl	_test_assert
 619              	.LVL61:
 620 008a 0028     		cmp	r0, #0
 621 008c D0D1     		bne	.L45
 622              		.loc 1 225 0
 623 008e 2046     		mov	r0, r4
 624 0090 FFF7FEFF 		bl	chThdRelease
 625              	.LVL62:
 626              		.loc 1 226 0
 627 0094 A17F     		ldrb	r1, [r4, #30]	@ zero_extendqisi2
ARM GAS  /tmp/ccAoyHKJ.s 			page 12


 628 0096 B1FA81F1 		clz	r1, r1
 629 009a 4909     		lsrs	r1, r1, #5
 630 009c 0620     		movs	r0, #6
 631 009e FFF7FEFF 		bl	_test_assert
 632              	.LVL63:
 633 00a2 0028     		cmp	r0, #0
 634 00a4 C4D1     		bne	.L45
 635              		.loc 1 227 0
 636 00a6 217F     		ldrb	r1, [r4, #28]	@ zero_extendqisi2
 637 00a8 B1FA81F1 		clz	r1, r1
 638 00ac 4909     		lsrs	r1, r1, #5
 639 00ae 0720     		movs	r0, #7
 640 00b0 FFF7FEFF 		bl	_test_assert
 641              	.LVL64:
 642 00b4 0028     		cmp	r0, #0
 643 00b6 BBD1     		bne	.L45
 644              		.loc 1 228 0
 645 00b8 2046     		mov	r0, r4
 646 00ba FFF7FEFF 		bl	regfind
 647              	.LVL65:
 648 00be 0146     		mov	r1, r0
 649 00c0 0820     		movs	r0, #8
 650 00c2 FFF7FEFF 		bl	_test_assert
 651              	.LVL66:
 652 00c6 0028     		cmp	r0, #0
 653 00c8 B2D1     		bne	.L45
 654              		.loc 1 229 0
 655 00ca 2046     		mov	r0, r4
 656 00cc FFF7FEFF 		bl	regfind
 657              	.LVL67:
 658 00d0 0146     		mov	r1, r0
 659 00d2 0920     		movs	r0, #9
 660 00d4 FFF7FEFF 		bl	_test_assert
 661              	.LVL68:
 662 00d8 0028     		cmp	r0, #0
 663 00da A9D1     		bne	.L45
 664              		.loc 1 230 0
 665 00dc 3220     		movs	r0, #50
 666 00de FFF7FEFF 		bl	chThdSleep
 667              	.LVL69:
 668              		.loc 1 231 0
 669 00e2 217F     		ldrb	r1, [r4, #28]	@ zero_extendqisi2
 670 00e4 A1F10E03 		sub	r3, r1, #14
 671 00e8 5942     		rsbs	r1, r3, #0
 672 00ea 5941     		adcs	r1, r1, r3
 673 00ec 0A20     		movs	r0, #10
 674 00ee FFF7FEFF 		bl	_test_assert
 675              	.LVL70:
 676 00f2 0028     		cmp	r0, #0
 677 00f4 9CD1     		bne	.L45
 678              		.loc 1 234 0
 679 00f6 2046     		mov	r0, r4
 680 00f8 FFF7FEFF 		bl	regfind
 681              	.LVL71:
 682 00fc 0146     		mov	r1, r0
 683 00fe 0B20     		movs	r0, #11
 684 0100 FFF7FEFF 		bl	_test_assert
ARM GAS  /tmp/ccAoyHKJ.s 			page 13


 685              	.LVL72:
 686 0104 0028     		cmp	r0, #0
 687 0106 93D1     		bne	.L45
 688              		.loc 1 235 0
 689 0108 2046     		mov	r0, r4
 690 010a FFF7FEFF 		bl	regfind
 691              	.LVL73:
 692 010e 80F00101 		eor	r1, r0, #1
 693 0112 C9B2     		uxtb	r1, r1
 694 0114 0C20     		movs	r0, #12
 695              		.loc 1 236 0
 696 0116 02B0     		add	sp, sp, #8
 697              		.cfi_def_cfa_offset 8
 698              		@ sp needed
 699 0118 BDE81040 		pop	{r4, lr}
 700              		.cfi_restore 14
 701              		.cfi_restore 4
 702              		.cfi_def_cfa_offset 0
 703              	.LVL74:
 704              		.loc 1 235 0
 705 011c FFF7FEBF 		b	_test_assert
 706              	.LVL75:
 707              	.L52:
 708              		.align	2
 709              	.L51:
 710 0120 00000000 		.word	rlist
 711 0124 00000000 		.word	.LC0
 712 0128 00000000 		.word	.LANCHOR0
 713 012c 00000000 		.word	thread
 714              		.cfi_endproc
 715              	.LFE14:
 716              		.size	dyn3_execute, .-dyn3_execute
 717              		.global	patterndyn
 718              		.global	testdyn3
 719              		.global	testdyn2
 720              		.global	testdyn1
 721              		.section	.rodata.testdyn1,"a",%progbits
 722              		.align	2
 723              		.type	testdyn1, %object
 724              		.size	testdyn1, 16
 725              	testdyn1:
 726 0000 78000000 		.word	.LC9
 727 0004 00000000 		.word	dyn1_setup
 728 0008 00000000 		.word	0
 729 000c 00000000 		.word	dyn1_execute
 730              		.section	.rodata.testdyn2,"a",%progbits
 731              		.align	2
 732              		.type	testdyn2, %object
 733              		.size	testdyn2, 16
 734              	testdyn2:
 735 0000 48000000 		.word	.LC8
 736 0004 00000000 		.word	dyn2_setup
 737 0008 00000000 		.word	0
 738 000c 00000000 		.word	dyn2_execute
 739              		.section	.rodata.testdyn3,"a",%progbits
 740              		.align	2
 741              		.type	testdyn3, %object
ARM GAS  /tmp/ccAoyHKJ.s 			page 14


 742              		.size	testdyn3, 16
 743              	testdyn3:
 744 0000 20000000 		.word	.LC7
 745 0004 00000000 		.word	dyn3_setup
 746 0008 00000000 		.word	0
 747 000c 00000000 		.word	dyn3_execute
 748              		.section	.bss.mp1,"aw",%nobits
 749              		.align	2
 750              		.set	.LANCHOR1,. + 0
 751              		.type	mp1, %object
 752              		.size	mp1, 12
 753              	mp1:
 754 0000 00000000 		.space	12
 754      00000000 
 754      00000000 
 755              		.section	.rodata.str1.4,"aMS",%progbits,1
 756              		.align	2
 757              	.LC0:
 758 0000 4100     		.ascii	"A\000"
 759 0002 0000     		.space	2
 760              	.LC1:
 761 0004 4200     		.ascii	"B\000"
 762 0006 0000     		.space	2
 763              	.LC2:
 764 0008 4300     		.ascii	"C\000"
 765 000a 0000     		.space	2
 766              	.LC3:
 767 000c 414200   		.ascii	"AB\000"
 768 000f 00       		.space	1
 769              	.LC4:
 770 0010 4400     		.ascii	"D\000"
 771 0012 0000     		.space	2
 772              	.LC5:
 773 0014 4500     		.ascii	"E\000"
 774 0016 0000     		.space	2
 775              	.LC6:
 776 0018 41424344 		.ascii	"ABCD\000"
 776      00
 777 001d 000000   		.space	3
 778              	.LC7:
 779 0020 44796E61 		.ascii	"Dynamic APIs, registry and references\000"
 779      6D696320 
 779      41504973 
 779      2C207265 
 779      67697374 
 780 0046 0000     		.space	2
 781              	.LC8:
 782 0048 44796E61 		.ascii	"Dynamic APIs, threads creation from memory pool\000"
 782      6D696320 
 782      41504973 
 782      2C207468 
 782      72656164 
 783              	.LC9:
 784 0078 44796E61 		.ascii	"Dynamic APIs, threads creation from heap\000"
 784      6D696320 
 784      41504973 
 784      2C207468 
ARM GAS  /tmp/ccAoyHKJ.s 			page 15


 784      72656164 
 785              		.section	.rodata.patterndyn,"a",%progbits
 786              		.align	2
 787              		.type	patterndyn, %object
 788              		.size	patterndyn, 16
 789              	patterndyn:
 790 0000 00000000 		.word	testdyn1
 791 0004 00000000 		.word	testdyn2
 792 0008 00000000 		.word	testdyn3
 793 000c 00000000 		.word	0
 794              		.section	.bss.heap1,"aw",%nobits
 795              		.align	3
 796              		.set	.LANCHOR0,. + 0
 797              		.type	heap1, %object
 798              		.size	heap1, 32
 799              	heap1:
 800 0000 00000000 		.space	32
 800      00000000 
 800      00000000 
 800      00000000 
 800      00000000 
 801              		.text
 802              	.Letext0:
 803              		.file 2 "/usr/local/gcc-arm-none-eabi-5_4-2016q3/lib/gcc/arm-none-eabi/5.4.1/include/stddef.h"
 804              		.file 3 "/usr/local/gcc-arm-none-eabi-5_4-2016q3/arm-none-eabi/include/machine/_default_types.h"
 805              		.file 4 "/usr/local/gcc-arm-none-eabi-5_4-2016q3/arm-none-eabi/include/sys/_stdint.h"
 806              		.file 5 "../ChibiOS_2.6.9/os/ports/GCC/ARMCMx/chtypes.h"
 807              		.file 6 "../ChibiOS_2.6.9/os/kernel/include/chlists.h"
 808              		.file 7 "../ChibiOS_2.6.9/os/kernel/include/chthreads.h"
 809              		.file 8 "../ChibiOS_2.6.9/os/ports/GCC/ARMCMx/chcore_v7m.h"
 810              		.file 9 "../ChibiOS_2.6.9/os/kernel/include/chschd.h"
 811              		.file 10 "../ChibiOS_2.6.9/os/kernel/include/chmtx.h"
 812              		.file 11 "../ChibiOS_2.6.9/os/kernel/include/chmemcore.h"
 813              		.file 12 "../ChibiOS_2.6.9/os/kernel/include/chheap.h"
 814              		.file 13 "../ChibiOS_2.6.9/os/kernel/include/chmempools.h"
 815              		.file 14 "../ChibiOS_2.6.9/test/test.h"
 816              		.file 15 "../ChibiOS_2.6.9/os/kernel/include/chdynamic.h"
 817              		.file 16 "../ChibiOS_2.6.9/os/kernel/include/chregistry.h"