ARM GAS  /tmp/ccrJ1Ybk.s 			page 1


   1              		.syntax unified
   2              		.cpu cortex-m4
   3              		.fpu softvfp
   4              		.eabi_attribute 20, 1
   5              		.eabi_attribute 21, 1
   6              		.eabi_attribute 23, 3
   7              		.eabi_attribute 24, 1
   8              		.eabi_attribute 25, 1
   9              		.eabi_attribute 26, 1
  10              		.eabi_attribute 30, 2
  11              		.eabi_attribute 34, 1
  12              		.eabi_attribute 18, 4
  13              		.thumb
  14              		.syntax unified
  15              		.file	"testmtx.c"
  16              		.text
  17              	.Ltext0:
  18              		.cfi_sections	.debug_frame
  19              		.section	.text.mtx1_execute,"ax",%progbits
  20              		.align	2
  21              		.p2align 4,,15
  22              		.thumb
  23              		.thumb_func
  24              		.type	mtx1_execute, %function
  25              	mtx1_execute:
  26              	.LFB9:
  27              		.file 1 "../ChibiOS_2.6.9/test/testmtx.c"
  28              		.loc 1 97 0
  29              		.cfi_startproc
  30              		@ args = 0, pretend = 0, frame = 0
  31              		@ frame_needed = 0, uses_anonymous_args = 0
  32 0000 F0B5     		push	{r4, r5, r6, r7, lr}
  33              		.cfi_def_cfa_offset 20
  34              		.cfi_offset 4, -20
  35              		.cfi_offset 5, -16
  36              		.cfi_offset 6, -12
  37              		.cfi_offset 7, -8
  38              		.cfi_offset 14, -4
  39              		.loc 1 99 0
  40 0002 2B4F     		ldr	r7, .L6
  41              		.loc 1 101 0
  42 0004 2B4E     		ldr	r6, .L6+4
  43              		.loc 1 99 0
  44 0006 BB69     		ldr	r3, [r7, #24]
  45              		.loc 1 100 0
  46 0008 2B48     		ldr	r0, .L6+8
  47              		.loc 1 99 0
  48 000a 9C68     		ldr	r4, [r3, #8]
  49              	.LVL0:
  50              		.loc 1 101 0
  51 000c 2B4D     		ldr	r5, .L6+12
  52              		.loc 1 97 0
  53 000e 83B0     		sub	sp, sp, #12
  54              		.cfi_def_cfa_offset 32
  55              		.loc 1 100 0
  56 0010 FFF7FEFF 		bl	chMtxLock
  57              	.LVL1:
ARM GAS  /tmp/ccrJ1Ybk.s 			page 2


  58              		.loc 1 101 0
  59 0014 2A4B     		ldr	r3, .L6+16
  60 0016 0093     		str	r3, [sp]
  61 0018 621C     		adds	r2, r4, #1
  62 001a 2A4B     		ldr	r3, .L6+20
  63 001c 3068     		ldr	r0, [r6]
  64 001e 4FF4A471 		mov	r1, #328
  65 0022 FFF7FEFF 		bl	chThdCreateStatic
  66              	.LVL2:
  67              		.loc 1 102 0
  68 0026 7168     		ldr	r1, [r6, #4]
  69 0028 274B     		ldr	r3, .L6+24
  70              		.loc 1 101 0
  71 002a 2860     		str	r0, [r5]
  72              		.loc 1 102 0
  73 002c A21C     		adds	r2, r4, #2
  74 002e 0846     		mov	r0, r1
  75 0030 0093     		str	r3, [sp]
  76 0032 4FF4A471 		mov	r1, #328
  77 0036 234B     		ldr	r3, .L6+20
  78 0038 FFF7FEFF 		bl	chThdCreateStatic
  79              	.LVL3:
  80              		.loc 1 103 0
  81 003c B168     		ldr	r1, [r6, #8]
  82 003e 234B     		ldr	r3, .L6+28
  83              		.loc 1 102 0
  84 0040 6860     		str	r0, [r5, #4]
  85              		.loc 1 103 0
  86 0042 E21C     		adds	r2, r4, #3
  87 0044 0846     		mov	r0, r1
  88 0046 0093     		str	r3, [sp]
  89 0048 4FF4A471 		mov	r1, #328
  90 004c 1D4B     		ldr	r3, .L6+20
  91 004e FFF7FEFF 		bl	chThdCreateStatic
  92              	.LVL4:
  93              		.loc 1 104 0
  94 0052 F168     		ldr	r1, [r6, #12]
  95 0054 1E4B     		ldr	r3, .L6+32
  96              		.loc 1 103 0
  97 0056 A860     		str	r0, [r5, #8]
  98              		.loc 1 104 0
  99 0058 221D     		adds	r2, r4, #4
 100 005a 0846     		mov	r0, r1
 101 005c 0093     		str	r3, [sp]
 102 005e 4FF4A471 		mov	r1, #328
 103 0062 184B     		ldr	r3, .L6+20
 104 0064 FFF7FEFF 		bl	chThdCreateStatic
 105              	.LVL5:
 106              		.loc 1 105 0
 107 0068 3169     		ldr	r1, [r6, #16]
 108 006a 1A4B     		ldr	r3, .L6+36
 109              		.loc 1 104 0
 110 006c E860     		str	r0, [r5, #12]
 111              		.loc 1 105 0
 112 006e 621D     		adds	r2, r4, #5
 113 0070 0846     		mov	r0, r1
 114 0072 0093     		str	r3, [sp]
ARM GAS  /tmp/ccrJ1Ybk.s 			page 3


 115 0074 4FF4A471 		mov	r1, #328
 116 0078 124B     		ldr	r3, .L6+20
 117 007a FFF7FEFF 		bl	chThdCreateStatic
 118              	.LVL6:
 119 007e 2861     		str	r0, [r5, #16]
 120              		.loc 1 106 0
 121 0080 FFF7FEFF 		bl	chMtxUnlock
 122              	.LVL7:
 123              		.loc 1 107 0
 124 0084 FFF7FEFF 		bl	test_wait_threads
 125              	.LVL8:
 126              		.loc 1 108 0
 127 0088 BB69     		ldr	r3, [r7, #24]
 128 008a 9968     		ldr	r1, [r3, #8]
 129 008c 091B     		subs	r1, r1, r4
 130 008e B1FA81F1 		clz	r1, r1
 131 0092 0120     		movs	r0, #1
 132 0094 4909     		lsrs	r1, r1, #5
 133 0096 FFF7FEFF 		bl	_test_assert
 134              	.LVL9:
 135 009a 08B1     		cbz	r0, .L5
 136              		.loc 1 110 0
 137 009c 03B0     		add	sp, sp, #12
 138              		.cfi_remember_state
 139              		.cfi_def_cfa_offset 20
 140              		@ sp needed
 141 009e F0BD     		pop	{r4, r5, r6, r7, pc}
 142              	.LVL10:
 143              	.L5:
 144              		.cfi_restore_state
 145              		.loc 1 109 0
 146 00a0 0D49     		ldr	r1, .L6+40
 147 00a2 0220     		movs	r0, #2
 148              		.loc 1 110 0
 149 00a4 03B0     		add	sp, sp, #12
 150              		.cfi_def_cfa_offset 20
 151              		@ sp needed
 152 00a6 BDE8F040 		pop	{r4, r5, r6, r7, lr}
 153              		.cfi_restore 14
 154              		.cfi_restore 7
 155              		.cfi_restore 6
 156              		.cfi_restore 5
 157              		.cfi_restore 4
 158              		.cfi_def_cfa_offset 0
 159              	.LVL11:
 160              		.loc 1 109 0
 161 00aa FFF7FEBF 		b	_test_assert_sequence
 162              	.LVL12:
 163              	.L7:
 164 00ae 00BF     		.align	2
 165              	.L6:
 166 00b0 00000000 		.word	rlist
 167 00b4 00000000 		.word	wa
 168 00b8 00000000 		.word	.LANCHOR0
 169 00bc 00000000 		.word	threads
 170 00c0 00000000 		.word	.LC0
 171 00c4 00000000 		.word	thread1
ARM GAS  /tmp/ccrJ1Ybk.s 			page 4


 172 00c8 04000000 		.word	.LC1
 173 00cc 08000000 		.word	.LC2
 174 00d0 0C000000 		.word	.LC3
 175 00d4 10000000 		.word	.LC4
 176 00d8 14000000 		.word	.LC5
 177              		.cfi_endproc
 178              	.LFE9:
 179              		.size	mtx1_execute, .-mtx1_execute
 180              		.section	.text.thread1,"ax",%progbits
 181              		.align	2
 182              		.p2align 4,,15
 183              		.thumb
 184              		.thumb_func
 185              		.type	thread1, %function
 186              	thread1:
 187              	.LFB8:
 188              		.loc 1 89 0
 189              		.cfi_startproc
 190              		@ args = 0, pretend = 0, frame = 0
 191              		@ frame_needed = 0, uses_anonymous_args = 0
 192              	.LVL13:
 193 0000 10B5     		push	{r4, lr}
 194              		.cfi_def_cfa_offset 8
 195              		.cfi_offset 4, -8
 196              		.cfi_offset 14, -4
 197              		.loc 1 89 0
 198 0002 0446     		mov	r4, r0
 199              		.loc 1 91 0
 200 0004 0448     		ldr	r0, .L10
 201              	.LVL14:
 202 0006 FFF7FEFF 		bl	chMtxLock
 203              	.LVL15:
 204              		.loc 1 92 0
 205 000a 2078     		ldrb	r0, [r4]	@ zero_extendqisi2
 206 000c FFF7FEFF 		bl	test_emit_token
 207              	.LVL16:
 208              		.loc 1 93 0
 209 0010 FFF7FEFF 		bl	chMtxUnlock
 210              	.LVL17:
 211              		.loc 1 95 0
 212 0014 0020     		movs	r0, #0
 213 0016 10BD     		pop	{r4, pc}
 214              	.LVL18:
 215              	.L11:
 216              		.align	2
 217              	.L10:
 218 0018 00000000 		.word	.LANCHOR0
 219              		.cfi_endproc
 220              	.LFE8:
 221              		.size	thread1, .-thread1
 222              		.section	.text.thread12,"ax",%progbits
 223              		.align	2
 224              		.p2align 4,,15
 225              		.thumb
 226              		.thumb_func
 227              		.type	thread12, %function
 228              	thread12:
ARM GAS  /tmp/ccrJ1Ybk.s 			page 5


 229              	.LFB23:
 230              		.loc 1 588 0
 231              		.cfi_startproc
 232              		@ args = 0, pretend = 0, frame = 0
 233              		@ frame_needed = 0, uses_anonymous_args = 0
 234              	.LVL19:
 235 0000 10B5     		push	{r4, lr}
 236              		.cfi_def_cfa_offset 8
 237              		.cfi_offset 4, -8
 238              		.cfi_offset 14, -4
 239              		.loc 1 588 0
 240 0002 0446     		mov	r4, r0
 241              		.loc 1 590 0
 242 0004 0448     		ldr	r0, .L14
 243              	.LVL20:
 244 0006 FFF7FEFF 		bl	chMtxLock
 245              	.LVL21:
 246              		.loc 1 591 0
 247 000a 2078     		ldrb	r0, [r4]	@ zero_extendqisi2
 248 000c FFF7FEFF 		bl	test_emit_token
 249              	.LVL22:
 250              		.loc 1 592 0
 251 0010 FFF7FEFF 		bl	chMtxUnlock
 252              	.LVL23:
 253              		.loc 1 594 0
 254 0014 0020     		movs	r0, #0
 255 0016 10BD     		pop	{r4, pc}
 256              	.LVL24:
 257              	.L15:
 258              		.align	2
 259              	.L14:
 260 0018 00000000 		.word	.LANCHOR1
 261              		.cfi_endproc
 262              	.LFE23:
 263              		.size	thread12, .-thread12
 264              		.section	.text.mtx4_setup,"ax",%progbits
 265              		.align	2
 266              		.p2align 4,,15
 267              		.thumb
 268              		.thumb_func
 269              		.type	mtx4_setup, %function
 270              	mtx4_setup:
 271              	.LFB10:
 272              		.loc 1 341 0
 273              		.cfi_startproc
 274              		@ args = 0, pretend = 0, frame = 0
 275              		@ frame_needed = 0, uses_anonymous_args = 0
 276 0000 08B5     		push	{r3, lr}
 277              		.cfi_def_cfa_offset 8
 278              		.cfi_offset 3, -8
 279              		.cfi_offset 14, -4
 280              		.loc 1 343 0
 281 0002 0448     		ldr	r0, .L18
 282 0004 FFF7FEFF 		bl	chMtxInit
 283              	.LVL25:
 284              		.loc 1 344 0
 285 0008 0348     		ldr	r0, .L18+4
ARM GAS  /tmp/ccrJ1Ybk.s 			page 6


 286              		.loc 1 345 0
 287 000a BDE80840 		pop	{r3, lr}
 288              		.cfi_restore 14
 289              		.cfi_restore 3
 290              		.cfi_def_cfa_offset 0
 291              		.loc 1 344 0
 292 000e FFF7FEBF 		b	chMtxInit
 293              	.LVL26:
 294              	.L19:
 295 0012 00BF     		.align	2
 296              	.L18:
 297 0014 00000000 		.word	.LANCHOR0
 298 0018 00000000 		.word	.LANCHOR1
 299              		.cfi_endproc
 300              	.LFE10:
 301              		.size	mtx4_setup, .-mtx4_setup
 302              		.section	.text.mtx5_setup,"ax",%progbits
 303              		.align	2
 304              		.p2align 4,,15
 305              		.thumb
 306              		.thumb_func
 307              		.type	mtx5_setup, %function
 308              	mtx5_setup:
 309              	.LFB14:
 310              		.loc 1 429 0
 311              		.cfi_startproc
 312              		@ args = 0, pretend = 0, frame = 0
 313              		@ frame_needed = 0, uses_anonymous_args = 0
 314              		@ link register save eliminated.
 315              		.loc 1 431 0
 316 0000 0148     		ldr	r0, .L21
 317 0002 FFF7FEBF 		b	chMtxInit
 318              	.LVL27:
 319              	.L22:
 320 0006 00BF     		.align	2
 321              	.L21:
 322 0008 00000000 		.word	.LANCHOR0
 323              		.cfi_endproc
 324              	.LFE14:
 325              		.size	mtx5_setup, .-mtx5_setup
 326              		.section	.text.mtx1_setup,"ax",%progbits
 327              		.align	2
 328              		.p2align 4,,15
 329              		.thumb
 330              		.thumb_func
 331              		.type	mtx1_setup, %function
 332              	mtx1_setup:
 333              	.LFB28:
 334              		.cfi_startproc
 335              		@ args = 0, pretend = 0, frame = 0
 336              		@ frame_needed = 0, uses_anonymous_args = 0
 337              		@ link register save eliminated.
 338 0000 FFF7FEBF 		b	mtx5_setup
 339              		.cfi_endproc
 340              	.LFE28:
 341              		.size	mtx1_setup, .-mtx1_setup
 342              		.section	.text.thread4b,"ax",%progbits
ARM GAS  /tmp/ccrJ1Ybk.s 			page 7


 343              		.align	2
 344              		.p2align 4,,15
 345              		.thumb
 346              		.thumb_func
 347              		.type	thread4b, %function
 348              	thread4b:
 349              	.LFB12:
 350              		.loc 1 356 0
 351              		.cfi_startproc
 352              		@ args = 0, pretend = 0, frame = 0
 353              		@ frame_needed = 0, uses_anonymous_args = 0
 354              	.LVL28:
 355              		.loc 1 356 0
 356 0000 08B5     		push	{r3, lr}
 357              		.cfi_def_cfa_offset 8
 358              		.cfi_offset 3, -8
 359              		.cfi_offset 14, -4
 360              		.loc 1 359 0
 361 0002 9620     		movs	r0, #150
 362              	.LVL29:
 363 0004 FFF7FEFF 		bl	chThdSleep
 364              	.LVL30:
 365              		.loc 1 360 0
 366 0008 0348     		ldr	r0, .L26
 367 000a FFF7FEFF 		bl	chMtxLock
 368              	.LVL31:
 369              		.loc 1 361 0
 370 000e FFF7FEFF 		bl	chMtxUnlock
 371              	.LVL32:
 372              		.loc 1 363 0
 373 0012 0020     		movs	r0, #0
 374 0014 08BD     		pop	{r3, pc}
 375              	.L27:
 376 0016 00BF     		.align	2
 377              	.L26:
 378 0018 00000000 		.word	.LANCHOR0
 379              		.cfi_endproc
 380              	.LFE12:
 381              		.size	thread4b, .-thread4b
 382              		.section	.text.thread4a,"ax",%progbits
 383              		.align	2
 384              		.p2align 4,,15
 385              		.thumb
 386              		.thumb_func
 387              		.type	thread4a, %function
 388              	thread4a:
 389              	.LFB11:
 390              		.loc 1 347 0
 391              		.cfi_startproc
 392              		@ args = 0, pretend = 0, frame = 0
 393              		@ frame_needed = 0, uses_anonymous_args = 0
 394              	.LVL33:
 395 0000 08B5     		push	{r3, lr}
 396              		.cfi_def_cfa_offset 8
 397              		.cfi_offset 3, -8
 398              		.cfi_offset 14, -4
 399              		.loc 1 350 0
ARM GAS  /tmp/ccrJ1Ybk.s 			page 8


 400 0002 3220     		movs	r0, #50
 401              	.LVL34:
 402 0004 FFF7FEFF 		bl	chThdSleep
 403              	.LVL35:
 404              		.loc 1 351 0
 405 0008 0348     		ldr	r0, .L30
 406 000a FFF7FEFF 		bl	chMtxLock
 407              	.LVL36:
 408              		.loc 1 352 0
 409 000e FFF7FEFF 		bl	chMtxUnlock
 410              	.LVL37:
 411              		.loc 1 354 0
 412 0012 0020     		movs	r0, #0
 413 0014 08BD     		pop	{r3, pc}
 414              	.L31:
 415 0016 00BF     		.align	2
 416              	.L30:
 417 0018 00000000 		.word	.LANCHOR1
 418              		.cfi_endproc
 419              	.LFE11:
 420              		.size	thread4a, .-thread4a
 421              		.section	.text.mtx4_execute,"ax",%progbits
 422              		.align	2
 423              		.p2align 4,,15
 424              		.thumb
 425              		.thumb_func
 426              		.type	mtx4_execute, %function
 427              	mtx4_execute:
 428              	.LFB13:
 429              		.loc 1 365 0
 430              		.cfi_startproc
 431              		@ args = 0, pretend = 0, frame = 8
 432              		@ frame_needed = 0, uses_anonymous_args = 0
 433 0000 2DE9F046 		push	{r4, r5, r6, r7, r9, r10, lr}
 434              		.cfi_def_cfa_offset 28
 435              		.cfi_offset 4, -28
 436              		.cfi_offset 5, -24
 437              		.cfi_offset 6, -20
 438              		.cfi_offset 7, -16
 439              		.cfi_offset 9, -12
 440              		.cfi_offset 10, -8
 441              		.cfi_offset 14, -4
 442              		.loc 1 368 0
 443 0004 8A4D     		ldr	r5, .L38
 444              		.loc 1 371 0
 445 0006 8B4E     		ldr	r6, .L38+4
 446              		.loc 1 368 0
 447 0008 AB69     		ldr	r3, [r5, #24]
 448              		.loc 1 371 0
 449 000a 3268     		ldr	r2, [r6]
 450              		.loc 1 368 0
 451 000c 9C68     		ldr	r4, [r3, #8]
 452              	.LVL38:
 453              		.loc 1 371 0
 454 000e 8A4B     		ldr	r3, .L38+8
 455 0010 8A4F     		ldr	r7, .L38+12
 456              		.loc 1 365 0
ARM GAS  /tmp/ccrJ1Ybk.s 			page 9


 457 0012 85B0     		sub	sp, sp, #20
 458              		.cfi_def_cfa_offset 48
 459              		.loc 1 369 0
 460 0014 04F10109 		add	r9, r4, #1
 461              	.LVL39:
 462              		.loc 1 371 0
 463 0018 1046     		mov	r0, r2
 464 001a 0392     		str	r2, [sp, #12]
 465 001c 0093     		str	r3, [sp]
 466 001e 4A46     		mov	r2, r9
 467 0020 874B     		ldr	r3, .L38+16
 468 0022 4FF4A471 		mov	r1, #328
 469 0026 FFF7FEFF 		bl	chThdCreateStatic
 470              	.LVL40:
 471              		.loc 1 372 0
 472 002a 7668     		ldr	r6, [r6, #4]
 473 002c 854B     		ldr	r3, .L38+20
 474              		.loc 1 371 0
 475 002e 3860     		str	r0, [r7]
 476              		.loc 1 370 0
 477 0030 04F1020A 		add	r10, r4, #2
 478              	.LVL41:
 479              		.loc 1 372 0
 480 0034 4FF4A471 		mov	r1, #328
 481 0038 5246     		mov	r2, r10
 482 003a 0093     		str	r3, [sp]
 483 003c 3046     		mov	r0, r6
 484 003e 824B     		ldr	r3, .L38+24
 485 0040 FFF7FEFF 		bl	chThdCreateStatic
 486              	.LVL42:
 487 0044 7860     		str	r0, [r7, #4]
 488              		.loc 1 373 0
 489 0046 8148     		ldr	r0, .L38+28
 490 0048 FFF7FEFF 		bl	chMtxLock
 491              	.LVL43:
 492              		.loc 1 374 0
 493 004c AB69     		ldr	r3, [r5, #24]
 494 004e 9968     		ldr	r1, [r3, #8]
 495 0050 091B     		subs	r1, r1, r4
 496 0052 B1FA81F1 		clz	r1, r1
 497 0056 0120     		movs	r0, #1
 498 0058 4909     		lsrs	r1, r1, #5
 499 005a FFF7FEFF 		bl	_test_assert
 500              	.LVL44:
 501 005e 10B1     		cbz	r0, .L37
 502              	.L32:
 503              		.loc 1 410 0
 504 0060 05B0     		add	sp, sp, #20
 505              		.cfi_remember_state
 506              		.cfi_def_cfa_offset 28
 507              		@ sp needed
 508 0062 BDE8F086 		pop	{r4, r5, r6, r7, r9, r10, pc}
 509              	.LVL45:
 510              	.L37:
 511              		.cfi_restore_state
 512              		.loc 1 375 0
 513 0066 6420     		movs	r0, #100
ARM GAS  /tmp/ccrJ1Ybk.s 			page 10


 514 0068 FFF7FEFF 		bl	chThdSleep
 515              	.LVL46:
 516              		.loc 1 376 0
 517 006c AB69     		ldr	r3, [r5, #24]
 518 006e 9968     		ldr	r1, [r3, #8]
 519 0070 C9EB0101 		rsb	r1, r9, r1
 520 0074 B1FA81F1 		clz	r1, r1
 521 0078 0220     		movs	r0, #2
 522 007a 4909     		lsrs	r1, r1, #5
 523 007c FFF7FEFF 		bl	_test_assert
 524              	.LVL47:
 525 0080 0028     		cmp	r0, #0
 526 0082 EDD1     		bne	.L32
 527              		.loc 1 377 0
 528 0084 7248     		ldr	r0, .L38+32
 529 0086 FFF7FEFF 		bl	chMtxLock
 530              	.LVL48:
 531              		.loc 1 378 0
 532 008a AB69     		ldr	r3, [r5, #24]
 533 008c 9968     		ldr	r1, [r3, #8]
 534 008e C9EB0101 		rsb	r1, r9, r1
 535 0092 B1FA81F1 		clz	r1, r1
 536 0096 0320     		movs	r0, #3
 537 0098 4909     		lsrs	r1, r1, #5
 538 009a FFF7FEFF 		bl	_test_assert
 539              	.LVL49:
 540 009e 0028     		cmp	r0, #0
 541 00a0 DED1     		bne	.L32
 542              		.loc 1 379 0
 543 00a2 6420     		movs	r0, #100
 544 00a4 FFF7FEFF 		bl	chThdSleep
 545              	.LVL50:
 546              		.loc 1 380 0
 547 00a8 AB69     		ldr	r3, [r5, #24]
 548 00aa 9968     		ldr	r1, [r3, #8]
 549 00ac CAEB0101 		rsb	r1, r10, r1
 550 00b0 B1FA81F1 		clz	r1, r1
 551 00b4 0420     		movs	r0, #4
 552 00b6 4909     		lsrs	r1, r1, #5
 553 00b8 FFF7FEFF 		bl	_test_assert
 554              	.LVL51:
 555 00bc 0028     		cmp	r0, #0
 556 00be CFD1     		bne	.L32
 557              		.loc 1 381 0
 558 00c0 FFF7FEFF 		bl	chMtxUnlock
 559              	.LVL52:
 560              		.loc 1 382 0
 561 00c4 AB69     		ldr	r3, [r5, #24]
 562 00c6 9968     		ldr	r1, [r3, #8]
 563 00c8 C9EB0101 		rsb	r1, r9, r1
 564 00cc B1FA81F1 		clz	r1, r1
 565 00d0 0520     		movs	r0, #5
 566 00d2 4909     		lsrs	r1, r1, #5
 567 00d4 FFF7FEFF 		bl	_test_assert
 568              	.LVL53:
 569 00d8 0028     		cmp	r0, #0
 570 00da C1D1     		bne	.L32
ARM GAS  /tmp/ccrJ1Ybk.s 			page 11


 571              		.loc 1 383 0
 572 00dc 6420     		movs	r0, #100
 573 00de FFF7FEFF 		bl	chThdSleep
 574              	.LVL54:
 575              		.loc 1 384 0
 576 00e2 AB69     		ldr	r3, [r5, #24]
 577 00e4 9968     		ldr	r1, [r3, #8]
 578 00e6 C9EB0101 		rsb	r1, r9, r1
 579 00ea B1FA81F1 		clz	r1, r1
 580 00ee 0620     		movs	r0, #6
 581 00f0 4909     		lsrs	r1, r1, #5
 582 00f2 FFF7FEFF 		bl	_test_assert
 583              	.LVL55:
 584 00f6 0028     		cmp	r0, #0
 585 00f8 B2D1     		bne	.L32
 586              		.loc 1 385 0
 587 00fa FFF7FEFF 		bl	chMtxUnlockAll
 588              	.LVL56:
 589              		.loc 1 386 0
 590 00fe AB69     		ldr	r3, [r5, #24]
 591 0100 9968     		ldr	r1, [r3, #8]
 592 0102 091B     		subs	r1, r1, r4
 593 0104 B1FA81F1 		clz	r1, r1
 594 0108 0720     		movs	r0, #7
 595 010a 4909     		lsrs	r1, r1, #5
 596 010c FFF7FEFF 		bl	_test_assert
 597              	.LVL57:
 598 0110 0028     		cmp	r0, #0
 599 0112 A5D1     		bne	.L32
 600              		.loc 1 387 0
 601 0114 FFF7FEFF 		bl	test_wait_threads
 602              	.LVL58:
 603              		.loc 1 390 0
 604 0118 4E4B     		ldr	r3, .L38+36
 605 011a 0093     		str	r3, [sp]
 606 011c 4A46     		mov	r2, r9
 607 011e 484B     		ldr	r3, .L38+16
 608 0120 0398     		ldr	r0, [sp, #12]
 609 0122 4FF4A471 		mov	r1, #328
 610 0126 FFF7FEFF 		bl	chThdCreateStatic
 611              	.LVL59:
 612              		.loc 1 391 0
 613 012a 4B4B     		ldr	r3, .L38+40
 614              		.loc 1 390 0
 615 012c 3860     		str	r0, [r7]
 616              		.loc 1 391 0
 617 012e 4FF4A471 		mov	r1, #328
 618 0132 0093     		str	r3, [sp]
 619 0134 5246     		mov	r2, r10
 620 0136 444B     		ldr	r3, .L38+24
 621 0138 3046     		mov	r0, r6
 622 013a FFF7FEFF 		bl	chThdCreateStatic
 623              	.LVL60:
 624 013e 7860     		str	r0, [r7, #4]
 625              		.loc 1 392 0
 626 0140 4248     		ldr	r0, .L38+28
 627 0142 FFF7FEFF 		bl	chMtxLock
ARM GAS  /tmp/ccrJ1Ybk.s 			page 12


 628              	.LVL61:
 629              		.loc 1 393 0
 630 0146 AB69     		ldr	r3, [r5, #24]
 631 0148 9968     		ldr	r1, [r3, #8]
 632 014a 091B     		subs	r1, r1, r4
 633 014c B1FA81F1 		clz	r1, r1
 634 0150 0820     		movs	r0, #8
 635 0152 4909     		lsrs	r1, r1, #5
 636 0154 FFF7FEFF 		bl	_test_assert
 637              	.LVL62:
 638 0158 0028     		cmp	r0, #0
 639 015a 81D1     		bne	.L32
 640              		.loc 1 394 0
 641 015c 6420     		movs	r0, #100
 642 015e FFF7FEFF 		bl	chThdSleep
 643              	.LVL63:
 644              		.loc 1 395 0
 645 0162 AB69     		ldr	r3, [r5, #24]
 646 0164 9968     		ldr	r1, [r3, #8]
 647 0166 C9EB010C 		rsb	ip, r9, r1
 648 016a DCF10001 		rsbs	r1, ip, #0
 649 016e 41EB0C01 		adc	r1, r1, ip
 650 0172 0920     		movs	r0, #9
 651 0174 FFF7FEFF 		bl	_test_assert
 652              	.LVL64:
 653 0178 0028     		cmp	r0, #0
 654 017a 7FF471AF 		bne	.L32
 655              		.loc 1 396 0
 656 017e 3448     		ldr	r0, .L38+32
 657 0180 FFF7FEFF 		bl	chMtxLock
 658              	.LVL65:
 659              		.loc 1 397 0
 660 0184 AB69     		ldr	r3, [r5, #24]
 661 0186 9968     		ldr	r1, [r3, #8]
 662 0188 C9EB010E 		rsb	lr, r9, r1
 663 018c DEF10001 		rsbs	r1, lr, #0
 664 0190 41EB0E01 		adc	r1, r1, lr
 665 0194 0A20     		movs	r0, #10
 666 0196 FFF7FEFF 		bl	_test_assert
 667              	.LVL66:
 668 019a 0028     		cmp	r0, #0
 669 019c 7FF460AF 		bne	.L32
 670              		.loc 1 398 0
 671 01a0 6420     		movs	r0, #100
 672 01a2 FFF7FEFF 		bl	chThdSleep
 673              	.LVL67:
 674              		.loc 1 399 0
 675 01a6 AB69     		ldr	r3, [r5, #24]
 676 01a8 9968     		ldr	r1, [r3, #8]
 677 01aa CAEB0107 		rsb	r7, r10, r1
 678 01ae 7942     		rsbs	r1, r7, #0
 679 01b0 4FF00B00 		mov	r0, #11
 680 01b4 7941     		adcs	r1, r1, r7
 681 01b6 FFF7FEFF 		bl	_test_assert
 682              	.LVL68:
 683 01ba 0646     		mov	r6, r0
 684 01bc 0028     		cmp	r0, #0
ARM GAS  /tmp/ccrJ1Ybk.s 			page 13


 685 01be 7FF44FAF 		bne	.L32
 686              	.LBB2:
 687              		.loc 1 400 0
 688 01c2 2023     		movs	r3, #32
 689              		.syntax unified
 690              	@ 400 "../ChibiOS_2.6.9/test/testmtx.c" 1
 691 01c4 83F31188 		msr     BASEPRI, r3
 692              	@ 0 "" 2
 693              		.thumb
 694              		.syntax unified
 695              	.LBE2:
 696              		.loc 1 401 0
 697 01c8 FFF7FEFF 		bl	chMtxUnlockS
 698              	.LVL69:
 699              		.loc 1 402 0
 700 01cc FFF7FEFF 		bl	chSchRescheduleS
 701              	.LVL70:
 702              	.LBB3:
 703              		.loc 1 403 0
 704 01d0 3346     		mov	r3, r6
 705              		.syntax unified
 706              	@ 403 "../ChibiOS_2.6.9/test/testmtx.c" 1
 707 01d2 83F31188 		msr     BASEPRI, r3
 708              	@ 0 "" 2
 709              		.thumb
 710              		.syntax unified
 711              	.LBE3:
 712              		.loc 1 404 0
 713 01d6 AB69     		ldr	r3, [r5, #24]
 714 01d8 9968     		ldr	r1, [r3, #8]
 715 01da C9EB0106 		rsb	r6, r9, r1
 716 01de 7142     		rsbs	r1, r6, #0
 717 01e0 7141     		adcs	r1, r1, r6
 718 01e2 0C20     		movs	r0, #12
 719 01e4 FFF7FEFF 		bl	_test_assert
 720              	.LVL71:
 721 01e8 0028     		cmp	r0, #0
 722 01ea 7FF439AF 		bne	.L32
 723              		.loc 1 405 0
 724 01ee 6420     		movs	r0, #100
 725 01f0 FFF7FEFF 		bl	chThdSleep
 726              	.LVL72:
 727              		.loc 1 406 0
 728 01f4 AB69     		ldr	r3, [r5, #24]
 729 01f6 9968     		ldr	r1, [r3, #8]
 730 01f8 C9EB0102 		rsb	r2, r9, r1
 731 01fc 5142     		rsbs	r1, r2, #0
 732 01fe 5141     		adcs	r1, r1, r2
 733 0200 0D20     		movs	r0, #13
 734 0202 FFF7FEFF 		bl	_test_assert
 735              	.LVL73:
 736 0206 0028     		cmp	r0, #0
 737 0208 7FF42AAF 		bne	.L32
 738              		.loc 1 407 0
 739 020c FFF7FEFF 		bl	chMtxUnlockAll
 740              	.LVL74:
 741              		.loc 1 408 0
ARM GAS  /tmp/ccrJ1Ybk.s 			page 14


 742 0210 AB69     		ldr	r3, [r5, #24]
 743 0212 9968     		ldr	r1, [r3, #8]
 744 0214 0B1B     		subs	r3, r1, r4
 745 0216 5942     		rsbs	r1, r3, #0
 746 0218 5941     		adcs	r1, r1, r3
 747 021a 0E20     		movs	r0, #14
 748 021c FFF7FEFF 		bl	_test_assert
 749              	.LVL75:
 750 0220 0028     		cmp	r0, #0
 751 0222 7FF41DAF 		bne	.L32
 752              		.loc 1 410 0
 753 0226 05B0     		add	sp, sp, #20
 754              		.cfi_def_cfa_offset 28
 755              		@ sp needed
 756 0228 BDE8F046 		pop	{r4, r5, r6, r7, r9, r10, lr}
 757              		.cfi_restore 14
 758              		.cfi_restore 10
 759              		.cfi_restore 9
 760              		.cfi_restore 7
 761              		.cfi_restore 6
 762              		.cfi_restore 5
 763              		.cfi_restore 4
 764              		.cfi_def_cfa_offset 0
 765              	.LVL76:
 766              		.loc 1 409 0
 767 022c FFF7FEBF 		b	test_wait_threads
 768              	.LVL77:
 769              	.L39:
 770              		.align	2
 771              	.L38:
 772 0230 00000000 		.word	rlist
 773 0234 00000000 		.word	wa
 774 0238 0C000000 		.word	.LC3
 775 023c 00000000 		.word	threads
 776 0240 00000000 		.word	thread4a
 777 0244 10000000 		.word	.LC4
 778 0248 00000000 		.word	thread4b
 779 024c 00000000 		.word	.LANCHOR1
 780 0250 00000000 		.word	.LANCHOR0
 781 0254 04000000 		.word	.LC1
 782 0258 08000000 		.word	.LC2
 783              		.cfi_endproc
 784              	.LFE13:
 785              		.size	mtx4_execute, .-mtx4_execute
 786              		.section	.text.mtx5_execute,"ax",%progbits
 787              		.align	2
 788              		.p2align 4,,15
 789              		.thumb
 790              		.thumb_func
 791              		.type	mtx5_execute, %function
 792              	mtx5_execute:
 793              	.LFB15:
 794              		.loc 1 434 0
 795              		.cfi_startproc
 796              		@ args = 0, pretend = 0, frame = 0
 797              		@ frame_needed = 0, uses_anonymous_args = 0
 798 0000 F8B5     		push	{r3, r4, r5, r6, r7, lr}
ARM GAS  /tmp/ccrJ1Ybk.s 			page 15


 799              		.cfi_def_cfa_offset 24
 800              		.cfi_offset 3, -24
 801              		.cfi_offset 4, -20
 802              		.cfi_offset 5, -16
 803              		.cfi_offset 6, -12
 804              		.cfi_offset 7, -8
 805              		.cfi_offset 14, -4
 806              		.loc 1 438 0
 807 0002 2B4D     		ldr	r5, .L46
 808              		.loc 1 440 0
 809 0004 2B4C     		ldr	r4, .L46+4
 810              		.loc 1 438 0
 811 0006 AB69     		ldr	r3, [r5, #24]
 812              		.loc 1 440 0
 813 0008 2046     		mov	r0, r4
 814              		.loc 1 438 0
 815 000a 9E68     		ldr	r6, [r3, #8]
 816              	.LVL78:
 817              		.loc 1 440 0
 818 000c FFF7FEFF 		bl	chMtxTryLock
 819              	.LVL79:
 820              		.loc 1 441 0
 821 0010 0146     		mov	r1, r0
 822 0012 0120     		movs	r0, #1
 823              	.LVL80:
 824 0014 FFF7FEFF 		bl	_test_assert
 825              	.LVL81:
 826 0018 00B1     		cbz	r0, .L45
 827              	.L40:
 828 001a F8BD     		pop	{r3, r4, r5, r6, r7, pc}
 829              	.LVL82:
 830              	.L45:
 831              		.loc 1 443 0
 832 001c 2046     		mov	r0, r4
 833 001e FFF7FEFF 		bl	chMtxTryLock
 834              	.LVL83:
 835              		.loc 1 444 0
 836 0022 80F00101 		eor	r1, r0, #1
 837 0026 C9B2     		uxtb	r1, r1
 838 0028 0220     		movs	r0, #2
 839              	.LVL84:
 840 002a FFF7FEFF 		bl	_test_assert
 841              	.LVL85:
 842 002e 0746     		mov	r7, r0
 843 0030 0028     		cmp	r0, #0
 844 0032 F2D1     		bne	.L40
 845              	.LBB4:
 846              		.loc 1 446 0
 847 0034 2023     		movs	r3, #32
 848              		.syntax unified
 849              	@ 446 "../ChibiOS_2.6.9/test/testmtx.c" 1
 850 0036 83F31188 		msr     BASEPRI, r3
 851              	@ 0 "" 2
 852              		.thumb
 853              		.syntax unified
 854              	.LBE4:
 855              		.loc 1 447 0
ARM GAS  /tmp/ccrJ1Ybk.s 			page 16


 856 003a FFF7FEFF 		bl	chMtxUnlockS
 857              	.LVL86:
 858              	.LBB5:
 859              		.loc 1 448 0
 860 003e 3B46     		mov	r3, r7
 861              		.syntax unified
 862              	@ 448 "../ChibiOS_2.6.9/test/testmtx.c" 1
 863 0040 83F31188 		msr     BASEPRI, r3
 864              	@ 0 "" 2
 865              		.thumb
 866              		.syntax unified
 867              	.LBE5:
 868              		.loc 1 450 0
 869 0044 2168     		ldr	r1, [r4]
 870 0046 091B     		subs	r1, r1, r4
 871 0048 B1FA81F1 		clz	r1, r1
 872 004c 0320     		movs	r0, #3
 873 004e 4909     		lsrs	r1, r1, #5
 874 0050 FFF7FEFF 		bl	_test_assert
 875              	.LVL87:
 876 0054 0028     		cmp	r0, #0
 877 0056 E0D1     		bne	.L40
 878              		.loc 1 451 0
 879 0058 A168     		ldr	r1, [r4, #8]
 880 005a B1FA81F1 		clz	r1, r1
 881 005e 4909     		lsrs	r1, r1, #5
 882 0060 0420     		movs	r0, #4
 883 0062 FFF7FEFF 		bl	_test_assert
 884              	.LVL88:
 885 0066 0028     		cmp	r0, #0
 886 0068 D7D1     		bne	.L40
 887              		.loc 1 452 0
 888 006a AB69     		ldr	r3, [r5, #24]
 889 006c 9968     		ldr	r1, [r3, #8]
 890 006e 891B     		subs	r1, r1, r6
 891 0070 B1FA81F1 		clz	r1, r1
 892 0074 0520     		movs	r0, #5
 893 0076 4909     		lsrs	r1, r1, #5
 894 0078 FFF7FEFF 		bl	_test_assert
 895              	.LVL89:
 896 007c 0028     		cmp	r0, #0
 897 007e CCD1     		bne	.L40
 898              		.loc 1 454 0
 899 0080 2046     		mov	r0, r4
 900 0082 FFF7FEFF 		bl	chMtxLock
 901              	.LVL90:
 902              		.loc 1 455 0
 903 0086 FFF7FEFF 		bl	chMtxUnlockAll
 904              	.LVL91:
 905              		.loc 1 456 0
 906 008a 2168     		ldr	r1, [r4]
 907 008c 091B     		subs	r1, r1, r4
 908 008e B1FA81F1 		clz	r1, r1
 909 0092 0620     		movs	r0, #6
 910 0094 4909     		lsrs	r1, r1, #5
 911 0096 FFF7FEFF 		bl	_test_assert
 912              	.LVL92:
ARM GAS  /tmp/ccrJ1Ybk.s 			page 17


 913 009a 0028     		cmp	r0, #0
 914 009c BDD1     		bne	.L40
 915              		.loc 1 457 0
 916 009e A168     		ldr	r1, [r4, #8]
 917 00a0 B1FA81F1 		clz	r1, r1
 918 00a4 4909     		lsrs	r1, r1, #5
 919 00a6 0720     		movs	r0, #7
 920              		.loc 1 458 0
 921 00a8 BDE8F840 		pop	{r3, r4, r5, r6, r7, lr}
 922              		.cfi_restore 14
 923              		.cfi_restore 7
 924              		.cfi_restore 6
 925              		.cfi_restore 5
 926              		.cfi_restore 4
 927              		.cfi_restore 3
 928              		.cfi_def_cfa_offset 0
 929              	.LVL93:
 930              		.loc 1 457 0
 931 00ac FFF7FEBF 		b	_test_assert
 932              	.LVL94:
 933              	.L47:
 934              		.align	2
 935              	.L46:
 936 00b0 00000000 		.word	rlist
 937 00b4 00000000 		.word	.LANCHOR0
 938              		.cfi_endproc
 939              	.LFE15:
 940              		.size	mtx5_execute, .-mtx5_execute
 941              		.section	.text.mtx6_execute,"ax",%progbits
 942              		.align	2
 943              		.p2align 4,,15
 944              		.thumb
 945              		.thumb_func
 946              		.type	mtx6_execute, %function
 947              	mtx6_execute:
 948              	.LFB18:
 949              		.loc 1 494 0
 950              		.cfi_startproc
 951              		@ args = 0, pretend = 0, frame = 0
 952              		@ frame_needed = 0, uses_anonymous_args = 0
 953 0000 F0B5     		push	{r4, r5, r6, r7, lr}
 954              		.cfi_def_cfa_offset 20
 955              		.cfi_offset 4, -20
 956              		.cfi_offset 5, -16
 957              		.cfi_offset 6, -12
 958              		.cfi_offset 7, -8
 959              		.cfi_offset 14, -4
 960              		.loc 1 496 0
 961 0002 2F4B     		ldr	r3, .L50
 962              		.loc 1 497 0
 963 0004 2F4F     		ldr	r7, .L50+4
 964              		.loc 1 496 0
 965 0006 9B69     		ldr	r3, [r3, #24]
 966              		.loc 1 497 0
 967 0008 2F4D     		ldr	r5, .L50+8
 968              		.loc 1 496 0
 969 000a 9E68     		ldr	r6, [r3, #8]
ARM GAS  /tmp/ccrJ1Ybk.s 			page 18


 970              	.LVL95:
 971              		.loc 1 497 0
 972 000c 2F4B     		ldr	r3, .L50+12
 973 000e 3868     		ldr	r0, [r7]
 974 0010 2F4C     		ldr	r4, .L50+16
 975              		.loc 1 494 0
 976 0012 83B0     		sub	sp, sp, #12
 977              		.cfi_def_cfa_offset 32
 978              		.loc 1 497 0
 979 0014 721C     		adds	r2, r6, #1
 980 0016 0093     		str	r3, [sp]
 981 0018 4FF4A471 		mov	r1, #328
 982 001c 2B46     		mov	r3, r5
 983 001e FFF7FEFF 		bl	chThdCreateStatic
 984              	.LVL96:
 985              		.loc 1 498 0
 986 0022 7B68     		ldr	r3, [r7, #4]
 987 0024 2B49     		ldr	r1, .L50+20
 988              		.loc 1 497 0
 989 0026 2060     		str	r0, [r4]
 990              		.loc 1 498 0
 991 0028 B21C     		adds	r2, r6, #2
 992 002a 0091     		str	r1, [sp]
 993 002c 1846     		mov	r0, r3
 994 002e 4FF4A471 		mov	r1, #328
 995 0032 2B46     		mov	r3, r5
 996 0034 FFF7FEFF 		bl	chThdCreateStatic
 997              	.LVL97:
 998              		.loc 1 499 0
 999 0038 BB68     		ldr	r3, [r7, #8]
 1000 003a 2749     		ldr	r1, .L50+24
 1001              		.loc 1 498 0
 1002 003c 6060     		str	r0, [r4, #4]
 1003              		.loc 1 499 0
 1004 003e F21C     		adds	r2, r6, #3
 1005 0040 0091     		str	r1, [sp]
 1006 0042 1846     		mov	r0, r3
 1007 0044 4FF4A471 		mov	r1, #328
 1008 0048 2B46     		mov	r3, r5
 1009 004a FFF7FEFF 		bl	chThdCreateStatic
 1010              	.LVL98:
 1011              		.loc 1 500 0
 1012 004e FB68     		ldr	r3, [r7, #12]
 1013 0050 2249     		ldr	r1, .L50+28
 1014              		.loc 1 499 0
 1015 0052 A060     		str	r0, [r4, #8]
 1016              		.loc 1 500 0
 1017 0054 321D     		adds	r2, r6, #4
 1018 0056 0091     		str	r1, [sp]
 1019 0058 1846     		mov	r0, r3
 1020 005a 4FF4A471 		mov	r1, #328
 1021 005e 2B46     		mov	r3, r5
 1022 0060 FFF7FEFF 		bl	chThdCreateStatic
 1023              	.LVL99:
 1024              		.loc 1 501 0
 1025 0064 3B69     		ldr	r3, [r7, #16]
 1026 0066 1E49     		ldr	r1, .L50+32
ARM GAS  /tmp/ccrJ1Ybk.s 			page 19


 1027              		.loc 1 500 0
 1028 0068 E060     		str	r0, [r4, #12]
 1029              		.loc 1 501 0
 1030 006a 721D     		adds	r2, r6, #5
 1031 006c 0091     		str	r1, [sp]
 1032 006e 1846     		mov	r0, r3
 1033 0070 4FF4A471 		mov	r1, #328
 1034 0074 2B46     		mov	r3, r5
 1035 0076 FFF7FEFF 		bl	chThdCreateStatic
 1036              	.LVL100:
 1037              	.LBB6:
 1038              		.loc 1 502 0
 1039 007a 2023     		movs	r3, #32
 1040              	.LBE6:
 1041              		.loc 1 501 0
 1042 007c 2061     		str	r0, [r4, #16]
 1043              	.LBB7:
 1044              		.loc 1 502 0
 1045              		.syntax unified
 1046              	@ 502 "../ChibiOS_2.6.9/test/testmtx.c" 1
 1047 007e 83F31188 		msr     BASEPRI, r3
 1048              	@ 0 "" 2
 1049              		.thumb
 1050              		.syntax unified
 1051              	.LBE7:
 1052              		.loc 1 503 0
 1053 0082 184C     		ldr	r4, .L50+36
 1054 0084 2046     		mov	r0, r4
 1055 0086 FFF7FEFF 		bl	chCondSignalI
 1056              	.LVL101:
 1057              		.loc 1 504 0
 1058 008a 2046     		mov	r0, r4
 1059 008c FFF7FEFF 		bl	chCondSignalI
 1060              	.LVL102:
 1061              		.loc 1 505 0
 1062 0090 2046     		mov	r0, r4
 1063 0092 FFF7FEFF 		bl	chCondSignalI
 1064              	.LVL103:
 1065              		.loc 1 506 0
 1066 0096 2046     		mov	r0, r4
 1067 0098 FFF7FEFF 		bl	chCondSignalI
 1068              	.LVL104:
 1069              		.loc 1 507 0
 1070 009c 2046     		mov	r0, r4
 1071 009e FFF7FEFF 		bl	chCondSignalI
 1072              	.LVL105:
 1073              		.loc 1 508 0
 1074 00a2 FFF7FEFF 		bl	chSchRescheduleS
 1075              	.LVL106:
 1076              	.LBB8:
 1077              		.loc 1 509 0
 1078 00a6 0023     		movs	r3, #0
 1079              		.syntax unified
 1080              	@ 509 "../ChibiOS_2.6.9/test/testmtx.c" 1
 1081 00a8 83F31188 		msr     BASEPRI, r3
 1082              	@ 0 "" 2
 1083              		.thumb
ARM GAS  /tmp/ccrJ1Ybk.s 			page 20


 1084              		.syntax unified
 1085              	.LBE8:
 1086              		.loc 1 510 0
 1087 00ac FFF7FEFF 		bl	test_wait_threads
 1088              	.LVL107:
 1089              		.loc 1 511 0
 1090 00b0 0D49     		ldr	r1, .L50+40
 1091 00b2 0120     		movs	r0, #1
 1092              		.loc 1 512 0
 1093 00b4 03B0     		add	sp, sp, #12
 1094              		.cfi_def_cfa_offset 20
 1095              		@ sp needed
 1096 00b6 BDE8F040 		pop	{r4, r5, r6, r7, lr}
 1097              		.cfi_restore 14
 1098              		.cfi_restore 7
 1099              		.cfi_restore 6
 1100              		.cfi_restore 5
 1101              		.cfi_restore 4
 1102              		.cfi_def_cfa_offset 0
 1103              	.LVL108:
 1104              		.loc 1 511 0
 1105 00ba FFF7FEBF 		b	_test_assert_sequence
 1106              	.LVL109:
 1107              	.L51:
 1108 00be 00BF     		.align	2
 1109              	.L50:
 1110 00c0 00000000 		.word	rlist
 1111 00c4 00000000 		.word	wa
 1112 00c8 00000000 		.word	thread10
 1113 00cc 00000000 		.word	.LC0
 1114 00d0 00000000 		.word	threads
 1115 00d4 04000000 		.word	.LC1
 1116 00d8 08000000 		.word	.LC2
 1117 00dc 0C000000 		.word	.LC3
 1118 00e0 10000000 		.word	.LC4
 1119 00e4 00000000 		.word	.LANCHOR2
 1120 00e8 14000000 		.word	.LC5
 1121              		.cfi_endproc
 1122              	.LFE18:
 1123              		.size	mtx6_execute, .-mtx6_execute
 1124              		.section	.text.thread10,"ax",%progbits
 1125              		.align	2
 1126              		.p2align 4,,15
 1127              		.thumb
 1128              		.thumb_func
 1129              		.type	thread10, %function
 1130              	thread10:
 1131              	.LFB17:
 1132              		.loc 1 485 0
 1133              		.cfi_startproc
 1134              		@ args = 0, pretend = 0, frame = 0
 1135              		@ frame_needed = 0, uses_anonymous_args = 0
 1136              	.LVL110:
 1137 0000 10B5     		push	{r4, lr}
 1138              		.cfi_def_cfa_offset 8
 1139              		.cfi_offset 4, -8
 1140              		.cfi_offset 14, -4
ARM GAS  /tmp/ccrJ1Ybk.s 			page 21


 1141              		.loc 1 485 0
 1142 0002 0446     		mov	r4, r0
 1143              		.loc 1 487 0
 1144 0004 0648     		ldr	r0, .L54
 1145              	.LVL111:
 1146 0006 FFF7FEFF 		bl	chMtxLock
 1147              	.LVL112:
 1148              		.loc 1 488 0
 1149 000a 0648     		ldr	r0, .L54+4
 1150 000c FFF7FEFF 		bl	chCondWait
 1151              	.LVL113:
 1152              		.loc 1 489 0
 1153 0010 2078     		ldrb	r0, [r4]	@ zero_extendqisi2
 1154 0012 FFF7FEFF 		bl	test_emit_token
 1155              	.LVL114:
 1156              		.loc 1 490 0
 1157 0016 FFF7FEFF 		bl	chMtxUnlock
 1158              	.LVL115:
 1159              		.loc 1 492 0
 1160 001a 0020     		movs	r0, #0
 1161 001c 10BD     		pop	{r4, pc}
 1162              	.LVL116:
 1163              	.L55:
 1164 001e 00BF     		.align	2
 1165              	.L54:
 1166 0020 00000000 		.word	.LANCHOR0
 1167 0024 00000000 		.word	.LANCHOR2
 1168              		.cfi_endproc
 1169              	.LFE17:
 1170              		.size	thread10, .-thread10
 1171              		.section	.text.mtx7_setup,"ax",%progbits
 1172              		.align	2
 1173              		.p2align 4,,15
 1174              		.thumb
 1175              		.thumb_func
 1176              		.type	mtx7_setup, %function
 1177              	mtx7_setup:
 1178              	.LFB19:
 1179              		.loc 1 531 0
 1180              		.cfi_startproc
 1181              		@ args = 0, pretend = 0, frame = 0
 1182              		@ frame_needed = 0, uses_anonymous_args = 0
 1183 0000 08B5     		push	{r3, lr}
 1184              		.cfi_def_cfa_offset 8
 1185              		.cfi_offset 3, -8
 1186              		.cfi_offset 14, -4
 1187              		.loc 1 533 0
 1188 0002 0448     		ldr	r0, .L58
 1189 0004 FFF7FEFF 		bl	chCondInit
 1190              	.LVL117:
 1191              		.loc 1 534 0
 1192 0008 0348     		ldr	r0, .L58+4
 1193              		.loc 1 535 0
 1194 000a BDE80840 		pop	{r3, lr}
 1195              		.cfi_restore 14
 1196              		.cfi_restore 3
 1197              		.cfi_def_cfa_offset 0
ARM GAS  /tmp/ccrJ1Ybk.s 			page 22


 1198              		.loc 1 534 0
 1199 000e FFF7FEBF 		b	chMtxInit
 1200              	.LVL118:
 1201              	.L59:
 1202 0012 00BF     		.align	2
 1203              	.L58:
 1204 0014 00000000 		.word	.LANCHOR2
 1205 0018 00000000 		.word	.LANCHOR0
 1206              		.cfi_endproc
 1207              	.LFE19:
 1208              		.size	mtx7_setup, .-mtx7_setup
 1209              		.section	.text.mtx6_setup,"ax",%progbits
 1210              		.align	2
 1211              		.p2align 4,,15
 1212              		.thumb
 1213              		.thumb_func
 1214              		.type	mtx6_setup, %function
 1215              	mtx6_setup:
 1216              	.LFB26:
 1217              		.cfi_startproc
 1218              		@ args = 0, pretend = 0, frame = 0
 1219              		@ frame_needed = 0, uses_anonymous_args = 0
 1220              		@ link register save eliminated.
 1221 0000 FFF7FEBF 		b	mtx7_setup
 1222              		.cfi_endproc
 1223              	.LFE26:
 1224              		.size	mtx6_setup, .-mtx6_setup
 1225              		.section	.text.mtx8_setup,"ax",%progbits
 1226              		.align	2
 1227              		.p2align 4,,15
 1228              		.thumb
 1229              		.thumb_func
 1230              		.type	mtx8_setup, %function
 1231              	mtx8_setup:
 1232              	.LFB21:
 1233              		.loc 1 566 0
 1234              		.cfi_startproc
 1235              		@ args = 0, pretend = 0, frame = 0
 1236              		@ frame_needed = 0, uses_anonymous_args = 0
 1237              		.loc 1 566 0
 1238 0000 08B5     		push	{r3, lr}
 1239              		.cfi_def_cfa_offset 8
 1240              		.cfi_offset 3, -8
 1241              		.cfi_offset 14, -4
 1242              		.loc 1 568 0
 1243 0002 0548     		ldr	r0, .L63
 1244 0004 FFF7FEFF 		bl	chCondInit
 1245              	.LVL119:
 1246              		.loc 1 569 0
 1247 0008 0448     		ldr	r0, .L63+4
 1248 000a FFF7FEFF 		bl	chMtxInit
 1249              	.LVL120:
 1250              		.loc 1 570 0
 1251 000e 0448     		ldr	r0, .L63+8
 1252              		.loc 1 571 0
 1253 0010 BDE80840 		pop	{r3, lr}
 1254              		.cfi_restore 14
ARM GAS  /tmp/ccrJ1Ybk.s 			page 23


 1255              		.cfi_restore 3
 1256              		.cfi_def_cfa_offset 0
 1257              		.loc 1 570 0
 1258 0014 FFF7FEBF 		b	chMtxInit
 1259              	.LVL121:
 1260              	.L64:
 1261              		.align	2
 1262              	.L63:
 1263 0018 00000000 		.word	.LANCHOR2
 1264 001c 00000000 		.word	.LANCHOR0
 1265 0020 00000000 		.word	.LANCHOR1
 1266              		.cfi_endproc
 1267              	.LFE21:
 1268              		.size	mtx8_setup, .-mtx8_setup
 1269              		.section	.text.mtx7_execute,"ax",%progbits
 1270              		.align	2
 1271              		.p2align 4,,15
 1272              		.thumb
 1273              		.thumb_func
 1274              		.type	mtx7_execute, %function
 1275              	mtx7_execute:
 1276              	.LFB20:
 1277              		.loc 1 537 0
 1278              		.cfi_startproc
 1279              		@ args = 0, pretend = 0, frame = 0
 1280              		@ frame_needed = 0, uses_anonymous_args = 0
 1281 0000 F0B5     		push	{r4, r5, r6, r7, lr}
 1282              		.cfi_def_cfa_offset 20
 1283              		.cfi_offset 4, -20
 1284              		.cfi_offset 5, -16
 1285              		.cfi_offset 6, -12
 1286              		.cfi_offset 7, -8
 1287              		.cfi_offset 14, -4
 1288              		.loc 1 539 0
 1289 0002 244B     		ldr	r3, .L67
 1290              		.loc 1 540 0
 1291 0004 244F     		ldr	r7, .L67+4
 1292              		.loc 1 539 0
 1293 0006 9B69     		ldr	r3, [r3, #24]
 1294              		.loc 1 540 0
 1295 0008 244D     		ldr	r5, .L67+8
 1296              		.loc 1 539 0
 1297 000a 9E68     		ldr	r6, [r3, #8]
 1298              	.LVL122:
 1299              		.loc 1 540 0
 1300 000c 244B     		ldr	r3, .L67+12
 1301 000e 3868     		ldr	r0, [r7]
 1302 0010 244C     		ldr	r4, .L67+16
 1303              		.loc 1 537 0
 1304 0012 83B0     		sub	sp, sp, #12
 1305              		.cfi_def_cfa_offset 32
 1306              		.loc 1 540 0
 1307 0014 721C     		adds	r2, r6, #1
 1308 0016 0093     		str	r3, [sp]
 1309 0018 4FF4A471 		mov	r1, #328
 1310 001c 2B46     		mov	r3, r5
 1311 001e FFF7FEFF 		bl	chThdCreateStatic
ARM GAS  /tmp/ccrJ1Ybk.s 			page 24


 1312              	.LVL123:
 1313              		.loc 1 541 0
 1314 0022 7B68     		ldr	r3, [r7, #4]
 1315 0024 2049     		ldr	r1, .L67+20
 1316              		.loc 1 540 0
 1317 0026 2060     		str	r0, [r4]
 1318              		.loc 1 541 0
 1319 0028 B21C     		adds	r2, r6, #2
 1320 002a 0091     		str	r1, [sp]
 1321 002c 1846     		mov	r0, r3
 1322 002e 4FF4A471 		mov	r1, #328
 1323 0032 2B46     		mov	r3, r5
 1324 0034 FFF7FEFF 		bl	chThdCreateStatic
 1325              	.LVL124:
 1326              		.loc 1 542 0
 1327 0038 BB68     		ldr	r3, [r7, #8]
 1328 003a 1C49     		ldr	r1, .L67+24
 1329              		.loc 1 541 0
 1330 003c 6060     		str	r0, [r4, #4]
 1331              		.loc 1 542 0
 1332 003e F21C     		adds	r2, r6, #3
 1333 0040 0091     		str	r1, [sp]
 1334 0042 1846     		mov	r0, r3
 1335 0044 4FF4A471 		mov	r1, #328
 1336 0048 2B46     		mov	r3, r5
 1337 004a FFF7FEFF 		bl	chThdCreateStatic
 1338              	.LVL125:
 1339              		.loc 1 543 0
 1340 004e FB68     		ldr	r3, [r7, #12]
 1341 0050 1749     		ldr	r1, .L67+28
 1342              		.loc 1 542 0
 1343 0052 A060     		str	r0, [r4, #8]
 1344              		.loc 1 543 0
 1345 0054 321D     		adds	r2, r6, #4
 1346 0056 0091     		str	r1, [sp]
 1347 0058 1846     		mov	r0, r3
 1348 005a 4FF4A471 		mov	r1, #328
 1349 005e 2B46     		mov	r3, r5
 1350 0060 FFF7FEFF 		bl	chThdCreateStatic
 1351              	.LVL126:
 1352              		.loc 1 544 0
 1353 0064 3B69     		ldr	r3, [r7, #16]
 1354 0066 1349     		ldr	r1, .L67+32
 1355              		.loc 1 543 0
 1356 0068 E060     		str	r0, [r4, #12]
 1357              		.loc 1 544 0
 1358 006a 721D     		adds	r2, r6, #5
 1359 006c 0091     		str	r1, [sp]
 1360 006e 1846     		mov	r0, r3
 1361 0070 4FF4A471 		mov	r1, #328
 1362 0074 2B46     		mov	r3, r5
 1363 0076 FFF7FEFF 		bl	chThdCreateStatic
 1364              	.LVL127:
 1365 007a 2061     		str	r0, [r4, #16]
 1366              		.loc 1 545 0
 1367 007c 0E48     		ldr	r0, .L67+36
 1368 007e FFF7FEFF 		bl	chCondBroadcast
ARM GAS  /tmp/ccrJ1Ybk.s 			page 25


 1369              	.LVL128:
 1370              		.loc 1 546 0
 1371 0082 FFF7FEFF 		bl	test_wait_threads
 1372              	.LVL129:
 1373              		.loc 1 547 0
 1374 0086 0D49     		ldr	r1, .L67+40
 1375 0088 0120     		movs	r0, #1
 1376              		.loc 1 548 0
 1377 008a 03B0     		add	sp, sp, #12
 1378              		.cfi_def_cfa_offset 20
 1379              		@ sp needed
 1380 008c BDE8F040 		pop	{r4, r5, r6, r7, lr}
 1381              		.cfi_restore 14
 1382              		.cfi_restore 7
 1383              		.cfi_restore 6
 1384              		.cfi_restore 5
 1385              		.cfi_restore 4
 1386              		.cfi_def_cfa_offset 0
 1387              	.LVL130:
 1388              		.loc 1 547 0
 1389 0090 FFF7FEBF 		b	_test_assert_sequence
 1390              	.LVL131:
 1391              	.L68:
 1392              		.align	2
 1393              	.L67:
 1394 0094 00000000 		.word	rlist
 1395 0098 00000000 		.word	wa
 1396 009c 00000000 		.word	thread10
 1397 00a0 00000000 		.word	.LC0
 1398 00a4 00000000 		.word	threads
 1399 00a8 04000000 		.word	.LC1
 1400 00ac 08000000 		.word	.LC2
 1401 00b0 0C000000 		.word	.LC3
 1402 00b4 10000000 		.word	.LC4
 1403 00b8 00000000 		.word	.LANCHOR2
 1404 00bc 14000000 		.word	.LC5
 1405              		.cfi_endproc
 1406              	.LFE20:
 1407              		.size	mtx7_execute, .-mtx7_execute
 1408              		.section	.text.mtx8_execute,"ax",%progbits
 1409              		.align	2
 1410              		.p2align 4,,15
 1411              		.thumb
 1412              		.thumb_func
 1413              		.type	mtx8_execute, %function
 1414              	mtx8_execute:
 1415              	.LFB24:
 1416              		.loc 1 596 0
 1417              		.cfi_startproc
 1418              		@ args = 0, pretend = 0, frame = 0
 1419              		@ frame_needed = 0, uses_anonymous_args = 0
 1420 0000 F0B5     		push	{r4, r5, r6, r7, lr}
 1421              		.cfi_def_cfa_offset 20
 1422              		.cfi_offset 4, -20
 1423              		.cfi_offset 5, -16
 1424              		.cfi_offset 6, -12
 1425              		.cfi_offset 7, -8
ARM GAS  /tmp/ccrJ1Ybk.s 			page 26


 1426              		.cfi_offset 14, -4
 1427              		.loc 1 598 0
 1428 0002 1B4B     		ldr	r3, .L71
 1429              		.loc 1 599 0
 1430 0004 1B4E     		ldr	r6, .L71+4
 1431              		.loc 1 598 0
 1432 0006 9B69     		ldr	r3, [r3, #24]
 1433              		.loc 1 599 0
 1434 0008 3068     		ldr	r0, [r6]
 1435              		.loc 1 598 0
 1436 000a 9D68     		ldr	r5, [r3, #8]
 1437              	.LVL132:
 1438              		.loc 1 599 0
 1439 000c 1A4B     		ldr	r3, .L71+8
 1440 000e 1B4C     		ldr	r4, .L71+12
 1441              		.loc 1 602 0
 1442 0010 1B4F     		ldr	r7, .L71+16
 1443              		.loc 1 596 0
 1444 0012 83B0     		sub	sp, sp, #12
 1445              		.cfi_def_cfa_offset 32
 1446              		.loc 1 599 0
 1447 0014 6A1C     		adds	r2, r5, #1
 1448 0016 0093     		str	r3, [sp]
 1449 0018 4FF4A471 		mov	r1, #328
 1450 001c 194B     		ldr	r3, .L71+20
 1451 001e FFF7FEFF 		bl	chThdCreateStatic
 1452              	.LVL133:
 1453              		.loc 1 600 0
 1454 0022 7168     		ldr	r1, [r6, #4]
 1455 0024 184B     		ldr	r3, .L71+24
 1456              		.loc 1 599 0
 1457 0026 2060     		str	r0, [r4]
 1458              		.loc 1 600 0
 1459 0028 AA1C     		adds	r2, r5, #2
 1460 002a 0093     		str	r3, [sp]
 1461 002c 0846     		mov	r0, r1
 1462 002e 174B     		ldr	r3, .L71+28
 1463 0030 4FF4A471 		mov	r1, #328
 1464 0034 FFF7FEFF 		bl	chThdCreateStatic
 1465              	.LVL134:
 1466              		.loc 1 601 0
 1467 0038 B168     		ldr	r1, [r6, #8]
 1468 003a 154B     		ldr	r3, .L71+32
 1469              		.loc 1 600 0
 1470 003c 6060     		str	r0, [r4, #4]
 1471              		.loc 1 601 0
 1472 003e EA1C     		adds	r2, r5, #3
 1473 0040 0093     		str	r3, [sp]
 1474 0042 0846     		mov	r0, r1
 1475 0044 134B     		ldr	r3, .L71+36
 1476 0046 4FF4A471 		mov	r1, #328
 1477 004a FFF7FEFF 		bl	chThdCreateStatic
 1478              	.LVL135:
 1479 004e A060     		str	r0, [r4, #8]
 1480              		.loc 1 602 0
 1481 0050 3846     		mov	r0, r7
 1482 0052 FFF7FEFF 		bl	chCondSignal
ARM GAS  /tmp/ccrJ1Ybk.s 			page 27


 1483              	.LVL136:
 1484              		.loc 1 603 0
 1485 0056 3846     		mov	r0, r7
 1486 0058 FFF7FEFF 		bl	chCondSignal
 1487              	.LVL137:
 1488              		.loc 1 604 0
 1489 005c FFF7FEFF 		bl	test_wait_threads
 1490              	.LVL138:
 1491              		.loc 1 605 0
 1492 0060 0D49     		ldr	r1, .L71+40
 1493 0062 0120     		movs	r0, #1
 1494              		.loc 1 606 0
 1495 0064 03B0     		add	sp, sp, #12
 1496              		.cfi_def_cfa_offset 20
 1497              		@ sp needed
 1498 0066 BDE8F040 		pop	{r4, r5, r6, r7, lr}
 1499              		.cfi_restore 14
 1500              		.cfi_restore 7
 1501              		.cfi_restore 6
 1502              		.cfi_restore 5
 1503              		.cfi_restore 4
 1504              		.cfi_def_cfa_offset 0
 1505              	.LVL139:
 1506              		.loc 1 605 0
 1507 006a FFF7FEBF 		b	_test_assert_sequence
 1508              	.LVL140:
 1509              	.L72:
 1510 006e 00BF     		.align	2
 1511              	.L71:
 1512 0070 00000000 		.word	rlist
 1513 0074 00000000 		.word	wa
 1514 0078 10000000 		.word	.LC4
 1515 007c 00000000 		.word	threads
 1516 0080 00000000 		.word	.LANCHOR2
 1517 0084 00000000 		.word	thread11
 1518 0088 08000000 		.word	.LC2
 1519 008c 00000000 		.word	thread10
 1520 0090 0C000000 		.word	.LC3
 1521 0094 00000000 		.word	thread12
 1522 0098 1C000000 		.word	.LC6
 1523              		.cfi_endproc
 1524              	.LFE24:
 1525              		.size	mtx8_execute, .-mtx8_execute
 1526              		.section	.text.thread11,"ax",%progbits
 1527              		.align	2
 1528              		.p2align 4,,15
 1529              		.thumb
 1530              		.thumb_func
 1531              		.type	thread11, %function
 1532              	thread11:
 1533              	.LFB22:
 1534              		.loc 1 573 0
 1535              		.cfi_startproc
 1536              		@ args = 0, pretend = 0, frame = 0
 1537              		@ frame_needed = 0, uses_anonymous_args = 0
 1538              	.LVL141:
 1539 0000 10B5     		push	{r4, lr}
ARM GAS  /tmp/ccrJ1Ybk.s 			page 28


 1540              		.cfi_def_cfa_offset 8
 1541              		.cfi_offset 4, -8
 1542              		.cfi_offset 14, -4
 1543              		.loc 1 573 0
 1544 0002 0446     		mov	r4, r0
 1545              		.loc 1 575 0
 1546 0004 0948     		ldr	r0, .L75
 1547              	.LVL142:
 1548 0006 FFF7FEFF 		bl	chMtxLock
 1549              	.LVL143:
 1550              		.loc 1 576 0
 1551 000a 0948     		ldr	r0, .L75+4
 1552 000c FFF7FEFF 		bl	chMtxLock
 1553              	.LVL144:
 1554              		.loc 1 578 0
 1555 0010 4FF0FF31 		mov	r1, #-1
 1556 0014 0748     		ldr	r0, .L75+8
 1557 0016 FFF7FEFF 		bl	chCondWaitTimeout
 1558              	.LVL145:
 1559              		.loc 1 582 0
 1560 001a 2078     		ldrb	r0, [r4]	@ zero_extendqisi2
 1561 001c FFF7FEFF 		bl	test_emit_token
 1562              	.LVL146:
 1563              		.loc 1 583 0
 1564 0020 FFF7FEFF 		bl	chMtxUnlock
 1565              	.LVL147:
 1566              		.loc 1 584 0
 1567 0024 FFF7FEFF 		bl	chMtxUnlock
 1568              	.LVL148:
 1569              		.loc 1 586 0
 1570 0028 0020     		movs	r0, #0
 1571 002a 10BD     		pop	{r4, pc}
 1572              	.LVL149:
 1573              	.L76:
 1574              		.align	2
 1575              	.L75:
 1576 002c 00000000 		.word	.LANCHOR1
 1577 0030 00000000 		.word	.LANCHOR0
 1578 0034 00000000 		.word	.LANCHOR2
 1579              		.cfi_endproc
 1580              	.LFE22:
 1581              		.size	thread11, .-thread11
 1582              		.global	patternmtx
 1583              		.global	testmtx8
 1584              		.global	testmtx7
 1585              		.global	testmtx6
 1586              		.global	testmtx5
 1587              		.global	testmtx4
 1588              		.global	testmtx1
 1589              		.section	.rodata.testmtx5,"a",%progbits
 1590              		.align	2
 1591              		.type	testmtx5, %object
 1592              		.size	testmtx5, 16
 1593              	testmtx5:
 1594 0000 64000000 		.word	.LC10
 1595 0004 00000000 		.word	mtx5_setup
 1596 0008 00000000 		.word	0
ARM GAS  /tmp/ccrJ1Ybk.s 			page 29


 1597 000c 00000000 		.word	mtx5_execute
 1598              		.section	.rodata.testmtx6,"a",%progbits
 1599              		.align	2
 1600              		.type	testmtx6, %object
 1601              		.size	testmtx6, 16
 1602              	testmtx6:
 1603 0000 4C000000 		.word	.LC9
 1604 0004 00000000 		.word	mtx6_setup
 1605 0008 00000000 		.word	0
 1606 000c 00000000 		.word	mtx6_execute
 1607              		.section	.rodata.testmtx7,"a",%progbits
 1608              		.align	2
 1609              		.type	testmtx7, %object
 1610              		.size	testmtx7, 16
 1611              	testmtx7:
 1612 0000 34000000 		.word	.LC8
 1613 0004 00000000 		.word	mtx7_setup
 1614 0008 00000000 		.word	0
 1615 000c 00000000 		.word	mtx7_execute
 1616              		.section	.rodata.testmtx8,"a",%progbits
 1617              		.align	2
 1618              		.type	testmtx8, %object
 1619              		.size	testmtx8, 16
 1620              	testmtx8:
 1621 0000 20000000 		.word	.LC7
 1622 0004 00000000 		.word	mtx8_setup
 1623 0008 00000000 		.word	0
 1624 000c 00000000 		.word	mtx8_execute
 1625              		.section	.data.m1,"aw",%progbits
 1626              		.align	2
 1627              		.set	.LANCHOR0,. + 0
 1628              		.type	m1, %object
 1629              		.size	m1, 16
 1630              	m1:
 1631 0000 00000000 		.word	m1
 1632 0004 00000000 		.word	m1
 1633 0008 00000000 		.word	0
 1634 000c 00000000 		.word	0
 1635              		.section	.data.m2,"aw",%progbits
 1636              		.align	2
 1637              		.set	.LANCHOR1,. + 0
 1638              		.type	m2, %object
 1639              		.size	m2, 16
 1640              	m2:
 1641 0000 00000000 		.word	m2
 1642 0004 00000000 		.word	m2
 1643 0008 00000000 		.word	0
 1644 000c 00000000 		.word	0
 1645              		.section	.rodata.str1.4,"aMS",%progbits,1
 1646              		.align	2
 1647              	.LC0:
 1648 0000 4500     		.ascii	"E\000"
 1649 0002 0000     		.space	2
 1650              	.LC1:
 1651 0004 4400     		.ascii	"D\000"
 1652 0006 0000     		.space	2
 1653              	.LC2:
ARM GAS  /tmp/ccrJ1Ybk.s 			page 30


 1654 0008 4300     		.ascii	"C\000"
 1655 000a 0000     		.space	2
 1656              	.LC3:
 1657 000c 4200     		.ascii	"B\000"
 1658 000e 0000     		.space	2
 1659              	.LC4:
 1660 0010 4100     		.ascii	"A\000"
 1661 0012 0000     		.space	2
 1662              	.LC5:
 1663 0014 41424344 		.ascii	"ABCDE\000"
 1663      4500
 1664 001a 0000     		.space	2
 1665              	.LC6:
 1666 001c 41424300 		.ascii	"ABC\000"
 1667              	.LC7:
 1668 0020 436F6E64 		.ascii	"CondVar, boost test\000"
 1668      5661722C 
 1668      20626F6F 
 1668      73742074 
 1668      65737400 
 1669              	.LC8:
 1670 0034 436F6E64 		.ascii	"CondVar, broadcast test\000"
 1670      5661722C 
 1670      2062726F 
 1670      61646361 
 1670      73742074 
 1671              	.LC9:
 1672 004c 436F6E64 		.ascii	"CondVar, signal test\000"
 1672      5661722C 
 1672      20736967 
 1672      6E616C20 
 1672      74657374 
 1673 0061 000000   		.space	3
 1674              	.LC10:
 1675 0064 4D757465 		.ascii	"Mutexes, status\000"
 1675      7865732C 
 1675      20737461 
 1675      74757300 
 1676              	.LC11:
 1677 0074 4D757465 		.ascii	"Mutexes, priority return\000"
 1677      7865732C 
 1677      20707269 
 1677      6F726974 
 1677      79207265 
 1678 008d 000000   		.space	3
 1679              	.LC12:
 1680 0090 4D757465 		.ascii	"Mutexes, priority enqueuing test\000"
 1680      7865732C 
 1680      20707269 
 1680      6F726974 
 1680      7920656E 
 1681              		.section	.rodata.patternmtx,"a",%progbits
 1682              		.align	2
 1683              		.type	patternmtx, %object
 1684              		.size	patternmtx, 28
 1685              	patternmtx:
 1686 0000 00000000 		.word	testmtx1
ARM GAS  /tmp/ccrJ1Ybk.s 			page 31


 1687 0004 00000000 		.word	testmtx4
 1688 0008 00000000 		.word	testmtx5
 1689 000c 00000000 		.word	testmtx6
 1690 0010 00000000 		.word	testmtx7
 1691 0014 00000000 		.word	testmtx8
 1692 0018 00000000 		.word	0
 1693              		.section	.data.c1,"aw",%progbits
 1694              		.align	2
 1695              		.set	.LANCHOR2,. + 0
 1696              		.type	c1, %object
 1697              		.size	c1, 8
 1698              	c1:
 1699 0000 00000000 		.word	c1
 1700 0004 00000000 		.word	c1
 1701              		.section	.rodata.testmtx1,"a",%progbits
 1702              		.align	2
 1703              		.type	testmtx1, %object
 1704              		.size	testmtx1, 16
 1705              	testmtx1:
 1706 0000 90000000 		.word	.LC12
 1707 0004 00000000 		.word	mtx1_setup
 1708 0008 00000000 		.word	0
 1709 000c 00000000 		.word	mtx1_execute
 1710              		.section	.rodata.testmtx4,"a",%progbits
 1711              		.align	2
 1712              		.type	testmtx4, %object
 1713              		.size	testmtx4, 16
 1714              	testmtx4:
 1715 0000 74000000 		.word	.LC11
 1716 0004 00000000 		.word	mtx4_setup
 1717 0008 00000000 		.word	0
 1718 000c 00000000 		.word	mtx4_execute
 1719              		.text
 1720              	.Letext0:
 1721              		.file 2 "/usr/local/gcc-arm-none-eabi-5_4-2016q3/arm-none-eabi/include/machine/_default_types.h"
 1722              		.file 3 "/usr/local/gcc-arm-none-eabi-5_4-2016q3/arm-none-eabi/include/sys/_stdint.h"
 1723              		.file 4 "../ChibiOS_2.6.9/os/ports/GCC/ARMCMx/chtypes.h"
 1724              		.file 5 "../ChibiOS_2.6.9/os/kernel/include/chlists.h"
 1725              		.file 6 "../ChibiOS_2.6.9/os/kernel/include/chthreads.h"
 1726              		.file 7 "../ChibiOS_2.6.9/os/ports/GCC/ARMCMx/chcore_v7m.h"
 1727              		.file 8 "../ChibiOS_2.6.9/os/kernel/include/chschd.h"
 1728              		.file 9 "../ChibiOS_2.6.9/os/kernel/include/chmtx.h"
 1729              		.file 10 "../ChibiOS_2.6.9/os/kernel/include/chcond.h"
 1730              		.file 11 "../ChibiOS_2.6.9/test/test.h"