ARM GAS  /tmp/cc62Brnt.s 			page 1


   1              		.syntax unified
   2              		.cpu cortex-m4
   3              		.fpu softvfp
   4              		.eabi_attribute 20, 1
   5              		.eabi_attribute 21, 1
   6              		.eabi_attribute 23, 3
   7              		.eabi_attribute 24, 1
   8              		.eabi_attribute 25, 1
   9              		.eabi_attribute 26, 1
  10              		.eabi_attribute 30, 2
  11              		.eabi_attribute 34, 1
  12              		.eabi_attribute 18, 4
  13              		.thumb
  14              		.syntax unified
  15              		.file	"testevt.c"
  16              		.text
  17              	.Ltext0:
  18              		.cfi_sections	.debug_frame
  19              		.section	.text.evt1_execute,"ax",%progbits
  20              		.align	2
  21              		.p2align 4,,15
  22              		.thumb
  23              		.thumb_func
  24              		.type	evt1_execute, %function
  25              	evt1_execute:
  26              	.LFB11:
  27              		.file 1 "../ChibiOS_2.6.9/test/testevt.c"
  28              		.loc 1 85 0
  29              		.cfi_startproc
  30              		@ args = 0, pretend = 0, frame = 32
  31              		@ frame_needed = 0, uses_anonymous_args = 0
  32 0000 10B5     		push	{r4, lr}
  33              		.cfi_def_cfa_offset 8
  34              		.cfi_offset 4, -8
  35              		.cfi_offset 14, -4
  36              		.loc 1 91 0
  37 0002 1D4C     		ldr	r4, .L7
  38              		.loc 1 85 0
  39 0004 88B0     		sub	sp, sp, #32
  40              		.cfi_def_cfa_offset 40
  41              		.loc 1 92 0
  42 0006 2046     		mov	r0, r4
  43 0008 6946     		mov	r1, sp
  44 000a 0122     		movs	r2, #1
  45              		.loc 1 91 0
  46 000c 2460     		str	r4, [r4]
  47              		.loc 1 92 0
  48 000e FFF7FEFF 		bl	chEvtRegisterMask
  49              	.LVL0:
  50              		.loc 1 93 0
  51 0012 2046     		mov	r0, r4
  52 0014 04A9     		add	r1, sp, #16
  53 0016 0222     		movs	r2, #2
  54 0018 FFF7FEFF 		bl	chEvtRegisterMask
  55              	.LVL1:
  56              		.loc 1 94 0
  57 001c 2168     		ldr	r1, [r4]
ARM GAS  /tmp/cc62Brnt.s 			page 2


  58 001e 091B     		subs	r1, r1, r4
  59 0020 18BF     		it	ne
  60 0022 0121     		movne	r1, #1
  61 0024 0120     		movs	r0, #1
  62 0026 FFF7FEFF 		bl	_test_assert
  63              	.LVL2:
  64 002a 08B1     		cbz	r0, .L6
  65              	.L1:
  66              		.loc 1 105 0
  67 002c 08B0     		add	sp, sp, #32
  68              		.cfi_remember_state
  69              		.cfi_def_cfa_offset 8
  70              		@ sp needed
  71 002e 10BD     		pop	{r4, pc}
  72              	.L6:
  73              		.cfi_restore_state
  74              		.loc 1 95 0
  75 0030 6946     		mov	r1, sp
  76 0032 2046     		mov	r0, r4
  77 0034 FFF7FEFF 		bl	chEvtUnregister
  78              	.LVL3:
  79              		.loc 1 96 0
  80 0038 2168     		ldr	r1, [r4]
  81 003a 091B     		subs	r1, r1, r4
  82 003c 18BF     		it	ne
  83 003e 0121     		movne	r1, #1
  84 0040 0220     		movs	r0, #2
  85 0042 FFF7FEFF 		bl	_test_assert
  86              	.LVL4:
  87 0046 0028     		cmp	r0, #0
  88 0048 F0D1     		bne	.L1
  89              		.loc 1 97 0
  90 004a 04A9     		add	r1, sp, #16
  91 004c 2046     		mov	r0, r4
  92 004e FFF7FEFF 		bl	chEvtUnregister
  93              	.LVL5:
  94              		.loc 1 98 0
  95 0052 2168     		ldr	r1, [r4]
  96 0054 091B     		subs	r1, r1, r4
  97 0056 B1FA81F1 		clz	r1, r1
  98 005a 0320     		movs	r0, #3
  99 005c 4909     		lsrs	r1, r1, #5
 100 005e FFF7FEFF 		bl	_test_assert
 101              	.LVL6:
 102 0062 0028     		cmp	r0, #0
 103 0064 E2D1     		bne	.L1
 104              		.loc 1 103 0
 105 0066 0721     		movs	r1, #7
 106 0068 0448     		ldr	r0, .L7+4
 107 006a FFF7FEFF 		bl	chEvtDispatch
 108              	.LVL7:
 109              		.loc 1 104 0
 110 006e 0449     		ldr	r1, .L7+8
 111 0070 0420     		movs	r0, #4
 112 0072 FFF7FEFF 		bl	_test_assert_sequence
 113              	.LVL8:
 114 0076 D9E7     		b	.L1
ARM GAS  /tmp/cc62Brnt.s 			page 3


 115              	.L8:
 116              		.align	2
 117              	.L7:
 118 0078 00000000 		.word	.LANCHOR0
 119 007c 00000000 		.word	.LANCHOR1
 120 0080 00000000 		.word	.LC0
 121              		.cfi_endproc
 122              	.LFE11:
 123              		.size	evt1_execute, .-evt1_execute
 124              		.section	.text.h3,"ax",%progbits
 125              		.align	2
 126              		.p2align 4,,15
 127              		.thumb
 128              		.thumb_func
 129              		.type	h3, %function
 130              	h3:
 131              	.LFB10:
 132              		.loc 1 82 0
 133              		.cfi_startproc
 134              		@ args = 0, pretend = 0, frame = 0
 135              		@ frame_needed = 0, uses_anonymous_args = 0
 136              		@ link register save eliminated.
 137              	.LVL9:
 138              		.loc 1 82 0
 139 0000 4320     		movs	r0, #67
 140              	.LVL10:
 141 0002 FFF7FEBF 		b	test_emit_token
 142              	.LVL11:
 143              		.cfi_endproc
 144              	.LFE10:
 145              		.size	h3, .-h3
 146 0006 00BF     		.section	.text.h2,"ax",%progbits
 147              		.align	2
 148              		.p2align 4,,15
 149              		.thumb
 150              		.thumb_func
 151              		.type	h2, %function
 152              	h2:
 153              	.LFB9:
 154              		.loc 1 81 0
 155              		.cfi_startproc
 156              		@ args = 0, pretend = 0, frame = 0
 157              		@ frame_needed = 0, uses_anonymous_args = 0
 158              		@ link register save eliminated.
 159              	.LVL12:
 160              		.loc 1 81 0
 161 0000 4220     		movs	r0, #66
 162              	.LVL13:
 163 0002 FFF7FEBF 		b	test_emit_token
 164              	.LVL14:
 165              		.cfi_endproc
 166              	.LFE9:
 167              		.size	h2, .-h2
 168 0006 00BF     		.section	.text.h1,"ax",%progbits
 169              		.align	2
 170              		.p2align 4,,15
 171              		.thumb
ARM GAS  /tmp/cc62Brnt.s 			page 4


 172              		.thumb_func
 173              		.type	h1, %function
 174              	h1:
 175              	.LFB8:
 176              		.loc 1 80 0
 177              		.cfi_startproc
 178              		@ args = 0, pretend = 0, frame = 0
 179              		@ frame_needed = 0, uses_anonymous_args = 0
 180              		@ link register save eliminated.
 181              	.LVL15:
 182              		.loc 1 80 0
 183 0000 4120     		movs	r0, #65
 184              	.LVL16:
 185 0002 FFF7FEBF 		b	test_emit_token
 186              	.LVL17:
 187              		.cfi_endproc
 188              	.LFE8:
 189              		.size	h1, .-h1
 190 0006 00BF     		.section	.text.evt3_setup,"ax",%progbits
 191              		.align	2
 192              		.p2align 4,,15
 193              		.thumb
 194              		.thumb_func
 195              		.type	evt3_setup, %function
 196              	evt3_setup:
 197              	.LFB16:
 198              		.loc 1 249 0
 199              		.cfi_startproc
 200              		@ args = 0, pretend = 0, frame = 0
 201              		@ frame_needed = 0, uses_anonymous_args = 0
 202              		@ link register save eliminated.
 203              		.loc 1 251 0
 204 0000 4FF0FF30 		mov	r0, #-1
 205 0004 FFF7FEBF 		b	chEvtGetAndClearEvents
 206              	.LVL18:
 207              		.cfi_endproc
 208              	.LFE16:
 209              		.size	evt3_setup, .-evt3_setup
 210              		.section	.text.evt2_setup,"ax",%progbits
 211              		.align	2
 212              		.p2align 4,,15
 213              		.thumb
 214              		.thumb_func
 215              		.type	evt2_setup, %function
 216              	evt2_setup:
 217              	.LFB20:
 218              		.cfi_startproc
 219              		@ args = 0, pretend = 0, frame = 0
 220              		@ frame_needed = 0, uses_anonymous_args = 0
 221              		@ link register save eliminated.
 222 0000 FFF7FEBF 		b	evt3_setup
 223              		.cfi_endproc
 224              	.LFE20:
 225              		.size	evt2_setup, .-evt2_setup
 226              		.section	.text.evt1_setup,"ax",%progbits
 227              		.align	2
 228              		.p2align 4,,15
ARM GAS  /tmp/cc62Brnt.s 			page 5


 229              		.thumb
 230              		.thumb_func
 231              		.type	evt1_setup, %function
 232              	evt1_setup:
 233              	.LFB22:
 234              		.cfi_startproc
 235              		@ args = 0, pretend = 0, frame = 0
 236              		@ frame_needed = 0, uses_anonymous_args = 0
 237              		@ link register save eliminated.
 238 0000 FFF7FEBF 		b	evt3_setup
 239              		.cfi_endproc
 240              	.LFE22:
 241              		.size	evt1_setup, .-evt1_setup
 242              		.section	.text.evt2_execute,"ax",%progbits
 243              		.align	2
 244              		.p2align 4,,15
 245              		.thumb
 246              		.thumb_func
 247              		.type	evt2_execute, %function
 248              	evt2_execute:
 249              	.LFB15:
 250              		.loc 1 149 0
 251              		.cfi_startproc
 252              		@ args = 0, pretend = 0, frame = 32
 253              		@ frame_needed = 0, uses_anonymous_args = 0
 254              		.loc 1 149 0
 255 0000 2DE9F043 		push	{r4, r5, r6, r7, r8, r9, lr}
 256              		.cfi_def_cfa_offset 28
 257              		.cfi_offset 4, -28
 258              		.cfi_offset 5, -24
 259              		.cfi_offset 6, -20
 260              		.cfi_offset 7, -16
 261              		.cfi_offset 8, -12
 262              		.cfi_offset 9, -8
 263              		.cfi_offset 14, -4
 264              		.loc 1 157 0
 265 0004 0720     		movs	r0, #7
 266              		.loc 1 149 0
 267 0006 8BB0     		sub	sp, sp, #44
 268              		.cfi_def_cfa_offset 72
 269              		.loc 1 157 0
 270 0008 FFF7FEFF 		bl	chEvtAddEvents
 271              	.LVL19:
 272              		.loc 1 158 0
 273 000c 4FF0FF30 		mov	r0, #-1
 274 0010 FFF7FEFF 		bl	chEvtWaitOne
 275              	.LVL20:
 276              		.loc 1 159 0
 277 0014 A0F10101 		sub	r1, r0, #1
 278 0018 B1FA81F1 		clz	r1, r1
 279 001c 4909     		lsrs	r1, r1, #5
 280 001e 0120     		movs	r0, #1
 281              	.LVL21:
 282 0020 FFF7FEFF 		bl	_test_assert
 283              	.LVL22:
 284 0024 10B1     		cbz	r0, .L19
 285              	.L15:
ARM GAS  /tmp/cc62Brnt.s 			page 6


 286              		.loc 1 224 0
 287 0026 0BB0     		add	sp, sp, #44
 288              		.cfi_remember_state
 289              		.cfi_def_cfa_offset 28
 290              		@ sp needed
 291 0028 BDE8F083 		pop	{r4, r5, r6, r7, r8, r9, pc}
 292              	.L19:
 293              		.cfi_restore_state
 294              		.loc 1 160 0
 295 002c 4FF0FF30 		mov	r0, #-1
 296 0030 FFF7FEFF 		bl	chEvtWaitOne
 297              	.LVL23:
 298              		.loc 1 161 0
 299 0034 A0F10201 		sub	r1, r0, #2
 300 0038 B1FA81F1 		clz	r1, r1
 301 003c 4909     		lsrs	r1, r1, #5
 302 003e 0220     		movs	r0, #2
 303              	.LVL24:
 304 0040 FFF7FEFF 		bl	_test_assert
 305              	.LVL25:
 306 0044 0028     		cmp	r0, #0
 307 0046 EED1     		bne	.L15
 308              		.loc 1 162 0
 309 0048 4FF0FF30 		mov	r0, #-1
 310 004c FFF7FEFF 		bl	chEvtWaitOne
 311              	.LVL26:
 312              		.loc 1 163 0
 313 0050 A0F10401 		sub	r1, r0, #4
 314 0054 B1FA81F1 		clz	r1, r1
 315 0058 4909     		lsrs	r1, r1, #5
 316 005a 0320     		movs	r0, #3
 317              	.LVL27:
 318 005c FFF7FEFF 		bl	_test_assert
 319              	.LVL28:
 320 0060 0028     		cmp	r0, #0
 321 0062 E0D1     		bne	.L15
 322              		.loc 1 164 0
 323 0064 4FF0FF30 		mov	r0, #-1
 324 0068 FFF7FEFF 		bl	chEvtGetAndClearEvents
 325              	.LVL29:
 326              		.loc 1 165 0
 327 006c B0FA80F1 		clz	r1, r0
 328 0070 4909     		lsrs	r1, r1, #5
 329 0072 0420     		movs	r0, #4
 330              	.LVL30:
 331 0074 FFF7FEFF 		bl	_test_assert
 332              	.LVL31:
 333 0078 0028     		cmp	r0, #0
 334 007a D4D1     		bne	.L15
 335              		.loc 1 172 0
 336 007c DFF8E481 		ldr	r8, .L20+28
 337              		.loc 1 171 0
 338 0080 714E     		ldr	r6, .L20
 339              		.loc 1 172 0
 340 0082 724D     		ldr	r5, .L20+4
 341              		.loc 1 170 0
 342 0084 FFF7FEFF 		bl	test_wait_tick
ARM GAS  /tmp/cc62Brnt.s 			page 7


 343              	.LVL32:
 344              		.loc 1 172 0
 345 0088 D8F81830 		ldr	r3, [r8, #24]
 346 008c 7049     		ldr	r1, .L20+8
 347 008e 9A68     		ldr	r2, [r3, #8]
 348 0090 0F68     		ldr	r7, [r1]
 349 0092 0093     		str	r3, [sp]
 350 0094 013A     		subs	r2, r2, #1
 351 0096 4FF4A471 		mov	r1, #328
 352 009a 6E4B     		ldr	r3, .L20+12
 353              		.loc 1 171 0
 354 009c F468     		ldr	r4, [r6, #12]
 355              	.LVL33:
 356              		.loc 1 172 0
 357 009e 3846     		mov	r0, r7
 358 00a0 FFF7FEFF 		bl	chThdCreateStatic
 359              	.LVL34:
 360 00a4 2860     		str	r0, [r5]
 361              		.loc 1 174 0
 362 00a6 4FF0FF30 		mov	r0, #-1
 363 00aa FFF7FEFF 		bl	chEvtWaitOne
 364              	.LVL35:
 365              		.loc 1 175 0
 366 00ae 04F13702 		add	r2, r4, #55
 367              		.loc 1 174 0
 368 00b2 8146     		mov	r9, r0
 369              	.LVL36:
 370              		.loc 1 175 0
 371 00b4 04F13201 		add	r1, r4, #50
 372              	.LVL37:
 373 00b8 0520     		movs	r0, #5
 374              	.LVL38:
 375 00ba FFF7FEFF 		bl	_test_assert_time_window
 376              	.LVL39:
 377 00be 0028     		cmp	r0, #0
 378 00c0 B1D1     		bne	.L15
 379              		.loc 1 176 0
 380 00c2 A9F10101 		sub	r1, r9, #1
 381 00c6 B1FA81F1 		clz	r1, r1
 382 00ca 4909     		lsrs	r1, r1, #5
 383 00cc 0620     		movs	r0, #6
 384 00ce FFF7FEFF 		bl	_test_assert
 385              	.LVL40:
 386 00d2 0028     		cmp	r0, #0
 387 00d4 A7D1     		bne	.L15
 388              		.loc 1 177 0
 389 00d6 4FF0FF30 		mov	r0, #-1
 390 00da FFF7FEFF 		bl	chEvtGetAndClearEvents
 391              	.LVL41:
 392              		.loc 1 178 0
 393 00de B0FA80F1 		clz	r1, r0
 394 00e2 4909     		lsrs	r1, r1, #5
 395 00e4 0720     		movs	r0, #7
 396              	.LVL42:
 397 00e6 FFF7FEFF 		bl	_test_assert
 398              	.LVL43:
 399 00ea 0028     		cmp	r0, #0
ARM GAS  /tmp/cc62Brnt.s 			page 8


 400 00ec 9BD1     		bne	.L15
 401              		.loc 1 179 0
 402 00ee FFF7FEFF 		bl	test_wait_threads
 403              	.LVL44:
 404              		.loc 1 184 0
 405 00f2 0520     		movs	r0, #5
 406 00f4 FFF7FEFF 		bl	chEvtAddEvents
 407              	.LVL45:
 408              		.loc 1 185 0
 409 00f8 4FF0FF30 		mov	r0, #-1
 410 00fc FFF7FEFF 		bl	chEvtWaitAny
 411              	.LVL46:
 412              		.loc 1 186 0
 413 0100 441F     		subs	r4, r0, #5
 414              	.LVL47:
 415 0102 6142     		rsbs	r1, r4, #0
 416 0104 6141     		adcs	r1, r1, r4
 417 0106 0820     		movs	r0, #8
 418              	.LVL48:
 419 0108 FFF7FEFF 		bl	_test_assert
 420              	.LVL49:
 421 010c 0028     		cmp	r0, #0
 422 010e 8AD1     		bne	.L15
 423              		.loc 1 187 0
 424 0110 4FF0FF30 		mov	r0, #-1
 425 0114 FFF7FEFF 		bl	chEvtGetAndClearEvents
 426              	.LVL50:
 427              		.loc 1 188 0
 428 0118 B0FA80F1 		clz	r1, r0
 429 011c 4909     		lsrs	r1, r1, #5
 430 011e 0920     		movs	r0, #9
 431              	.LVL51:
 432 0120 FFF7FEFF 		bl	_test_assert
 433              	.LVL52:
 434 0124 0028     		cmp	r0, #0
 435 0126 7FF47EAF 		bne	.L15
 436              		.loc 1 193 0
 437 012a FFF7FEFF 		bl	test_wait_tick
 438              	.LVL53:
 439              		.loc 1 195 0
 440 012e D8F81810 		ldr	r1, [r8, #24]
 441 0132 484B     		ldr	r3, .L20+12
 442 0134 8A68     		ldr	r2, [r1, #8]
 443 0136 0091     		str	r1, [sp]
 444 0138 013A     		subs	r2, r2, #1
 445 013a 4FF4A471 		mov	r1, #328
 446 013e 3846     		mov	r0, r7
 447              		.loc 1 194 0
 448 0140 F468     		ldr	r4, [r6, #12]
 449              	.LVL54:
 450              		.loc 1 195 0
 451 0142 FFF7FEFF 		bl	chThdCreateStatic
 452              	.LVL55:
 453 0146 2860     		str	r0, [r5]
 454              		.loc 1 197 0
 455 0148 4FF0FF30 		mov	r0, #-1
 456 014c FFF7FEFF 		bl	chEvtWaitAny
ARM GAS  /tmp/cc62Brnt.s 			page 9


 457              	.LVL56:
 458              		.loc 1 198 0
 459 0150 04F13702 		add	r2, r4, #55
 460              		.loc 1 197 0
 461 0154 8146     		mov	r9, r0
 462              	.LVL57:
 463              		.loc 1 198 0
 464 0156 04F13201 		add	r1, r4, #50
 465              	.LVL58:
 466 015a 0A20     		movs	r0, #10
 467              	.LVL59:
 468 015c FFF7FEFF 		bl	_test_assert_time_window
 469              	.LVL60:
 470 0160 0028     		cmp	r0, #0
 471 0162 7FF460AF 		bne	.L15
 472              		.loc 1 199 0
 473 0166 09F1FF30 		add	r0, r9, #-1
 474 016a 4142     		rsbs	r1, r0, #0
 475 016c 4141     		adcs	r1, r1, r0
 476 016e 0B20     		movs	r0, #11
 477 0170 FFF7FEFF 		bl	_test_assert
 478              	.LVL61:
 479 0174 0028     		cmp	r0, #0
 480 0176 7FF456AF 		bne	.L15
 481              		.loc 1 200 0
 482 017a 4FF0FF30 		mov	r0, #-1
 483 017e FFF7FEFF 		bl	chEvtGetAndClearEvents
 484              	.LVL62:
 485              		.loc 1 201 0
 486 0182 B0FA80F1 		clz	r1, r0
 487 0186 4909     		lsrs	r1, r1, #5
 488 0188 0C20     		movs	r0, #12
 489              	.LVL63:
 490 018a FFF7FEFF 		bl	_test_assert
 491              	.LVL64:
 492 018e 0028     		cmp	r0, #0
 493 0190 7FF449AF 		bne	.L15
 494              		.loc 1 207 0
 495 0194 DFF8D090 		ldr	r9, .L20+32
 496              		.loc 1 208 0
 497 0198 2F4C     		ldr	r4, .L20+16
 498              	.LVL65:
 499              		.loc 1 202 0
 500 019a FFF7FEFF 		bl	test_wait_threads
 501              	.LVL66:
 502              		.loc 1 209 0
 503 019e 4846     		mov	r0, r9
 504 01a0 02A9     		add	r1, sp, #8
 505 01a2 0122     		movs	r2, #1
 506              		.loc 1 207 0
 507 01a4 C9F80090 		str	r9, [r9]
 508              		.loc 1 208 0
 509 01a8 2460     		str	r4, [r4]
 510              		.loc 1 209 0
 511 01aa FFF7FEFF 		bl	chEvtRegisterMask
 512              	.LVL67:
 513              		.loc 1 210 0
ARM GAS  /tmp/cc62Brnt.s 			page 10


 514 01ae 06A9     		add	r1, sp, #24
 515 01b0 0422     		movs	r2, #4
 516 01b2 2046     		mov	r0, r4
 517 01b4 FFF7FEFF 		bl	chEvtRegisterMask
 518              	.LVL68:
 519              		.loc 1 211 0
 520 01b8 FFF7FEFF 		bl	test_wait_tick
 521              	.LVL69:
 522              		.loc 1 213 0
 523 01bc D8F81830 		ldr	r3, [r8, #24]
 524 01c0 2649     		ldr	r1, .L20+20
 525 01c2 9A68     		ldr	r2, [r3, #8]
 526 01c4 0091     		str	r1, [sp]
 527 01c6 013A     		subs	r2, r2, #1
 528 01c8 4FF4A471 		mov	r1, #328
 529 01cc 244B     		ldr	r3, .L20+24
 530              		.loc 1 212 0
 531 01ce F668     		ldr	r6, [r6, #12]
 532              	.LVL70:
 533              		.loc 1 213 0
 534 01d0 3846     		mov	r0, r7
 535 01d2 FFF7FEFF 		bl	chThdCreateStatic
 536              	.LVL71:
 537 01d6 2860     		str	r0, [r5]
 538              		.loc 1 215 0
 539 01d8 0520     		movs	r0, #5
 540 01da FFF7FEFF 		bl	chEvtWaitAll
 541              	.LVL72:
 542              		.loc 1 216 0
 543 01de 06F13702 		add	r2, r6, #55
 544 01e2 06F13201 		add	r1, r6, #50
 545              	.LVL73:
 546 01e6 0D20     		movs	r0, #13
 547 01e8 FFF7FEFF 		bl	_test_assert_time_window
 548              	.LVL74:
 549 01ec 0028     		cmp	r0, #0
 550 01ee 7FF41AAF 		bne	.L15
 551              		.loc 1 217 0
 552 01f2 4FF0FF30 		mov	r0, #-1
 553 01f6 FFF7FEFF 		bl	chEvtGetAndClearEvents
 554              	.LVL75:
 555              		.loc 1 218 0
 556 01fa B0FA80F1 		clz	r1, r0
 557 01fe 4909     		lsrs	r1, r1, #5
 558 0200 0E20     		movs	r0, #14
 559              	.LVL76:
 560 0202 FFF7FEFF 		bl	_test_assert
 561              	.LVL77:
 562 0206 0028     		cmp	r0, #0
 563 0208 7FF40DAF 		bne	.L15
 564              		.loc 1 219 0
 565 020c FFF7FEFF 		bl	test_wait_threads
 566              	.LVL78:
 567              		.loc 1 220 0
 568 0210 02A9     		add	r1, sp, #8
 569 0212 4846     		mov	r0, r9
 570 0214 FFF7FEFF 		bl	chEvtUnregister
ARM GAS  /tmp/cc62Brnt.s 			page 11


 571              	.LVL79:
 572              		.loc 1 221 0
 573 0218 06A9     		add	r1, sp, #24
 574 021a 2046     		mov	r0, r4
 575 021c FFF7FEFF 		bl	chEvtUnregister
 576              	.LVL80:
 577              		.loc 1 222 0
 578 0220 D9F80010 		ldr	r1, [r9]
 579 0224 C9EB0102 		rsb	r2, r9, r1
 580 0228 5142     		rsbs	r1, r2, #0
 581 022a 5141     		adcs	r1, r1, r2
 582 022c 0F20     		movs	r0, #15
 583 022e FFF7FEFF 		bl	_test_assert
 584              	.LVL81:
 585 0232 0028     		cmp	r0, #0
 586 0234 7FF4F7AE 		bne	.L15
 587              		.loc 1 223 0
 588 0238 2168     		ldr	r1, [r4]
 589 023a 0B1B     		subs	r3, r1, r4
 590 023c 5942     		rsbs	r1, r3, #0
 591 023e 5941     		adcs	r1, r1, r3
 592 0240 1020     		movs	r0, #16
 593 0242 FFF7FEFF 		bl	_test_assert
 594              	.LVL82:
 595 0246 EEE6     		b	.L15
 596              	.L21:
 597              		.align	2
 598              	.L20:
 599 0248 00000000 		.word	vtlist
 600 024c 00000000 		.word	threads
 601 0250 00000000 		.word	wa
 602 0254 00000000 		.word	thread1
 603 0258 00000000 		.word	.LANCHOR2
 604 025c 04000000 		.word	.LC1
 605 0260 00000000 		.word	thread2
 606 0264 00000000 		.word	rlist
 607 0268 00000000 		.word	.LANCHOR0
 608              		.cfi_endproc
 609              	.LFE15:
 610              		.size	evt2_execute, .-evt2_execute
 611              		.section	.text.thread2,"ax",%progbits
 612              		.align	2
 613              		.p2align 4,,15
 614              		.thumb
 615              		.thumb_func
 616              		.type	thread2, %function
 617              	thread2:
 618              	.LFB14:
 619              		.loc 1 140 0
 620              		.cfi_startproc
 621              		@ args = 0, pretend = 0, frame = 0
 622              		@ frame_needed = 0, uses_anonymous_args = 0
 623              	.LVL83:
 624 0000 08B5     		push	{r3, lr}
 625              		.cfi_def_cfa_offset 8
 626              		.cfi_offset 3, -8
 627              		.cfi_offset 14, -4
ARM GAS  /tmp/cc62Brnt.s 			page 12


 628              		.loc 1 143 0
 629 0002 0021     		movs	r1, #0
 630 0004 0548     		ldr	r0, .L24
 631              	.LVL84:
 632 0006 FFF7FEFF 		bl	chEvtBroadcastFlags
 633              	.LVL85:
 634              		.loc 1 144 0
 635 000a 3220     		movs	r0, #50
 636 000c FFF7FEFF 		bl	chThdSleep
 637              	.LVL86:
 638              		.loc 1 145 0
 639 0010 0021     		movs	r1, #0
 640 0012 0348     		ldr	r0, .L24+4
 641 0014 FFF7FEFF 		bl	chEvtBroadcastFlags
 642              	.LVL87:
 643              		.loc 1 147 0
 644 0018 0020     		movs	r0, #0
 645 001a 08BD     		pop	{r3, pc}
 646              	.L25:
 647              		.align	2
 648              	.L24:
 649 001c 00000000 		.word	.LANCHOR0
 650 0020 00000000 		.word	.LANCHOR2
 651              		.cfi_endproc
 652              	.LFE14:
 653              		.size	thread2, .-thread2
 654              		.section	.text.thread1,"ax",%progbits
 655              		.align	2
 656              		.p2align 4,,15
 657              		.thumb
 658              		.thumb_func
 659              		.type	thread1, %function
 660              	thread1:
 661              	.LFB13:
 662              		.loc 1 133 0
 663              		.cfi_startproc
 664              		@ args = 0, pretend = 0, frame = 0
 665              		@ frame_needed = 0, uses_anonymous_args = 0
 666              	.LVL88:
 667 0000 10B5     		push	{r4, lr}
 668              		.cfi_def_cfa_offset 8
 669              		.cfi_offset 4, -8
 670              		.cfi_offset 14, -4
 671              		.loc 1 133 0
 672 0002 0446     		mov	r4, r0
 673              		.loc 1 135 0
 674 0004 3220     		movs	r0, #50
 675              	.LVL89:
 676 0006 FFF7FEFF 		bl	chThdSleep
 677              	.LVL90:
 678              		.loc 1 136 0
 679 000a 2046     		mov	r0, r4
 680 000c 0121     		movs	r1, #1
 681 000e FFF7FEFF 		bl	chEvtSignal
 682              	.LVL91:
 683              		.loc 1 138 0
 684 0012 0020     		movs	r0, #0
ARM GAS  /tmp/cc62Brnt.s 			page 13


 685 0014 10BD     		pop	{r4, pc}
 686              		.cfi_endproc
 687              	.LFE13:
 688              		.size	thread1, .-thread1
 689 0016 00BF     		.section	.text.evt3_execute,"ax",%progbits
 690              		.align	2
 691              		.p2align 4,,15
 692              		.thumb
 693              		.thumb_func
 694              		.type	evt3_execute, %function
 695              	evt3_execute:
 696              	.LFB17:
 697              		.loc 1 254 0
 698              		.cfi_startproc
 699              		@ args = 0, pretend = 0, frame = 0
 700              		@ frame_needed = 0, uses_anonymous_args = 0
 701 0000 08B5     		push	{r3, lr}
 702              		.cfi_def_cfa_offset 8
 703              		.cfi_offset 3, -8
 704              		.cfi_offset 14, -4
 705              		.loc 1 260 0
 706 0002 0021     		movs	r1, #0
 707 0004 4FF0FF30 		mov	r0, #-1
 708 0008 FFF7FEFF 		bl	chEvtWaitOneTimeout
 709              	.LVL92:
 710              		.loc 1 261 0
 711 000c B0FA80F1 		clz	r1, r0
 712 0010 4909     		lsrs	r1, r1, #5
 713 0012 0120     		movs	r0, #1
 714              	.LVL93:
 715 0014 FFF7FEFF 		bl	_test_assert
 716              	.LVL94:
 717 0018 00B1     		cbz	r0, .L33
 718              	.L28:
 719 001a 08BD     		pop	{r3, pc}
 720              	.L33:
 721              		.loc 1 262 0
 722 001c 0146     		mov	r1, r0
 723 001e 4FF0FF30 		mov	r0, #-1
 724 0022 FFF7FEFF 		bl	chEvtWaitAnyTimeout
 725              	.LVL95:
 726              		.loc 1 263 0
 727 0026 B0FA80F1 		clz	r1, r0
 728 002a 4909     		lsrs	r1, r1, #5
 729 002c 0220     		movs	r0, #2
 730              	.LVL96:
 731 002e FFF7FEFF 		bl	_test_assert
 732              	.LVL97:
 733 0032 0028     		cmp	r0, #0
 734 0034 F1D1     		bne	.L28
 735              		.loc 1 264 0
 736 0036 0146     		mov	r1, r0
 737 0038 4FF0FF30 		mov	r0, #-1
 738 003c FFF7FEFF 		bl	chEvtWaitAllTimeout
 739              	.LVL98:
 740              		.loc 1 265 0
 741 0040 B0FA80F1 		clz	r1, r0
ARM GAS  /tmp/cc62Brnt.s 			page 14


 742 0044 4909     		lsrs	r1, r1, #5
 743 0046 0320     		movs	r0, #3
 744              	.LVL99:
 745 0048 FFF7FEFF 		bl	_test_assert
 746              	.LVL100:
 747 004c 0028     		cmp	r0, #0
 748 004e E4D1     		bne	.L28
 749              	.LBB4:
 750              	.LBB5:
 751              		.loc 1 266 0
 752 0050 0A21     		movs	r1, #10
 753 0052 4FF0FF30 		mov	r0, #-1
 754 0056 FFF7FEFF 		bl	chEvtWaitOneTimeout
 755              	.LVL101:
 756              		.loc 1 267 0
 757 005a B0FA80F1 		clz	r1, r0
 758 005e 4909     		lsrs	r1, r1, #5
 759 0060 0420     		movs	r0, #4
 760              	.LVL102:
 761 0062 FFF7FEFF 		bl	_test_assert
 762              	.LVL103:
 763 0066 0028     		cmp	r0, #0
 764 0068 D7D1     		bne	.L28
 765              		.loc 1 268 0
 766 006a 0A21     		movs	r1, #10
 767 006c 4FF0FF30 		mov	r0, #-1
 768 0070 FFF7FEFF 		bl	chEvtWaitAnyTimeout
 769              	.LVL104:
 770              		.loc 1 269 0
 771 0074 B0FA80F1 		clz	r1, r0
 772 0078 4909     		lsrs	r1, r1, #5
 773 007a 0520     		movs	r0, #5
 774              	.LVL105:
 775 007c FFF7FEFF 		bl	_test_assert
 776              	.LVL106:
 777 0080 0028     		cmp	r0, #0
 778 0082 CAD1     		bne	.L28
 779              		.loc 1 270 0
 780 0084 0A21     		movs	r1, #10
 781 0086 4FF0FF30 		mov	r0, #-1
 782 008a FFF7FEFF 		bl	chEvtWaitAllTimeout
 783              	.LVL107:
 784              		.loc 1 271 0
 785 008e B0FA80F1 		clz	r1, r0
 786 0092 4909     		lsrs	r1, r1, #5
 787 0094 0620     		movs	r0, #6
 788              	.LVL108:
 789              	.LBE5:
 790              	.LBE4:
 791              		.loc 1 272 0
 792 0096 BDE80840 		pop	{r3, lr}
 793              		.cfi_restore 14
 794              		.cfi_restore 3
 795              		.cfi_def_cfa_offset 0
 796              	.LBB7:
 797              	.LBB6:
 798              		.loc 1 271 0
ARM GAS  /tmp/cc62Brnt.s 			page 15


 799 009a FFF7FEBF 		b	_test_assert
 800              	.LVL109:
 801              	.LBE6:
 802              	.LBE7:
 803              		.cfi_endproc
 804              	.LFE17:
 805              		.size	evt3_execute, .-evt3_execute
 806              		.global	patternevt
 807              		.global	testevt3
 808              		.global	testevt2
 809              		.global	testevt1
 810 009e 00BF     		.section	.rodata.patternevt,"a",%progbits
 811              		.align	2
 812              		.type	patternevt, %object
 813              		.size	patternevt, 16
 814              	patternevt:
 815 0000 00000000 		.word	testevt1
 816 0004 00000000 		.word	testevt2
 817 0008 00000000 		.word	testevt3
 818 000c 00000000 		.word	0
 819              		.section	.rodata.testevt2,"a",%progbits
 820              		.align	2
 821              		.type	testevt2, %object
 822              		.size	testevt2, 16
 823              	testevt2:
 824 0000 1C000000 		.word	.LC3
 825 0004 00000000 		.word	evt2_setup
 826 0008 00000000 		.word	0
 827 000c 00000000 		.word	evt2_execute
 828              		.section	.rodata.str1.4,"aMS",%progbits,1
 829              		.align	2
 830              	.LC0:
 831 0000 41424300 		.ascii	"ABC\000"
 832              	.LC1:
 833 0004 4100     		.ascii	"A\000"
 834 0006 0000     		.space	2
 835              	.LC2:
 836 0008 4576656E 		.ascii	"Events, timeouts\000"
 836      74732C20 
 836      74696D65 
 836      6F757473 
 836      00
 837 0019 000000   		.space	3
 838              	.LC3:
 839 001c 4576656E 		.ascii	"Events, wait and broadcast\000"
 839      74732C20 
 839      77616974 
 839      20616E64 
 839      2062726F 
 840 0037 00       		.space	1
 841              	.LC4:
 842 0038 4576656E 		.ascii	"Events, registration and dispatch\000"
 842      74732C20 
 842      72656769 
 842      73747261 
 842      74696F6E 
 843              		.section	.rodata.testevt1,"a",%progbits
ARM GAS  /tmp/cc62Brnt.s 			page 16


 844              		.align	2
 845              		.type	testevt1, %object
 846              		.size	testevt1, 16
 847              	testevt1:
 848 0000 38000000 		.word	.LC4
 849 0004 00000000 		.word	evt1_setup
 850 0008 00000000 		.word	0
 851 000c 00000000 		.word	evt1_execute
 852              		.section	.rodata.evhndl,"a",%progbits
 853              		.align	2
 854              		.set	.LANCHOR1,. + 0
 855              		.type	evhndl, %object
 856              		.size	evhndl, 12
 857              	evhndl:
 858 0000 00000000 		.word	h1
 859 0004 00000000 		.word	h2
 860 0008 00000000 		.word	h3
 861              		.section	.rodata.testevt3,"a",%progbits
 862              		.align	2
 863              		.type	testevt3, %object
 864              		.size	testevt3, 16
 865              	testevt3:
 866 0000 08000000 		.word	.LC2
 867 0004 00000000 		.word	evt3_setup
 868 0008 00000000 		.word	0
 869 000c 00000000 		.word	evt3_execute
 870              		.section	.data.es1,"aw",%progbits
 871              		.align	2
 872              		.set	.LANCHOR0,. + 0
 873              		.type	es1, %object
 874              		.size	es1, 4
 875              	es1:
 876 0000 00000000 		.word	es1
 877              		.section	.data.es2,"aw",%progbits
 878              		.align	2
 879              		.set	.LANCHOR2,. + 0
 880              		.type	es2, %object
 881              		.size	es2, 4
 882              	es2:
 883 0000 00000000 		.word	es2
 884              		.text
 885              	.Letext0:
 886              		.file 2 "/usr/local/gcc-arm-none-eabi-5_4-2016q3/arm-none-eabi/include/machine/_default_types.h"
 887              		.file 3 "/usr/local/gcc-arm-none-eabi-5_4-2016q3/arm-none-eabi/include/sys/_stdint.h"
 888              		.file 4 "../ChibiOS_2.6.9/os/ports/GCC/ARMCMx/chtypes.h"
 889              		.file 5 "../ChibiOS_2.6.9/os/kernel/include/chlists.h"
 890              		.file 6 "../ChibiOS_2.6.9/os/kernel/include/chthreads.h"
 891              		.file 7 "../ChibiOS_2.6.9/os/ports/GCC/ARMCMx/chcore_v7m.h"
 892              		.file 8 "../ChibiOS_2.6.9/os/kernel/include/chvt.h"
 893              		.file 9 "../ChibiOS_2.6.9/os/kernel/include/chschd.h"
 894              		.file 10 "../ChibiOS_2.6.9/os/kernel/include/chmtx.h"
 895              		.file 11 "../ChibiOS_2.6.9/os/kernel/include/chevents.h"
 896              		.file 12 "../ChibiOS_2.6.9/test/test.h"