ARM GAS  /tmp/ccU5jGYi.s 			page 1


   1              		.syntax unified
   2              		.cpu cortex-m4
   3              		.fpu softvfp
   4              		.eabi_attribute 20, 1
   5              		.eabi_attribute 21, 1
   6              		.eabi_attribute 23, 3
   7              		.eabi_attribute 24, 1
   8              		.eabi_attribute 25, 1
   9              		.eabi_attribute 26, 1
  10              		.eabi_attribute 30, 2
  11              		.eabi_attribute 34, 1
  12              		.eabi_attribute 18, 4
  13              		.thumb
  14              		.syntax unified
  15              		.file	"usb.c"
  16              		.text
  17              	.Ltext0:
  18              		.cfi_sections	.debug_frame
  19              		.section	.text.usbInit,"ax",%progbits
  20              		.align	2
  21              		.p2align 4,,15
  22              		.global	usbInit
  23              		.thumb
  24              		.thumb_func
  25              		.type	usbInit, %function
  26              	usbInit:
  27              	.LFB120:
  28              		.file 1 "../ChibiOS_2.6.9/os/hal/src/usb.c"
  29              		.loc 1 235 0
  30              		.cfi_startproc
  31              		@ args = 0, pretend = 0, frame = 0
  32              		@ frame_needed = 0, uses_anonymous_args = 0
  33              		@ link register save eliminated.
  34              		.loc 1 237 0
  35 0000 FFF7FEBF 		b	usb_lld_init
  36              	.LVL0:
  37              		.cfi_endproc
  38              	.LFE120:
  39              		.size	usbInit, .-usbInit
  40              		.section	.text.usbObjectInit,"ax",%progbits
  41              		.align	2
  42              		.p2align 4,,15
  43              		.global	usbObjectInit
  44              		.thumb
  45              		.thumb_func
  46              		.type	usbObjectInit, %function
  47              	usbObjectInit:
  48              	.LFB121:
  49              		.loc 1 247 0
  50              		.cfi_startproc
  51              		@ args = 0, pretend = 0, frame = 0
  52              		@ frame_needed = 0, uses_anonymous_args = 0
  53              		@ link register save eliminated.
  54              	.LVL1:
  55              		.loc 1 251 0
  56 0000 0023     		movs	r3, #0
  57              		.loc 1 250 0
ARM GAS  /tmp/ccU5jGYi.s 			page 2


  58 0002 0122     		movs	r2, #1
  59 0004 0270     		strb	r2, [r0]
  60              		.loc 1 251 0
  61 0006 4360     		str	r3, [r0, #4]
  62              	.LVL2:
  63              		.loc 1 253 0
  64 0008 C361     		str	r3, [r0, #28]
  65              		.loc 1 254 0
  66 000a 8362     		str	r3, [r0, #40]
  67              	.LVL3:
  68              		.loc 1 253 0
  69 000c 0362     		str	r3, [r0, #32]
  70              		.loc 1 254 0
  71 000e C362     		str	r3, [r0, #44]
  72              	.LVL4:
  73              		.loc 1 253 0
  74 0010 4362     		str	r3, [r0, #36]
  75              		.loc 1 254 0
  76 0012 0363     		str	r3, [r0, #48]
  77              	.LVL5:
  78              		.loc 1 256 0
  79 0014 0381     		strh	r3, [r0, #8]	@ movhi
  80              		.loc 1 257 0
  81 0016 4381     		strh	r3, [r0, #10]	@ movhi
  82 0018 7047     		bx	lr
  83              		.cfi_endproc
  84              	.LFE121:
  85              		.size	usbObjectInit, .-usbObjectInit
  86 001a 00BF     		.section	.text.usbStart,"ax",%progbits
  87              		.align	2
  88              		.p2align 4,,15
  89              		.global	usbStart
  90              		.thumb
  91              		.thumb_func
  92              		.type	usbStart, %function
  93              	usbStart:
  94              	.LFB122:
  95              		.loc 1 268 0
  96              		.cfi_startproc
  97              		@ args = 0, pretend = 0, frame = 0
  98              		@ frame_needed = 0, uses_anonymous_args = 0
  99              	.LVL6:
 100 0000 38B5     		push	{r3, r4, r5, lr}
 101              		.cfi_def_cfa_offset 16
 102              		.cfi_offset 3, -16
 103              		.cfi_offset 4, -12
 104              		.cfi_offset 5, -8
 105              		.cfi_offset 14, -4
 106              		.loc 1 268 0
 107 0002 0446     		mov	r4, r0
 108              	.LBB44:
 109              		.loc 1 273 0
 110 0004 2023     		movs	r3, #32
 111              		.syntax unified
 112              	@ 273 "../ChibiOS_2.6.9/os/hal/src/usb.c" 1
 113 0006 83F31188 		msr     BASEPRI, r3
 114              	@ 0 "" 2
ARM GAS  /tmp/ccU5jGYi.s 			page 3


 115              		.thumb
 116              		.syntax unified
 117              	.LBE44:
 118              		.loc 1 278 0
 119 000a 0025     		movs	r5, #0
 120              		.loc 1 276 0
 121 000c 4160     		str	r1, [r0, #4]
 122              	.LVL7:
 123              		.loc 1 278 0
 124 000e C560     		str	r5, [r0, #12]
 125              	.LVL8:
 126 0010 0561     		str	r5, [r0, #16]
 127              	.LVL9:
 128 0012 4561     		str	r5, [r0, #20]
 129              	.LVL10:
 130 0014 8561     		str	r5, [r0, #24]
 131              	.LVL11:
 132              		.loc 1 279 0
 133 0016 FFF7FEFF 		bl	usb_lld_start
 134              	.LVL12:
 135              		.loc 1 280 0
 136 001a 0222     		movs	r2, #2
 137              	.LBB45:
 138              		.loc 1 281 0
 139 001c 2B46     		mov	r3, r5
 140              	.LBE45:
 141              		.loc 1 280 0
 142 001e 2270     		strb	r2, [r4]
 143              	.LBB46:
 144              		.loc 1 281 0
 145              		.syntax unified
 146              	@ 281 "../ChibiOS_2.6.9/os/hal/src/usb.c" 1
 147 0020 83F31188 		msr     BASEPRI, r3
 148              	@ 0 "" 2
 149              		.thumb
 150              		.syntax unified
 151 0024 38BD     		pop	{r3, r4, r5, pc}
 152              	.LBE46:
 153              		.cfi_endproc
 154              	.LFE122:
 155              		.size	usbStart, .-usbStart
 156 0026 00BF     		.section	.text.usbStop,"ax",%progbits
 157              		.align	2
 158              		.p2align 4,,15
 159              		.global	usbStop
 160              		.thumb
 161              		.thumb_func
 162              		.type	usbStop, %function
 163              	usbStop:
 164              	.LFB123:
 165              		.loc 1 291 0
 166              		.cfi_startproc
 167              		@ args = 0, pretend = 0, frame = 0
 168              		@ frame_needed = 0, uses_anonymous_args = 0
 169              	.LVL13:
 170 0000 10B5     		push	{r4, lr}
 171              		.cfi_def_cfa_offset 8
ARM GAS  /tmp/ccU5jGYi.s 			page 4


 172              		.cfi_offset 4, -8
 173              		.cfi_offset 14, -4
 174              	.LBB47:
 175              		.loc 1 295 0
 176 0002 2023     		movs	r3, #32
 177              	.LBE47:
 178              		.loc 1 291 0
 179 0004 0446     		mov	r4, r0
 180              	.LBB48:
 181              		.loc 1 295 0
 182              		.syntax unified
 183              	@ 295 "../ChibiOS_2.6.9/os/hal/src/usb.c" 1
 184 0006 83F31188 		msr     BASEPRI, r3
 185              	@ 0 "" 2
 186              		.thumb
 187              		.syntax unified
 188              	.LBE48:
 189              		.loc 1 299 0
 190 000a FFF7FEFF 		bl	usb_lld_stop
 191              	.LVL14:
 192              		.loc 1 300 0
 193 000e 0123     		movs	r3, #1
 194 0010 2370     		strb	r3, [r4]
 195              	.LBB49:
 196              		.loc 1 301 0
 197 0012 0023     		movs	r3, #0
 198              		.syntax unified
 199              	@ 301 "../ChibiOS_2.6.9/os/hal/src/usb.c" 1
 200 0014 83F31188 		msr     BASEPRI, r3
 201              	@ 0 "" 2
 202              		.thumb
 203              		.syntax unified
 204 0018 10BD     		pop	{r4, pc}
 205              	.LBE49:
 206              		.cfi_endproc
 207              	.LFE123:
 208              		.size	usbStop, .-usbStop
 209 001a 00BF     		.section	.text.usbInitEndpointI,"ax",%progbits
 210              		.align	2
 211              		.p2align 4,,15
 212              		.global	usbInitEndpointI
 213              		.thumb
 214              		.thumb_func
 215              		.type	usbInitEndpointI, %function
 216              	usbInitEndpointI:
 217              	.LFB124:
 218              		.loc 1 318 0
 219              		.cfi_startproc
 220              		@ args = 0, pretend = 0, frame = 0
 221              		@ frame_needed = 0, uses_anonymous_args = 0
 222              		@ link register save eliminated.
 223              	.LVL15:
 224              		.loc 1 328 0
 225 0000 5369     		ldr	r3, [r2, #20]
 226              		.loc 1 318 0
 227 0002 10B4     		push	{r4}
 228              		.cfi_def_cfa_offset 4
ARM GAS  /tmp/ccU5jGYi.s 			page 5


 229              		.cfi_offset 4, -4
 230              		.loc 1 328 0
 231 0004 2BB1     		cbz	r3, .L8
 232              		.loc 1 329 0
 233 0006 0024     		movs	r4, #0
 234 0008 1C60     		str	r4, [r3]	@ unaligned
 235 000a 5C60     		str	r4, [r3, #4]	@ unaligned
 236 000c 9C60     		str	r4, [r3, #8]	@ unaligned
 237 000e DC60     		str	r4, [r3, #12]	@ unaligned
 238 0010 1C61     		str	r4, [r3, #16]	@ unaligned
 239              	.L8:
 240              		.loc 1 330 0
 241 0012 9369     		ldr	r3, [r2, #24]
 242 0014 2BB1     		cbz	r3, .L9
 243              		.loc 1 331 0
 244 0016 0024     		movs	r4, #0
 245 0018 1C60     		str	r4, [r3]	@ unaligned
 246 001a 5C60     		str	r4, [r3, #4]	@ unaligned
 247 001c 9C60     		str	r4, [r3, #8]	@ unaligned
 248 001e DC60     		str	r4, [r3, #12]	@ unaligned
 249 0020 1C61     		str	r4, [r3, #16]	@ unaligned
 250              	.L9:
 251              		.loc 1 333 0
 252 0022 00EB8103 		add	r3, r0, r1, lsl #2
 253              		.loc 1 337 0
 254 0026 10BC     		pop	{r4}
 255              		.cfi_restore 4
 256              		.cfi_def_cfa_offset 0
 257              		.loc 1 333 0
 258 0028 DA60     		str	r2, [r3, #12]
 259              		.loc 1 336 0
 260 002a FFF7FEBF 		b	usb_lld_init_endpoint
 261              	.LVL16:
 262              		.cfi_endproc
 263              	.LFE124:
 264              		.size	usbInitEndpointI, .-usbInitEndpointI
 265 002e 00BF     		.section	.text.usbDisableEndpointsI,"ax",%progbits
 266              		.align	2
 267              		.p2align 4,,15
 268              		.global	usbDisableEndpointsI
 269              		.thumb
 270              		.thumb_func
 271              		.type	usbDisableEndpointsI, %function
 272              	usbDisableEndpointsI:
 273              	.LFB125:
 274              		.loc 1 350 0
 275              		.cfi_startproc
 276              		@ args = 0, pretend = 0, frame = 0
 277              		@ frame_needed = 0, uses_anonymous_args = 0
 278              		@ link register save eliminated.
 279              	.LVL17:
 280 0000 10B4     		push	{r4}
 281              		.cfi_def_cfa_offset 4
 282              		.cfi_offset 4, -4
 283              		.loc 1 359 0
 284 0002 4189     		ldrh	r1, [r0, #10]
 285              		.loc 1 358 0
ARM GAS  /tmp/ccU5jGYi.s 			page 6


 286 0004 0489     		ldrh	r4, [r0, #8]
 287              		.loc 1 361 0
 288 0006 0022     		movs	r2, #0
 289              		.loc 1 358 0
 290 0008 24F00104 		bic	r4, r4, #1
 291              		.loc 1 359 0
 292 000c 21F00101 		bic	r1, r1, #1
 293              		.loc 1 358 0
 294 0010 0481     		strh	r4, [r0, #8]	@ movhi
 295              		.loc 1 361 0
 296 0012 0261     		str	r2, [r0, #16]
 297              		.loc 1 359 0
 298 0014 4181     		strh	r1, [r0, #10]	@ movhi
 299              	.LVL18:
 300              		.loc 1 361 0
 301 0016 4261     		str	r2, [r0, #20]
 302              	.LVL19:
 303 0018 8261     		str	r2, [r0, #24]
 304              	.LVL20:
 305              		.loc 1 365 0
 306 001a 10BC     		pop	{r4}
 307              		.cfi_restore 4
 308              		.cfi_def_cfa_offset 0
 309              		.loc 1 364 0
 310 001c FFF7FEBF 		b	usb_lld_disable_endpoints
 311              	.LVL21:
 312              		.cfi_endproc
 313              	.LFE125:
 314              		.size	usbDisableEndpointsI, .-usbDisableEndpointsI
 315              		.section	.text.usbPrepareReceive,"ax",%progbits
 316              		.align	2
 317              		.p2align 4,,15
 318              		.global	usbPrepareReceive
 319              		.thumb
 320              		.thumb_func
 321              		.type	usbPrepareReceive, %function
 322              	usbPrepareReceive:
 323              	.LFB126:
 324              		.loc 1 379 0
 325              		.cfi_startproc
 326              		@ args = 0, pretend = 0, frame = 0
 327              		@ frame_needed = 0, uses_anonymous_args = 0
 328              		@ link register save eliminated.
 329              	.LVL22:
 330 0000 30B4     		push	{r4, r5}
 331              		.cfi_def_cfa_offset 8
 332              		.cfi_offset 4, -8
 333              		.cfi_offset 5, -4
 334              		.loc 1 380 0
 335 0002 00EB8104 		add	r4, r0, r1, lsl #2
 336              		.loc 1 382 0
 337 0006 0025     		movs	r5, #0
 338              		.loc 1 380 0
 339 0008 E468     		ldr	r4, [r4, #12]
 340 000a A469     		ldr	r4, [r4, #24]
 341              	.LVL23:
 342              		.loc 1 383 0
ARM GAS  /tmp/ccU5jGYi.s 			page 7


 343 000c E260     		str	r2, [r4, #12]
 344              		.loc 1 384 0
 345 000e 6360     		str	r3, [r4, #4]
 346              		.loc 1 382 0
 347 0010 2570     		strb	r5, [r4]
 348              		.loc 1 385 0
 349 0012 A560     		str	r5, [r4, #8]
 350              		.loc 1 388 0
 351 0014 30BC     		pop	{r4, r5}
 352              		.cfi_restore 5
 353              		.cfi_restore 4
 354              		.cfi_def_cfa_offset 0
 355              	.LVL24:
 356              		.loc 1 387 0
 357 0016 FFF7FEBF 		b	usb_lld_prepare_receive
 358              	.LVL25:
 359              		.cfi_endproc
 360              	.LFE126:
 361              		.size	usbPrepareReceive, .-usbPrepareReceive
 362 001a 00BF     		.section	.text.usbPrepareTransmit,"ax",%progbits
 363              		.align	2
 364              		.p2align 4,,15
 365              		.global	usbPrepareTransmit
 366              		.thumb
 367              		.thumb_func
 368              		.type	usbPrepareTransmit, %function
 369              	usbPrepareTransmit:
 370              	.LFB127:
 371              		.loc 1 405 0
 372              		.cfi_startproc
 373              		@ args = 0, pretend = 0, frame = 0
 374              		@ frame_needed = 0, uses_anonymous_args = 0
 375              		@ link register save eliminated.
 376              	.LVL26:
 377 0000 30B4     		push	{r4, r5}
 378              		.cfi_def_cfa_offset 8
 379              		.cfi_offset 4, -8
 380              		.cfi_offset 5, -4
 381              		.loc 1 406 0
 382 0002 00EB8104 		add	r4, r0, r1, lsl #2
 383              		.loc 1 408 0
 384 0006 0025     		movs	r5, #0
 385              		.loc 1 406 0
 386 0008 E468     		ldr	r4, [r4, #12]
 387 000a 6469     		ldr	r4, [r4, #20]
 388              	.LVL27:
 389              		.loc 1 409 0
 390 000c E260     		str	r2, [r4, #12]
 391              		.loc 1 410 0
 392 000e 6360     		str	r3, [r4, #4]
 393              		.loc 1 408 0
 394 0010 2570     		strb	r5, [r4]
 395              		.loc 1 411 0
 396 0012 A560     		str	r5, [r4, #8]
 397              		.loc 1 414 0
 398 0014 30BC     		pop	{r4, r5}
 399              		.cfi_restore 5
ARM GAS  /tmp/ccU5jGYi.s 			page 8


 400              		.cfi_restore 4
 401              		.cfi_def_cfa_offset 0
 402              	.LVL28:
 403              		.loc 1 413 0
 404 0016 FFF7FEBF 		b	usb_lld_prepare_transmit
 405              	.LVL29:
 406              		.cfi_endproc
 407              	.LFE127:
 408              		.size	usbPrepareTransmit, .-usbPrepareTransmit
 409 001a 00BF     		.section	.text.usbPrepareQueuedReceive,"ax",%progbits
 410              		.align	2
 411              		.p2align 4,,15
 412              		.global	usbPrepareQueuedReceive
 413              		.thumb
 414              		.thumb_func
 415              		.type	usbPrepareQueuedReceive, %function
 416              	usbPrepareQueuedReceive:
 417              	.LFB128:
 418              		.loc 1 434 0
 419              		.cfi_startproc
 420              		@ args = 0, pretend = 0, frame = 0
 421              		@ frame_needed = 0, uses_anonymous_args = 0
 422              		@ link register save eliminated.
 423              	.LVL30:
 424 0000 70B4     		push	{r4, r5, r6}
 425              		.cfi_def_cfa_offset 12
 426              		.cfi_offset 4, -12
 427              		.cfi_offset 5, -8
 428              		.cfi_offset 6, -4
 429              		.loc 1 435 0
 430 0002 00EB8104 		add	r4, r0, r1, lsl #2
 431              		.loc 1 437 0
 432 0006 0126     		movs	r6, #1
 433              		.loc 1 435 0
 434 0008 E468     		ldr	r4, [r4, #12]
 435 000a A469     		ldr	r4, [r4, #24]
 436              	.LVL31:
 437              		.loc 1 440 0
 438 000c 0025     		movs	r5, #0
 439              		.loc 1 438 0
 440 000e E260     		str	r2, [r4, #12]
 441              		.loc 1 439 0
 442 0010 6360     		str	r3, [r4, #4]
 443              		.loc 1 437 0
 444 0012 2670     		strb	r6, [r4]
 445              		.loc 1 440 0
 446 0014 A560     		str	r5, [r4, #8]
 447              		.loc 1 443 0
 448 0016 70BC     		pop	{r4, r5, r6}
 449              		.cfi_restore 6
 450              		.cfi_restore 5
 451              		.cfi_restore 4
 452              		.cfi_def_cfa_offset 0
 453              	.LVL32:
 454              		.loc 1 442 0
 455 0018 FFF7FEBF 		b	usb_lld_prepare_receive
 456              	.LVL33:
ARM GAS  /tmp/ccU5jGYi.s 			page 9


 457              		.cfi_endproc
 458              	.LFE128:
 459              		.size	usbPrepareQueuedReceive, .-usbPrepareQueuedReceive
 460              		.section	.text.usbPrepareQueuedTransmit,"ax",%progbits
 461              		.align	2
 462              		.p2align 4,,15
 463              		.global	usbPrepareQueuedTransmit
 464              		.thumb
 465              		.thumb_func
 466              		.type	usbPrepareQueuedTransmit, %function
 467              	usbPrepareQueuedTransmit:
 468              	.LFB129:
 469              		.loc 1 460 0
 470              		.cfi_startproc
 471              		@ args = 0, pretend = 0, frame = 0
 472              		@ frame_needed = 0, uses_anonymous_args = 0
 473              		@ link register save eliminated.
 474              	.LVL34:
 475 0000 70B4     		push	{r4, r5, r6}
 476              		.cfi_def_cfa_offset 12
 477              		.cfi_offset 4, -12
 478              		.cfi_offset 5, -8
 479              		.cfi_offset 6, -4
 480              		.loc 1 461 0
 481 0002 00EB8104 		add	r4, r0, r1, lsl #2
 482              		.loc 1 463 0
 483 0006 0126     		movs	r6, #1
 484              		.loc 1 461 0
 485 0008 E468     		ldr	r4, [r4, #12]
 486 000a 6469     		ldr	r4, [r4, #20]
 487              	.LVL35:
 488              		.loc 1 466 0
 489 000c 0025     		movs	r5, #0
 490              		.loc 1 464 0
 491 000e E260     		str	r2, [r4, #12]
 492              		.loc 1 465 0
 493 0010 6360     		str	r3, [r4, #4]
 494              		.loc 1 463 0
 495 0012 2670     		strb	r6, [r4]
 496              		.loc 1 466 0
 497 0014 A560     		str	r5, [r4, #8]
 498              		.loc 1 469 0
 499 0016 70BC     		pop	{r4, r5, r6}
 500              		.cfi_restore 6
 501              		.cfi_restore 5
 502              		.cfi_restore 4
 503              		.cfi_def_cfa_offset 0
 504              	.LVL36:
 505              		.loc 1 468 0
 506 0018 FFF7FEBF 		b	usb_lld_prepare_transmit
 507              	.LVL37:
 508              		.cfi_endproc
 509              	.LFE129:
 510              		.size	usbPrepareQueuedTransmit, .-usbPrepareQueuedTransmit
 511              		.section	.text.usbStartReceiveI,"ax",%progbits
 512              		.align	2
 513              		.p2align 4,,15
ARM GAS  /tmp/ccU5jGYi.s 			page 10


 514              		.global	usbStartReceiveI
 515              		.thumb
 516              		.thumb_func
 517              		.type	usbStartReceiveI, %function
 518              	usbStartReceiveI:
 519              	.LFB130:
 520              		.loc 1 485 0
 521              		.cfi_startproc
 522              		@ args = 0, pretend = 0, frame = 0
 523              		@ frame_needed = 0, uses_anonymous_args = 0
 524              	.LVL38:
 525 0000 70B5     		push	{r4, r5, r6, lr}
 526              		.cfi_def_cfa_offset 16
 527              		.cfi_offset 4, -16
 528              		.cfi_offset 5, -12
 529              		.cfi_offset 6, -8
 530              		.cfi_offset 14, -4
 531              		.loc 1 490 0
 532 0002 4589     		ldrh	r5, [r0, #10]
 533 0004 45FA01F3 		asr	r3, r5, r1
 534 0008 13F00104 		ands	r4, r3, #1
 535 000c 01D0     		beq	.L32
 536              		.loc 1 491 0
 537 000e 0120     		movs	r0, #1
 538              	.LVL39:
 539              		.loc 1 496 0
 540 0010 70BD     		pop	{r4, r5, r6, pc}
 541              	.LVL40:
 542              	.L32:
 543              		.loc 1 493 0
 544 0012 0123     		movs	r3, #1
 545 0014 03FA01F6 		lsl	r6, r3, r1
 546 0018 3543     		orrs	r5, r5, r6
 547 001a 4581     		strh	r5, [r0, #10]	@ movhi
 548              		.loc 1 494 0
 549 001c FFF7FEFF 		bl	usb_lld_start_out
 550              	.LVL41:
 551              		.loc 1 495 0
 552 0020 2046     		mov	r0, r4
 553 0022 70BD     		pop	{r4, r5, r6, pc}
 554              		.cfi_endproc
 555              	.LFE130:
 556              		.size	usbStartReceiveI, .-usbStartReceiveI
 557              		.section	.text.usbStartTransmitI,"ax",%progbits
 558              		.align	2
 559              		.p2align 4,,15
 560              		.global	usbStartTransmitI
 561              		.thumb
 562              		.thumb_func
 563              		.type	usbStartTransmitI, %function
 564              	usbStartTransmitI:
 565              	.LFB131:
 566              		.loc 1 512 0
 567              		.cfi_startproc
 568              		@ args = 0, pretend = 0, frame = 0
 569              		@ frame_needed = 0, uses_anonymous_args = 0
 570              	.LVL42:
ARM GAS  /tmp/ccU5jGYi.s 			page 11


 571 0000 70B5     		push	{r4, r5, r6, lr}
 572              		.cfi_def_cfa_offset 16
 573              		.cfi_offset 4, -16
 574              		.cfi_offset 5, -12
 575              		.cfi_offset 6, -8
 576              		.cfi_offset 14, -4
 577              		.loc 1 517 0
 578 0002 0589     		ldrh	r5, [r0, #8]
 579 0004 45FA01F3 		asr	r3, r5, r1
 580 0008 13F00104 		ands	r4, r3, #1
 581 000c 01D0     		beq	.L37
 582              		.loc 1 518 0
 583 000e 0120     		movs	r0, #1
 584              	.LVL43:
 585              		.loc 1 523 0
 586 0010 70BD     		pop	{r4, r5, r6, pc}
 587              	.LVL44:
 588              	.L37:
 589              		.loc 1 520 0
 590 0012 0123     		movs	r3, #1
 591 0014 03FA01F6 		lsl	r6, r3, r1
 592 0018 3543     		orrs	r5, r5, r6
 593 001a 0581     		strh	r5, [r0, #8]	@ movhi
 594              		.loc 1 521 0
 595 001c FFF7FEFF 		bl	usb_lld_start_in
 596              	.LVL45:
 597              		.loc 1 522 0
 598 0020 2046     		mov	r0, r4
 599 0022 70BD     		pop	{r4, r5, r6, pc}
 600              		.cfi_endproc
 601              	.LFE131:
 602              		.size	usbStartTransmitI, .-usbStartTransmitI
 603              		.section	.text.usbStallReceiveI,"ax",%progbits
 604              		.align	2
 605              		.p2align 4,,15
 606              		.global	usbStallReceiveI
 607              		.thumb
 608              		.thumb_func
 609              		.type	usbStallReceiveI, %function
 610              	usbStallReceiveI:
 611              	.LFB132:
 612              		.loc 1 537 0
 613              		.cfi_startproc
 614              		@ args = 0, pretend = 0, frame = 0
 615              		@ frame_needed = 0, uses_anonymous_args = 0
 616              	.LVL46:
 617              		.loc 1 542 0
 618 0000 4389     		ldrh	r3, [r0, #10]
 619 0002 0B41     		asrs	r3, r3, r1
 620              		.loc 1 537 0
 621 0004 10B5     		push	{r4, lr}
 622              		.cfi_def_cfa_offset 8
 623              		.cfi_offset 4, -8
 624              		.cfi_offset 14, -4
 625              		.loc 1 542 0
 626 0006 13F00104 		ands	r4, r3, #1
 627 000a 01D0     		beq	.L42
ARM GAS  /tmp/ccU5jGYi.s 			page 12


 628              		.loc 1 543 0
 629 000c 0120     		movs	r0, #1
 630              	.LVL47:
 631              		.loc 1 547 0
 632 000e 10BD     		pop	{r4, pc}
 633              	.LVL48:
 634              	.L42:
 635              		.loc 1 545 0
 636 0010 FFF7FEFF 		bl	usb_lld_stall_out
 637              	.LVL49:
 638              		.loc 1 546 0
 639 0014 2046     		mov	r0, r4
 640 0016 10BD     		pop	{r4, pc}
 641              		.cfi_endproc
 642              	.LFE132:
 643              		.size	usbStallReceiveI, .-usbStallReceiveI
 644              		.section	.text.usbStallTransmitI,"ax",%progbits
 645              		.align	2
 646              		.p2align 4,,15
 647              		.global	usbStallTransmitI
 648              		.thumb
 649              		.thumb_func
 650              		.type	usbStallTransmitI, %function
 651              	usbStallTransmitI:
 652              	.LFB133:
 653              		.loc 1 561 0
 654              		.cfi_startproc
 655              		@ args = 0, pretend = 0, frame = 0
 656              		@ frame_needed = 0, uses_anonymous_args = 0
 657              	.LVL50:
 658              		.loc 1 566 0
 659 0000 0389     		ldrh	r3, [r0, #8]
 660 0002 0B41     		asrs	r3, r3, r1
 661              		.loc 1 561 0
 662 0004 10B5     		push	{r4, lr}
 663              		.cfi_def_cfa_offset 8
 664              		.cfi_offset 4, -8
 665              		.cfi_offset 14, -4
 666              		.loc 1 566 0
 667 0006 13F00104 		ands	r4, r3, #1
 668 000a 01D0     		beq	.L47
 669              		.loc 1 567 0
 670 000c 0120     		movs	r0, #1
 671              	.LVL51:
 672              		.loc 1 571 0
 673 000e 10BD     		pop	{r4, pc}
 674              	.LVL52:
 675              	.L47:
 676              		.loc 1 569 0
 677 0010 FFF7FEFF 		bl	usb_lld_stall_in
 678              	.LVL53:
 679              		.loc 1 570 0
 680 0014 2046     		mov	r0, r4
 681 0016 10BD     		pop	{r4, pc}
 682              		.cfi_endproc
 683              	.LFE133:
 684              		.size	usbStallTransmitI, .-usbStallTransmitI
ARM GAS  /tmp/ccU5jGYi.s 			page 13


 685              		.section	.text._usb_reset,"ax",%progbits
 686              		.align	2
 687              		.p2align 4,,15
 688              		.global	_usb_reset
 689              		.thumb
 690              		.thumb_func
 691              		.type	_usb_reset, %function
 692              	_usb_reset:
 693              	.LFB134:
 694              		.loc 1 582 0
 695              		.cfi_startproc
 696              		@ args = 0, pretend = 0, frame = 0
 697              		@ frame_needed = 0, uses_anonymous_args = 0
 698              		@ link register save eliminated.
 699              	.LVL54:
 700              		.loc 1 586 0
 701 0000 0022     		movs	r2, #0
 702              		.loc 1 585 0
 703 0002 0221     		movs	r1, #2
 704 0004 0170     		strb	r1, [r0]
 705              		.loc 1 586 0
 706 0006 A0F84C20 		strh	r2, [r0, #76]	@ movhi
 707              		.loc 1 587 0
 708 000a 80F84E20 		strb	r2, [r0, #78]
 709              		.loc 1 588 0
 710 000e 80F84F20 		strb	r2, [r0, #79]
 711              		.loc 1 589 0
 712 0012 0281     		strh	r2, [r0, #8]	@ movhi
 713              		.loc 1 590 0
 714 0014 4281     		strh	r2, [r0, #10]	@ movhi
 715              	.LVL55:
 716              		.loc 1 594 0
 717 0016 C260     		str	r2, [r0, #12]
 718              	.LVL56:
 719 0018 0261     		str	r2, [r0, #16]
 720              	.LVL57:
 721 001a 4261     		str	r2, [r0, #20]
 722              	.LVL58:
 723 001c 8261     		str	r2, [r0, #24]
 724              	.LVL59:
 725              		.loc 1 597 0
 726 001e 80F83420 		strb	r2, [r0, #52]
 727              		.loc 1 600 0
 728 0022 FFF7FEBF 		b	usb_lld_reset
 729              	.LVL60:
 730              		.cfi_endproc
 731              	.LFE134:
 732              		.size	_usb_reset, .-_usb_reset
 733 0026 00BF     		.section	.text._usb_ep0setup,"ax",%progbits
 734              		.align	2
 735              		.p2align 4,,15
 736              		.global	_usb_ep0setup
 737              		.thumb
 738              		.thumb_func
 739              		.type	_usb_ep0setup, %function
 740              	_usb_ep0setup:
 741              	.LFB135:
ARM GAS  /tmp/ccU5jGYi.s 			page 14


 742              		.loc 1 613 0
 743              		.cfi_startproc
 744              		@ args = 0, pretend = 0, frame = 0
 745              		@ frame_needed = 0, uses_anonymous_args = 0
 746              	.LVL61:
 747 0000 F8B5     		push	{r3, r4, r5, r6, r7, lr}
 748              		.cfi_def_cfa_offset 24
 749              		.cfi_offset 3, -24
 750              		.cfi_offset 4, -20
 751              		.cfi_offset 5, -16
 752              		.cfi_offset 6, -12
 753              		.cfi_offset 7, -8
 754              		.cfi_offset 14, -4
 755              		.loc 1 616 0
 756 0002 0023     		movs	r3, #0
 757              		.loc 1 613 0
 758 0004 0446     		mov	r4, r0
 759              		.loc 1 616 0
 760 0006 80F83430 		strb	r3, [r0, #52]
 761              		.loc 1 617 0
 762 000a 00F14402 		add	r2, r0, #68
 763 000e FFF7FEFF 		bl	usb_lld_read_setup
 764              	.LVL62:
 765              		.loc 1 621 0
 766 0012 6368     		ldr	r3, [r4, #4]
 767 0014 9B68     		ldr	r3, [r3, #8]
 768 0016 002B     		cmp	r3, #0
 769 0018 31D0     		beq	.L54
 770              		.loc 1 622 0 discriminator 1
 771 001a 2046     		mov	r0, r4
 772 001c 9847     		blx	r3
 773              	.LVL63:
 774              		.loc 1 621 0 discriminator 1
 775 001e 70B3     		cbz	r0, .L54
 776 0020 E06B     		ldr	r0, [r4, #60]
 777 0022 94F84430 		ldrb	r3, [r4, #68]	@ zero_extendqisi2
 778              	.L99:
 779 0026 B4F84A20 		ldrh	r2, [r4, #74]
 780              	.LVL64:
 781              		.loc 1 648 0
 782 002a 8242     		cmp	r2, r0
 783              		.loc 1 649 0
 784 002c 3CBF     		itt	cc
 785 002e E263     		strcc	r2, [r4, #60]
 786 0030 1046     		movcc	r0, r2
 787              		.loc 1 650 0
 788 0032 1A06     		lsls	r2, r3, #24
 789              	.LVL65:
 790 0034 00F1AB80 		bmi	.L135
 791              		.loc 1 676 0
 792 0038 0028     		cmp	r0, #0
 793 003a 00F08B80 		beq	.L96
 794              	.LBB78:
 795              	.LBB79:
 796              		.loc 1 380 0
 797 003e E368     		ldr	r3, [r4, #12]
 798              	.LBE79:
ARM GAS  /tmp/ccU5jGYi.s 			page 15


 799              	.LBE78:
 800              		.loc 1 679 0
 801 0040 A56B     		ldr	r5, [r4, #56]
 802              	.LVL66:
 803              	.LBB82:
 804              	.LBB80:
 805              		.loc 1 380 0
 806 0042 9B69     		ldr	r3, [r3, #24]
 807              	.LVL67:
 808              		.loc 1 382 0
 809 0044 0022     		movs	r2, #0
 810              	.LBE80:
 811              	.LBE82:
 812              		.loc 1 678 0
 813 0046 0421     		movs	r1, #4
 814 0048 84F83410 		strb	r1, [r4, #52]
 815              	.LBB83:
 816              	.LBB81:
 817              		.loc 1 387 0
 818 004c 1146     		mov	r1, r2
 819              		.loc 1 383 0
 820 004e DD60     		str	r5, [r3, #12]
 821              	.LVL68:
 822              		.loc 1 384 0
 823 0050 5860     		str	r0, [r3, #4]
 824              		.loc 1 382 0
 825 0052 1A70     		strb	r2, [r3]
 826              		.loc 1 385 0
 827 0054 9A60     		str	r2, [r3, #8]
 828              	.LVL69:
 829              	.L132:
 830              		.loc 1 387 0
 831 0056 2046     		mov	r0, r4
 832 0058 FFF7FEFF 		bl	usb_lld_prepare_receive
 833              	.LVL70:
 834              	.LBE81:
 835              	.LBE83:
 836              	.LBB84:
 837              		.loc 1 680 0
 838 005c 2023     		movs	r3, #32
 839              		.syntax unified
 840              	@ 680 "../ChibiOS_2.6.9/os/hal/src/usb.c" 1
 841 005e 83F31188 		msr     BASEPRI, r3
 842              	@ 0 "" 2
 843              	.LVL71:
 844              		.thumb
 845              		.syntax unified
 846              	.LBE84:
 847              	.LBB85:
 848              	.LBB86:
 849              		.loc 1 490 0
 850 0062 6389     		ldrh	r3, [r4, #10]
 851 0064 13F00101 		ands	r1, r3, #1
 852 0068 05D1     		bne	.L98
 853              		.loc 1 493 0
 854 006a 43F00103 		orr	r3, r3, #1
 855 006e 6381     		strh	r3, [r4, #10]	@ movhi
ARM GAS  /tmp/ccU5jGYi.s 			page 16


 856              		.loc 1 494 0
 857 0070 2046     		mov	r0, r4
 858 0072 FFF7FEFF 		bl	usb_lld_start_out
 859              	.LVL72:
 860              	.L98:
 861              	.LBE86:
 862              	.LBE85:
 863              	.LBB87:
 864              		.loc 1 692 0
 865 0076 0023     		movs	r3, #0
 866              		.syntax unified
 867              	@ 692 "../ChibiOS_2.6.9/os/hal/src/usb.c" 1
 868 0078 83F31188 		msr     BASEPRI, r3
 869              	@ 0 "" 2
 870              		.thumb
 871              		.syntax unified
 872 007c F8BD     		pop	{r3, r4, r5, r6, r7, pc}
 873              	.LVL73:
 874              	.L54:
 875              	.LBE87:
 876              		.loc 1 625 0
 877 007e 94F84430 		ldrb	r3, [r4, #68]	@ zero_extendqisi2
 878 0082 13F06007 		ands	r7, r3, #96
 879 0086 1E46     		mov	r6, r3
 880 0088 11D0     		beq	.L136
 881              	.L51:
 882              		.loc 1 630 0
 883 008a 0021     		movs	r1, #0
 884 008c 2046     		mov	r0, r4
 885 008e FFF7FEFF 		bl	usb_lld_stall_in
 886              	.LVL74:
 887              		.loc 1 631 0
 888 0092 0021     		movs	r1, #0
 889 0094 2046     		mov	r0, r4
 890 0096 FFF7FEFF 		bl	usb_lld_stall_out
 891              	.LVL75:
 892              		.loc 1 632 0
 893 009a 6368     		ldr	r3, [r4, #4]
 894 009c 1B68     		ldr	r3, [r3]
 895 009e 13B1     		cbz	r3, .L88
 896              		.loc 1 632 0 is_stmt 0 discriminator 1
 897 00a0 0521     		movs	r1, #5
 898 00a2 2046     		mov	r0, r4
 899 00a4 9847     		blx	r3
 900              	.LVL76:
 901              	.L88:
 902              		.loc 1 633 0 is_stmt 1
 903 00a6 0623     		movs	r3, #6
 904 00a8 84F83430 		strb	r3, [r4, #52]
 905              		.loc 1 634 0
 906 00ac F8BD     		pop	{r3, r4, r5, r6, r7, pc}
 907              	.LVL77:
 908              	.L136:
 909              	.LBB88:
 910              	.LBB89:
 911              		.loc 1 93 0
 912 00ae 94F84500 		ldrb	r0, [r4, #69]	@ zero_extendqisi2
ARM GAS  /tmp/ccU5jGYi.s 			page 17


 913 00b2 03F07F02 		and	r2, r3, #127
 914 00b6 42EA0025 		orr	r5, r2, r0, lsl #8
 915 00ba B5F5407F 		cmp	r5, #768
 916 00be 00F0EB80 		beq	.L56
 917 00c2 16DD     		ble	.L137
 918 00c4 B5F5C06F 		cmp	r5, #1536
 919 00c8 00F0CE80 		beq	.L64
 920 00cc 2FDD     		ble	.L138
 921 00ce B5F5106F 		cmp	r5, #2304
 922 00d2 76D0     		beq	.L68
 923 00d4 40F60242 		movw	r2, #3074
 924 00d8 9542     		cmp	r5, r2
 925 00da 00F0EF80 		beq	.L61
 926 00de B5F5006F 		cmp	r5, #2048
 927 00e2 D2D1     		bne	.L51
 928              		.loc 1 142 0
 929 00e4 04F14F02 		add	r2, r4, #79
 930 00e8 0120     		movs	r0, #1
 931 00ea 2764     		str	r7, [r4, #64]
 932 00ec A263     		str	r2, [r4, #56]
 933 00ee E063     		str	r0, [r4, #60]
 934 00f0 99E7     		b	.L99
 935              	.L137:
 936              		.loc 1 93 0
 937 00f2 022D     		cmp	r5, #2
 938 00f4 00F0A280 		beq	.L58
 939 00f8 40F39780 		ble	.L139
 940 00fc B5F5807F 		cmp	r5, #256
 941 0100 00F08480 		beq	.L62
 942 0104 B5F5817F 		cmp	r5, #258
 943 0108 BFD1     		bne	.L51
 944              		.loc 1 188 0
 945 010a 94F84630 		ldrb	r3, [r4, #70]	@ zero_extendqisi2
 946 010e 002B     		cmp	r3, #0
 947 0110 BBD1     		bne	.L51
 948              		.loc 1 191 0
 949 0112 94F84830 		ldrb	r3, [r4, #72]	@ zero_extendqisi2
 950 0116 13F00F01 		ands	r1, r3, #15
 951 011a 15D0     		beq	.L86
 952              		.loc 1 192 0
 953 011c 1E06     		lsls	r6, r3, #24
 954              		.loc 1 193 0
 955 011e 2046     		mov	r0, r4
 956              		.loc 1 192 0
 957 0120 00F1F480 		bmi	.L140
 958              	.LVL78:
 959              		.loc 1 195 0
 960 0124 FFF7FEFF 		bl	usb_lld_clear_out
 961              	.LVL79:
 962 0128 94F84460 		ldrb	r6, [r4, #68]	@ zero_extendqisi2
 963 012c 0CE0     		b	.L86
 964              	.L138:
 965              		.loc 1 93 0
 966 012e 40F20233 		movw	r3, #770
 967 0132 9D42     		cmp	r5, r3
 968 0134 57D0     		beq	.L66
 969 0136 B5F5A06F 		cmp	r5, #1280
ARM GAS  /tmp/ccU5jGYi.s 			page 18


 970 013a A6D1     		bne	.L51
 971              		.loc 1 123 0
 972 013c B4F84430 		ldrh	r3, [r4, #68]
 973 0140 B3F5A06F 		cmp	r3, #1280
 974 0144 00F0D080 		beq	.L141
 975              	.L86:
 976              		.loc 1 210 0
 977 0148 0023     		movs	r3, #0
 978 014a A363     		str	r3, [r4, #56]
 979 014c E363     		str	r3, [r4, #60]
 980 014e 2364     		str	r3, [r4, #64]
 981              	.L72:
 982              	.LVL80:
 983              	.LBE89:
 984              	.LBE88:
 985              		.loc 1 650 0
 986 0150 3306     		lsls	r3, r6, #24
 987 0152 2AD4     		bmi	.L93
 988              	.LVL81:
 989              	.L96:
 990              	.LBB93:
 991              	.LBB94:
 992              		.loc 1 406 0
 993 0154 E368     		ldr	r3, [r4, #12]
 994 0156 5A69     		ldr	r2, [r3, #20]
 995              	.LBE94:
 996              	.LBE93:
 997              		.loc 1 687 0
 998 0158 0521     		movs	r1, #5
 999              	.LBB97:
 1000              	.LBB95:
 1001              		.loc 1 408 0
 1002 015a 0023     		movs	r3, #0
 1003              	.LBE95:
 1004              	.LBE97:
 1005              		.loc 1 687 0
 1006 015c 84F83410 		strb	r1, [r4, #52]
 1007              	.LVL82:
 1008              	.LBB98:
 1009              	.LBB96:
 1010              		.loc 1 413 0
 1011 0160 1946     		mov	r1, r3
 1012              		.loc 1 408 0
 1013 0162 1370     		strb	r3, [r2]
 1014              		.loc 1 409 0
 1015 0164 D360     		str	r3, [r2, #12]
 1016              		.loc 1 410 0
 1017 0166 5360     		str	r3, [r2, #4]
 1018              		.loc 1 411 0
 1019 0168 9360     		str	r3, [r2, #8]
 1020              	.LVL83:
 1021              	.L133:
 1022              		.loc 1 413 0
 1023 016a 2046     		mov	r0, r4
 1024 016c FFF7FEFF 		bl	usb_lld_prepare_transmit
 1025              	.LVL84:
 1026              	.LBE96:
ARM GAS  /tmp/ccU5jGYi.s 			page 19


 1027              	.LBE98:
 1028              	.LBB99:
 1029              		.loc 1 690 0
 1030 0170 2023     		movs	r3, #32
 1031              		.syntax unified
 1032              	@ 690 "../ChibiOS_2.6.9/os/hal/src/usb.c" 1
 1033 0172 83F31188 		msr     BASEPRI, r3
 1034              	@ 0 "" 2
 1035              	.LVL85:
 1036              		.thumb
 1037              		.syntax unified
 1038              	.LBE99:
 1039              	.LBB100:
 1040              	.LBB101:
 1041              		.loc 1 517 0
 1042 0176 2389     		ldrh	r3, [r4, #8]
 1043 0178 13F00101 		ands	r1, r3, #1
 1044 017c 7FF47BAF 		bne	.L98
 1045              		.loc 1 520 0
 1046 0180 43F00103 		orr	r3, r3, #1
 1047 0184 2381     		strh	r3, [r4, #8]	@ movhi
 1048              		.loc 1 521 0
 1049 0186 2046     		mov	r0, r4
 1050 0188 FFF7FEFF 		bl	usb_lld_start_in
 1051              	.LVL86:
 1052 018c 73E7     		b	.L98
 1053              	.LVL87:
 1054              	.L135:
 1055              	.LBE101:
 1056              	.LBE100:
 1057              		.loc 1 652 0
 1058 018e 60B1     		cbz	r0, .L93
 1059              	.LBB102:
 1060              	.LBB103:
 1061              		.loc 1 406 0
 1062 0190 E368     		ldr	r3, [r4, #12]
 1063              	.LBE103:
 1064              	.LBE102:
 1065              		.loc 1 655 0
 1066 0192 A56B     		ldr	r5, [r4, #56]
 1067              	.LVL88:
 1068              	.LBB106:
 1069              	.LBB104:
 1070              		.loc 1 406 0
 1071 0194 5B69     		ldr	r3, [r3, #20]
 1072              	.LVL89:
 1073              		.loc 1 408 0
 1074 0196 0022     		movs	r2, #0
 1075              	.LBE104:
 1076              	.LBE106:
 1077              		.loc 1 654 0
 1078 0198 0121     		movs	r1, #1
 1079 019a 84F83410 		strb	r1, [r4, #52]
 1080              	.LBB107:
 1081              	.LBB105:
 1082              		.loc 1 413 0
 1083 019e 1146     		mov	r1, r2
ARM GAS  /tmp/ccU5jGYi.s 			page 20


 1084              		.loc 1 409 0
 1085 01a0 DD60     		str	r5, [r3, #12]
 1086              	.LVL90:
 1087              		.loc 1 410 0
 1088 01a2 5860     		str	r0, [r3, #4]
 1089              		.loc 1 408 0
 1090 01a4 1A70     		strb	r2, [r3]
 1091              		.loc 1 411 0
 1092 01a6 9A60     		str	r2, [r3, #8]
 1093 01a8 DFE7     		b	.L133
 1094              	.LVL91:
 1095              	.L93:
 1096              	.LBE105:
 1097              	.LBE107:
 1098              	.LBB108:
 1099              	.LBB109:
 1100              		.loc 1 380 0
 1101 01aa E368     		ldr	r3, [r4, #12]
 1102 01ac 9A69     		ldr	r2, [r3, #24]
 1103              	.LBE109:
 1104              	.LBE108:
 1105              		.loc 1 663 0
 1106 01ae 0321     		movs	r1, #3
 1107              	.LBB112:
 1108              	.LBB110:
 1109              		.loc 1 382 0
 1110 01b0 0023     		movs	r3, #0
 1111              	.LBE110:
 1112              	.LBE112:
 1113              		.loc 1 663 0
 1114 01b2 84F83410 		strb	r1, [r4, #52]
 1115              	.LVL92:
 1116              	.LBB113:
 1117              	.LBB111:
 1118              		.loc 1 387 0
 1119 01b6 1946     		mov	r1, r3
 1120              		.loc 1 382 0
 1121 01b8 1370     		strb	r3, [r2]
 1122              		.loc 1 383 0
 1123 01ba D360     		str	r3, [r2, #12]
 1124              		.loc 1 384 0
 1125 01bc 5360     		str	r3, [r2, #4]
 1126              		.loc 1 385 0
 1127 01be 9360     		str	r3, [r2, #8]
 1128 01c0 49E7     		b	.L132
 1129              	.LVL93:
 1130              	.L68:
 1131              	.LBE111:
 1132              	.LBE113:
 1133              	.LBB114:
 1134              	.LBB92:
 1135              		.loc 1 146 0
 1136 01c2 94F84630 		ldrb	r3, [r4, #70]	@ zero_extendqisi2
 1137 01c6 84F84F30 		strb	r3, [r4, #79]
 1138              		.loc 1 147 0
 1139 01ca 002B     		cmp	r3, #0
 1140 01cc 7DD1     		bne	.L76
ARM GAS  /tmp/ccU5jGYi.s 			page 21


 1141              		.loc 1 148 0
 1142 01ce 0323     		movs	r3, #3
 1143 01d0 2370     		strb	r3, [r4]
 1144              	.L77:
 1145              		.loc 1 151 0
 1146 01d2 6368     		ldr	r3, [r4, #4]
 1147 01d4 1B68     		ldr	r3, [r3]
 1148 01d6 002B     		cmp	r3, #0
 1149 01d8 B6D0     		beq	.L86
 1150 01da 0221     		movs	r1, #2
 1151 01dc 2046     		mov	r0, r4
 1152 01de 9847     		blx	r3
 1153              	.LVL94:
 1154 01e0 94F84460 		ldrb	r6, [r4, #68]	@ zero_extendqisi2
 1155 01e4 B0E7     		b	.L86
 1156              	.L66:
 1157              		.loc 1 201 0
 1158 01e6 94F84630 		ldrb	r3, [r4, #70]	@ zero_extendqisi2
 1159 01ea 002B     		cmp	r3, #0
 1160 01ec 7FF44DAF 		bne	.L51
 1161              		.loc 1 204 0
 1162 01f0 94F84830 		ldrb	r3, [r4, #72]	@ zero_extendqisi2
 1163 01f4 13F00F01 		ands	r1, r3, #15
 1164 01f8 A6D0     		beq	.L86
 1165              		.loc 1 205 0
 1166 01fa 1D06     		lsls	r5, r3, #24
 1167              		.loc 1 206 0
 1168 01fc 2046     		mov	r0, r4
 1169              		.loc 1 205 0
 1170 01fe 00F18A80 		bmi	.L142
 1171              	.LVL95:
 1172              		.loc 1 208 0
 1173 0202 FFF7FEFF 		bl	usb_lld_stall_out
 1174              	.LVL96:
 1175 0206 94F84460 		ldrb	r6, [r4, #68]	@ zero_extendqisi2
 1176 020a 9DE7     		b	.L86
 1177              	.L62:
 1178              		.loc 1 103 0
 1179 020c 94F84630 		ldrb	r3, [r4, #70]	@ zero_extendqisi2
 1180 0210 012B     		cmp	r3, #1
 1181 0212 7FF43AAF 		bne	.L51
 1182              		.loc 1 104 0
 1183 0216 B4F84C30 		ldrh	r3, [r4, #76]
 1184              		.loc 1 105 0
 1185 021a A763     		str	r7, [r4, #56]
 1186              		.loc 1 104 0
 1187 021c 23F00203 		bic	r3, r3, #2
 1188              		.loc 1 105 0
 1189 0220 E763     		str	r7, [r4, #60]
 1190 0222 2764     		str	r7, [r4, #64]
 1191              		.loc 1 104 0
 1192 0224 A4F84C30 		strh	r3, [r4, #76]	@ movhi
 1193 0228 92E7     		b	.L72
 1194              	.L139:
 1195              		.loc 1 93 0
 1196 022a 002D     		cmp	r5, #0
 1197 022c 43D1     		bne	.L143
ARM GAS  /tmp/ccU5jGYi.s 			page 22


 1198              		.loc 1 98 0
 1199 022e 04F14C02 		add	r2, r4, #76
 1200 0232 0220     		movs	r0, #2
 1201 0234 2564     		str	r5, [r4, #64]
 1202 0236 A263     		str	r2, [r4, #56]
 1203 0238 E063     		str	r0, [r4, #60]
 1204 023a F4E6     		b	.L99
 1205              	.L58:
 1206              		.loc 1 162 0
 1207 023c 94F84810 		ldrb	r1, [r4, #72]	@ zero_extendqisi2
 1208 0240 11F0800F 		tst	r1, #128
 1209              		.loc 1 163 0
 1210 0244 2046     		mov	r0, r4
 1211 0246 01F00F01 		and	r1, r1, #15
 1212              		.loc 1 162 0
 1213 024a 41D1     		bne	.L144
 1214              	.LVL97:
 1215              		.loc 1 175 0
 1216 024c FFF7FEFF 		bl	usb_lld_get_status_out
 1217              	.LVL98:
 1218 0250 0128     		cmp	r0, #1
 1219 0252 41D0     		beq	.L82
 1220              	.L129:
 1221 0254 0228     		cmp	r0, #2
 1222 0256 7FF418AF 		bne	.L51
 1223              		.loc 1 180 0
 1224 025a 314B     		ldr	r3, .L145
 1225 025c A363     		str	r3, [r4, #56]
 1226 025e E063     		str	r0, [r4, #60]
 1227 0260 2764     		str	r7, [r4, #64]
 1228 0262 94F84430 		ldrb	r3, [r4, #68]	@ zero_extendqisi2
 1229 0266 DEE6     		b	.L99
 1230              	.L64:
 1231              		.loc 1 133 0
 1232 0268 94F84900 		ldrb	r0, [r4, #73]	@ zero_extendqisi2
 1233 026c 6168     		ldr	r1, [r4, #4]
 1234 026e 94F84830 		ldrb	r3, [r4, #72]	@ zero_extendqisi2
 1235 0272 4D68     		ldr	r5, [r1, #4]
 1236 0274 94F84620 		ldrb	r2, [r4, #70]	@ zero_extendqisi2
 1237 0278 94F84710 		ldrb	r1, [r4, #71]	@ zero_extendqisi2
 1238 027c 43EA0023 		orr	r3, r3, r0, lsl #8
 1239 0280 2046     		mov	r0, r4
 1240 0282 A847     		blx	r5
 1241              	.LVL99:
 1242              		.loc 1 136 0
 1243 0284 0028     		cmp	r0, #0
 1244 0286 3FF400AF 		beq	.L51
 1245              		.loc 1 138 0
 1246 028a 09C8     		ldmia	r0, {r0, r3}
 1247              	.LVL100:
 1248 028c 2764     		str	r7, [r4, #64]
 1249 028e A363     		str	r3, [r4, #56]
 1250 0290 E063     		str	r0, [r4, #60]
 1251 0292 94F84430 		ldrb	r3, [r4, #68]	@ zero_extendqisi2
 1252 0296 C6E6     		b	.L99
 1253              	.L56:
 1254              		.loc 1 112 0
ARM GAS  /tmp/ccU5jGYi.s 			page 23


 1255 0298 94F84630 		ldrb	r3, [r4, #70]	@ zero_extendqisi2
 1256 029c 012B     		cmp	r3, #1
 1257 029e 7FF4F4AE 		bne	.L51
 1258              		.loc 1 113 0
 1259 02a2 B4F84C30 		ldrh	r3, [r4, #76]
 1260              		.loc 1 114 0
 1261 02a6 A763     		str	r7, [r4, #56]
 1262              		.loc 1 113 0
 1263 02a8 43F00203 		orr	r3, r3, #2
 1264              		.loc 1 114 0
 1265 02ac E763     		str	r7, [r4, #60]
 1266 02ae 2764     		str	r7, [r4, #64]
 1267              		.loc 1 113 0
 1268 02b0 A4F84C30 		strh	r3, [r4, #76]	@ movhi
 1269 02b4 4CE7     		b	.L72
 1270              	.L143:
 1271              		.loc 1 93 0
 1272 02b6 012D     		cmp	r5, #1
 1273 02b8 7FF4E7AE 		bne	.L51
 1274              	.L61:
 1275              		.loc 1 158 0
 1276 02bc 194A     		ldr	r2, .L145+4
 1277 02be A263     		str	r2, [r4, #56]
 1278 02c0 0220     		movs	r0, #2
 1279 02c2 0022     		movs	r2, #0
 1280 02c4 E063     		str	r0, [r4, #60]
 1281 02c6 2264     		str	r2, [r4, #64]
 1282 02c8 ADE6     		b	.L99
 1283              	.L76:
 1284              		.loc 1 150 0
 1285 02ca 0423     		movs	r3, #4
 1286 02cc 2370     		strb	r3, [r4]
 1287 02ce 80E7     		b	.L77
 1288              	.LVL101:
 1289              	.L144:
 1290              		.loc 1 163 0
 1291 02d0 FFF7FEFF 		bl	usb_lld_get_status_in
 1292              	.LVL102:
 1293 02d4 0128     		cmp	r0, #1
 1294 02d6 BDD1     		bne	.L129
 1295              	.L82:
 1296              		.loc 1 177 0
 1297 02d8 134B     		ldr	r3, .L145+8
 1298 02da A363     		str	r3, [r4, #56]
 1299 02dc E563     		str	r5, [r4, #60]
 1300 02de 2764     		str	r7, [r4, #64]
 1301 02e0 2846     		mov	r0, r5
 1302 02e2 94F84430 		ldrb	r3, [r4, #68]	@ zero_extendqisi2
 1303 02e6 9EE6     		b	.L99
 1304              	.L141:
 1305              	.LVL103:
 1306              	.LBB90:
 1307              	.LBB91:
 1308              		.loc 1 71 0
 1309 02e8 94F84630 		ldrb	r3, [r4, #70]	@ zero_extendqisi2
 1310 02ec 84F84E30 		strb	r3, [r4, #78]
 1311              		.loc 1 72 0
ARM GAS  /tmp/ccU5jGYi.s 			page 24


 1312 02f0 2046     		mov	r0, r4
 1313 02f2 FFF7FEFF 		bl	usb_lld_set_address
 1314              	.LVL104:
 1315              		.loc 1 73 0
 1316 02f6 6368     		ldr	r3, [r4, #4]
 1317 02f8 1B68     		ldr	r3, [r3]
 1318 02fa 13B1     		cbz	r3, .L75
 1319 02fc 0121     		movs	r1, #1
 1320 02fe 2046     		mov	r0, r4
 1321 0300 9847     		blx	r3
 1322              	.LVL105:
 1323              	.L75:
 1324              		.loc 1 74 0
 1325 0302 0323     		movs	r3, #3
 1326 0304 94F84460 		ldrb	r6, [r4, #68]	@ zero_extendqisi2
 1327 0308 2370     		strb	r3, [r4]
 1328 030a 1DE7     		b	.L86
 1329              	.LVL106:
 1330              	.L140:
 1331              	.LBE91:
 1332              	.LBE90:
 1333              		.loc 1 193 0
 1334 030c FFF7FEFF 		bl	usb_lld_clear_in
 1335              	.LVL107:
 1336 0310 94F84460 		ldrb	r6, [r4, #68]	@ zero_extendqisi2
 1337 0314 18E7     		b	.L86
 1338              	.LVL108:
 1339              	.L142:
 1340              		.loc 1 206 0
 1341 0316 FFF7FEFF 		bl	usb_lld_stall_in
 1342              	.LVL109:
 1343 031a 94F84460 		ldrb	r6, [r4, #68]	@ zero_extendqisi2
 1344 031e 13E7     		b	.L86
 1345              	.L146:
 1346              		.align	2
 1347              	.L145:
 1348 0320 00000000 		.word	.LANCHOR2
 1349 0324 00000000 		.word	.LANCHOR0
 1350 0328 00000000 		.word	.LANCHOR1
 1351              	.LBE92:
 1352              	.LBE114:
 1353              		.cfi_endproc
 1354              	.LFE135:
 1355              		.size	_usb_ep0setup, .-_usb_ep0setup
 1356              		.section	.text._usb_ep0in,"ax",%progbits
 1357              		.align	2
 1358              		.p2align 4,,15
 1359              		.global	_usb_ep0in
 1360              		.thumb
 1361              		.thumb_func
 1362              		.type	_usb_ep0in, %function
 1363              	_usb_ep0in:
 1364              	.LFB136:
 1365              		.loc 1 710 0
 1366              		.cfi_startproc
 1367              		@ args = 0, pretend = 0, frame = 0
 1368              		@ frame_needed = 0, uses_anonymous_args = 0
ARM GAS  /tmp/ccU5jGYi.s 			page 25


 1369              	.LVL110:
 1370 0000 38B5     		push	{r3, r4, r5, lr}
 1371              		.cfi_def_cfa_offset 16
 1372              		.cfi_offset 3, -16
 1373              		.cfi_offset 4, -12
 1374              		.cfi_offset 5, -8
 1375              		.cfi_offset 14, -4
 1376              		.loc 1 714 0
 1377 0002 90F83430 		ldrb	r3, [r0, #52]	@ zero_extendqisi2
 1378 0006 022B     		cmp	r3, #2
 1379              		.loc 1 710 0
 1380 0008 0446     		mov	r4, r0
 1381              		.loc 1 714 0
 1382 000a 3FD0     		beq	.L149
 1383 000c 052B     		cmp	r3, #5
 1384 000e 36D0     		beq	.L150
 1385 0010 012B     		cmp	r3, #1
 1386 0012 10D0     		beq	.L167
 1387              		.loc 1 753 0
 1388 0014 0021     		movs	r1, #0
 1389              	.LVL111:
 1390 0016 FFF7FEFF 		bl	usb_lld_stall_in
 1391              	.LVL112:
 1392              		.loc 1 754 0
 1393 001a 0021     		movs	r1, #0
 1394 001c 2046     		mov	r0, r4
 1395 001e FFF7FEFF 		bl	usb_lld_stall_out
 1396              	.LVL113:
 1397              		.loc 1 755 0
 1398 0022 6368     		ldr	r3, [r4, #4]
 1399 0024 1B68     		ldr	r3, [r3]
 1400 0026 13B1     		cbz	r3, .L158
 1401              		.loc 1 755 0 is_stmt 0 discriminator 1
 1402 0028 0521     		movs	r1, #5
 1403 002a 2046     		mov	r0, r4
 1404 002c 9847     		blx	r3
 1405              	.LVL114:
 1406              	.L158:
 1407              		.loc 1 756 0 is_stmt 1
 1408 002e 0623     		movs	r3, #6
 1409 0030 84F83430 		strb	r3, [r4, #52]
 1410 0034 38BD     		pop	{r3, r4, r5, pc}
 1411              	.LVL115:
 1412              	.L167:
 1413 0036 B0F84A30 		ldrh	r3, [r0, #74]
 1414              	.LVL116:
 1415              		.loc 1 720 0
 1416 003a C26B     		ldr	r2, [r0, #60]
 1417 003c 9342     		cmp	r3, r2
 1418 003e C368     		ldr	r3, [r0, #12]
 1419              	.LVL117:
 1420 0040 26D8     		bhi	.L168
 1421              	.LVL118:
 1422              	.L153:
 1423              	.LBB115:
 1424              	.LBB116:
 1425              		.loc 1 380 0
ARM GAS  /tmp/ccU5jGYi.s 			page 26


 1426 0042 9A69     		ldr	r2, [r3, #24]
 1427              	.LBE116:
 1428              	.LBE115:
 1429              		.loc 1 731 0
 1430 0044 0321     		movs	r1, #3
 1431              	.LBB119:
 1432              	.LBB117:
 1433              		.loc 1 382 0
 1434 0046 0023     		movs	r3, #0
 1435              	.LBE117:
 1436              	.LBE119:
 1437              		.loc 1 731 0
 1438 0048 84F83410 		strb	r1, [r4, #52]
 1439              	.LVL119:
 1440              	.LBB120:
 1441              	.LBB118:
 1442              		.loc 1 387 0
 1443 004c 2046     		mov	r0, r4
 1444              	.LVL120:
 1445 004e 1946     		mov	r1, r3
 1446              		.loc 1 382 0
 1447 0050 1370     		strb	r3, [r2]
 1448              		.loc 1 383 0
 1449 0052 D360     		str	r3, [r2, #12]
 1450              		.loc 1 384 0
 1451 0054 5360     		str	r3, [r2, #4]
 1452              		.loc 1 385 0
 1453 0056 9360     		str	r3, [r2, #8]
 1454              		.loc 1 387 0
 1455 0058 FFF7FEFF 		bl	usb_lld_prepare_receive
 1456              	.LVL121:
 1457              	.LBE118:
 1458              	.LBE120:
 1459              	.LBB121:
 1460              		.loc 1 734 0
 1461 005c 2023     		movs	r3, #32
 1462              		.syntax unified
 1463              	@ 734 "../ChibiOS_2.6.9/os/hal/src/usb.c" 1
 1464 005e 83F31188 		msr     BASEPRI, r3
 1465              	@ 0 "" 2
 1466              	.LVL122:
 1467              		.thumb
 1468              		.syntax unified
 1469              	.LBE121:
 1470              	.LBB122:
 1471              	.LBB123:
 1472              		.loc 1 490 0
 1473 0062 6389     		ldrh	r3, [r4, #10]
 1474 0064 13F00101 		ands	r1, r3, #1
 1475 0068 05D1     		bne	.L156
 1476              		.loc 1 493 0
 1477 006a 43F00103 		orr	r3, r3, #1
 1478 006e 6381     		strh	r3, [r4, #10]	@ movhi
 1479              		.loc 1 494 0
 1480 0070 2046     		mov	r0, r4
 1481 0072 FFF7FEFF 		bl	usb_lld_start_out
 1482              	.LVL123:
ARM GAS  /tmp/ccU5jGYi.s 			page 27


 1483              	.L156:
 1484              	.LBE123:
 1485              	.LBE122:
 1486              	.LBB124:
 1487              		.loc 1 736 0
 1488 0076 0023     		movs	r3, #0
 1489              		.syntax unified
 1490              	@ 736 "../ChibiOS_2.6.9/os/hal/src/usb.c" 1
 1491 0078 83F31188 		msr     BASEPRI, r3
 1492              	@ 0 "" 2
 1493              		.thumb
 1494              		.syntax unified
 1495              	.LBE124:
 1496              		.loc 1 740 0
 1497 007c 38BD     		pop	{r3, r4, r5, pc}
 1498              	.LVL124:
 1499              	.L150:
 1500              		.loc 1 743 0
 1501 007e 036C     		ldr	r3, [r0, #64]
 1502 0080 03B1     		cbz	r3, .L157
 1503              		.loc 1 744 0
 1504 0082 9847     		blx	r3
 1505              	.LVL125:
 1506              	.L157:
 1507              		.loc 1 745 0
 1508 0084 0023     		movs	r3, #0
 1509 0086 84F83430 		strb	r3, [r4, #52]
 1510              		.loc 1 746 0
 1511 008a 38BD     		pop	{r3, r4, r5, pc}
 1512              	.LVL126:
 1513              	.L149:
 1514 008c C368     		ldr	r3, [r0, #12]
 1515 008e D8E7     		b	.L153
 1516              	.LVL127:
 1517              	.L168:
 1518              		.loc 1 720 0 discriminator 1
 1519 0090 1D8A     		ldrh	r5, [r3, #16]
 1520 0092 B2FBF5F1 		udiv	r1, r2, r5
 1521              	.LVL128:
 1522 0096 05FB1122 		mls	r2, r5, r1, r2
 1523 009a 002A     		cmp	r2, #0
 1524 009c D1D1     		bne	.L153
 1525              	.LVL129:
 1526              	.LBB125:
 1527              	.LBB126:
 1528              		.loc 1 406 0
 1529 009e 5B69     		ldr	r3, [r3, #20]
 1530              	.LVL130:
 1531              		.loc 1 413 0
 1532 00a0 1146     		mov	r1, r2
 1533              		.loc 1 408 0
 1534 00a2 1A70     		strb	r2, [r3]
 1535              	.LVL131:
 1536              		.loc 1 409 0
 1537 00a4 DA60     		str	r2, [r3, #12]
 1538              		.loc 1 410 0
 1539 00a6 5A60     		str	r2, [r3, #4]
ARM GAS  /tmp/ccU5jGYi.s 			page 28


 1540              		.loc 1 411 0
 1541 00a8 9A60     		str	r2, [r3, #8]
 1542              		.loc 1 413 0
 1543 00aa FFF7FEFF 		bl	usb_lld_prepare_transmit
 1544              	.LVL132:
 1545              	.LBE126:
 1546              	.LBE125:
 1547              	.LBB127:
 1548              		.loc 1 722 0
 1549 00ae 2023     		movs	r3, #32
 1550              		.syntax unified
 1551              	@ 722 "../ChibiOS_2.6.9/os/hal/src/usb.c" 1
 1552 00b0 83F31188 		msr     BASEPRI, r3
 1553              	@ 0 "" 2
 1554              	.LVL133:
 1555              		.thumb
 1556              		.syntax unified
 1557              	.LBE127:
 1558              	.LBB128:
 1559              	.LBB129:
 1560              		.loc 1 517 0
 1561 00b4 2389     		ldrh	r3, [r4, #8]
 1562 00b6 13F00101 		ands	r1, r3, #1
 1563 00ba 05D1     		bne	.L154
 1564              		.loc 1 520 0
 1565 00bc 43F00103 		orr	r3, r3, #1
 1566 00c0 2381     		strh	r3, [r4, #8]	@ movhi
 1567              		.loc 1 521 0
 1568 00c2 2046     		mov	r0, r4
 1569 00c4 FFF7FEFF 		bl	usb_lld_start_in
 1570              	.LVL134:
 1571              	.L154:
 1572              	.LBE129:
 1573              	.LBE128:
 1574              	.LBB130:
 1575              		.loc 1 724 0
 1576 00c8 0023     		movs	r3, #0
 1577              		.syntax unified
 1578              	@ 724 "../ChibiOS_2.6.9/os/hal/src/usb.c" 1
 1579 00ca 83F31188 		msr     BASEPRI, r3
 1580              	@ 0 "" 2
 1581              		.thumb
 1582              		.syntax unified
 1583              	.LBE130:
 1584              		.loc 1 725 0
 1585 00ce 0223     		movs	r3, #2
 1586 00d0 84F83430 		strb	r3, [r4, #52]
 1587              		.loc 1 726 0
 1588 00d4 38BD     		pop	{r3, r4, r5, pc}
 1589              		.cfi_endproc
 1590              	.LFE136:
 1591              		.size	_usb_ep0in, .-_usb_ep0in
 1592 00d6 00BF     		.section	.text._usb_ep0out,"ax",%progbits
 1593              		.align	2
 1594              		.p2align 4,,15
 1595              		.global	_usb_ep0out
 1596              		.thumb
ARM GAS  /tmp/ccU5jGYi.s 			page 29


 1597              		.thumb_func
 1598              		.type	_usb_ep0out, %function
 1599              	_usb_ep0out:
 1600              	.LFB137:
 1601              		.loc 1 769 0
 1602              		.cfi_startproc
 1603              		@ args = 0, pretend = 0, frame = 0
 1604              		@ frame_needed = 0, uses_anonymous_args = 0
 1605              	.LVL135:
 1606              		.loc 1 772 0
 1607 0000 90F83430 		ldrb	r3, [r0, #52]	@ zero_extendqisi2
 1608 0004 032B     		cmp	r3, #3
 1609              		.loc 1 769 0
 1610 0006 10B5     		push	{r4, lr}
 1611              		.cfi_def_cfa_offset 8
 1612              		.cfi_offset 4, -8
 1613              		.cfi_offset 14, -4
 1614              		.loc 1 769 0
 1615 0008 0446     		mov	r4, r0
 1616              		.loc 1 772 0
 1617 000a 1FD0     		beq	.L171
 1618 000c 042B     		cmp	r3, #4
 1619 000e 21D1     		bne	.L170
 1620              	.LBB131:
 1621              	.LBB132:
 1622              		.loc 1 406 0
 1623 0010 C368     		ldr	r3, [r0, #12]
 1624 0012 5A69     		ldr	r2, [r3, #20]
 1625              	.LBE132:
 1626              	.LBE131:
 1627              		.loc 1 775 0
 1628 0014 0521     		movs	r1, #5
 1629              	.LVL136:
 1630              	.LBB135:
 1631              	.LBB133:
 1632              		.loc 1 408 0
 1633 0016 0023     		movs	r3, #0
 1634              	.LBE133:
 1635              	.LBE135:
 1636              		.loc 1 775 0
 1637 0018 80F83410 		strb	r1, [r0, #52]
 1638              	.LVL137:
 1639              	.LBB136:
 1640              	.LBB134:
 1641              		.loc 1 413 0
 1642 001c 1946     		mov	r1, r3
 1643              		.loc 1 408 0
 1644 001e 1370     		strb	r3, [r2]
 1645              		.loc 1 409 0
 1646 0020 D360     		str	r3, [r2, #12]
 1647              		.loc 1 410 0
 1648 0022 5360     		str	r3, [r2, #4]
 1649              		.loc 1 411 0
 1650 0024 9360     		str	r3, [r2, #8]
 1651              		.loc 1 413 0
 1652 0026 FFF7FEFF 		bl	usb_lld_prepare_transmit
 1653              	.LVL138:
ARM GAS  /tmp/ccU5jGYi.s 			page 30


 1654              	.LBE134:
 1655              	.LBE136:
 1656              	.LBB137:
 1657              		.loc 1 778 0
 1658 002a 2023     		movs	r3, #32
 1659              		.syntax unified
 1660              	@ 778 "../ChibiOS_2.6.9/os/hal/src/usb.c" 1
 1661 002c 83F31188 		msr     BASEPRI, r3
 1662              	@ 0 "" 2
 1663              	.LVL139:
 1664              		.thumb
 1665              		.syntax unified
 1666              	.LBE137:
 1667              	.LBB138:
 1668              	.LBB139:
 1669              		.loc 1 517 0
 1670 0030 2389     		ldrh	r3, [r4, #8]
 1671 0032 13F00101 		ands	r1, r3, #1
 1672 0036 05D1     		bne	.L173
 1673              		.loc 1 520 0
 1674 0038 43F00103 		orr	r3, r3, #1
 1675 003c 2381     		strh	r3, [r4, #8]	@ movhi
 1676              		.loc 1 521 0
 1677 003e 2046     		mov	r0, r4
 1678 0040 FFF7FEFF 		bl	usb_lld_start_in
 1679              	.LVL140:
 1680              	.L173:
 1681              	.LBE139:
 1682              	.LBE138:
 1683              	.LBB140:
 1684              		.loc 1 780 0
 1685 0044 0023     		movs	r3, #0
 1686              		.syntax unified
 1687              	@ 780 "../ChibiOS_2.6.9/os/hal/src/usb.c" 1
 1688 0046 83F31188 		msr     BASEPRI, r3
 1689              	@ 0 "" 2
 1690              		.thumb
 1691              		.syntax unified
 1692              	.LBE140:
 1693              		.loc 1 784 0
 1694 004a 10BD     		pop	{r4, pc}
 1695              	.LVL141:
 1696              	.L171:
 1697              		.loc 1 789 0
 1698 004c C368     		ldr	r3, [r0, #12]
 1699 004e 9B69     		ldr	r3, [r3, #24]
 1700 0050 9B68     		ldr	r3, [r3, #8]
 1701 0052 8BB1     		cbz	r3, .L184
 1702              	.L170:
 1703              		.loc 1 802 0
 1704 0054 0021     		movs	r1, #0
 1705              	.LVL142:
 1706 0056 2046     		mov	r0, r4
 1707              	.LVL143:
 1708 0058 FFF7FEFF 		bl	usb_lld_stall_in
 1709              	.LVL144:
 1710              		.loc 1 803 0
ARM GAS  /tmp/ccU5jGYi.s 			page 31


 1711 005c 0021     		movs	r1, #0
 1712 005e 2046     		mov	r0, r4
 1713 0060 FFF7FEFF 		bl	usb_lld_stall_out
 1714              	.LVL145:
 1715              		.loc 1 804 0
 1716 0064 6368     		ldr	r3, [r4, #4]
 1717 0066 1B68     		ldr	r3, [r3]
 1718 0068 13B1     		cbz	r3, .L176
 1719              		.loc 1 804 0 is_stmt 0 discriminator 1
 1720 006a 0521     		movs	r1, #5
 1721 006c 2046     		mov	r0, r4
 1722 006e 9847     		blx	r3
 1723              	.LVL146:
 1724              	.L176:
 1725              		.loc 1 805 0 is_stmt 1
 1726 0070 0623     		movs	r3, #6
 1727 0072 84F83430 		strb	r3, [r4, #52]
 1728 0076 10BD     		pop	{r4, pc}
 1729              	.LVL147:
 1730              	.L184:
 1731              		.loc 1 792 0
 1732 0078 036C     		ldr	r3, [r0, #64]
 1733 007a 03B1     		cbz	r3, .L175
 1734              		.loc 1 793 0
 1735 007c 9847     		blx	r3
 1736              	.LVL148:
 1737              	.L175:
 1738              		.loc 1 794 0
 1739 007e 0023     		movs	r3, #0
 1740 0080 84F83430 		strb	r3, [r4, #52]
 1741              		.loc 1 795 0
 1742 0084 10BD     		pop	{r4, pc}
 1743              		.cfi_endproc
 1744              	.LFE137:
 1745              		.size	_usb_ep0out, .-_usb_ep0out
 1746 0086 00BF     		.section	.rodata.zero_status,"a",%progbits
 1747              		.align	2
 1748              		.set	.LANCHOR0,. + 0
 1749              		.type	zero_status, %object
 1750              		.size	zero_status, 2
 1751              	zero_status:
 1752 0000 0000     		.space	2
 1753              		.section	.rodata.active_status,"a",%progbits
 1754              		.align	2
 1755              		.set	.LANCHOR2,. + 0
 1756              		.type	active_status, %object
 1757              		.size	active_status, 2
 1758              	active_status:
 1759 0000 0000     		.space	2
 1760              		.section	.rodata.halted_status,"a",%progbits
 1761              		.align	2
 1762              		.set	.LANCHOR1,. + 0
 1763              		.type	halted_status, %object
 1764              		.size	halted_status, 2
 1765              	halted_status:
 1766 0000 01       		.byte	1
 1767 0001 00       		.byte	0
ARM GAS  /tmp/ccU5jGYi.s 			page 32


 1768              		.text
 1769              	.Letext0:
 1770              		.file 2 "/usr/local/gcc-arm-none-eabi-5_4-2016q3/lib/gcc/arm-none-eabi/5.4.1/include/stddef.h"
 1771              		.file 3 "/usr/local/gcc-arm-none-eabi-5_4-2016q3/arm-none-eabi/include/machine/_default_types.h"
 1772              		.file 4 "/usr/local/gcc-arm-none-eabi-5_4-2016q3/arm-none-eabi/include/sys/_stdint.h"
 1773              		.file 5 "../ChibiOS_2.6.9/os/ports/GCC/ARMCMx/chtypes.h"
 1774              		.file 6 "../ChibiOS_2.6.9/os/kernel/include/chlists.h"
 1775              		.file 7 "../ChibiOS_2.6.9/os/kernel/include/chthreads.h"
 1776              		.file 8 "../ChibiOS_2.6.9/os/ports/GCC/ARMCMx/chcore_v7m.h"
 1777              		.file 9 "../ChibiOS_2.6.9/os/kernel/include/chmtx.h"
 1778              		.file 10 "../ChibiOS_2.6.9/os/kernel/include/chqueues.h"
 1779              		.file 11 "../ChibiOS_2.6.9/os/hal/include/usb.h"
 1780              		.file 12 "../ChibiOS_2.6.9/os/hal/platforms/STM32/OTGv1/usb_lld.h"
 1781              		.file 13 "../ChibiOS_2.6.9/os/hal/platforms/STM32/OTGv1/stm32_otg.h"
 1782              		.file 14 "../ChibiOS_2.6.9/os/ports/common/ARMCMx/CMSIS/include/core_cm4.h"