ARM GAS  /tmp/ccNA7Kai.s 			page 1


   1              		.syntax unified
   2              		.cpu cortex-m4
   3              		.fpu softvfp
   4              		.eabi_attribute 20, 1
   5              		.eabi_attribute 21, 1
   6              		.eabi_attribute 23, 3
   7              		.eabi_attribute 24, 1
   8              		.eabi_attribute 25, 1
   9              		.eabi_attribute 26, 1
  10              		.eabi_attribute 30, 2
  11              		.eabi_attribute 34, 1
  12              		.eabi_attribute 18, 4
  13              		.thumb
  14              		.syntax unified
  15              		.file	"usb_lld.c"
  16              		.text
  17              	.Ltext0:
  18              		.cfi_sections	.debug_frame
  19              		.section	.text.usb_lld_pump,"ax",%progbits
  20              		.align	2
  21              		.p2align 4,,15
  22              		.thumb
  23              		.thumb_func
  24              		.type	usb_lld_pump, %function
  25              	usb_lld_pump:
  26              	.LFB136:
  27              		.file 1 "../ChibiOS_2.6.9/os/hal/platforms/STM32/OTGv1/usb_lld.c"
  28              		.loc 1 715 0
  29              		.cfi_startproc
  30              		@ args = 0, pretend = 0, frame = 16
  31              		@ frame_needed = 0, uses_anonymous_args = 0
  32              	.LVL0:
  33 0000 2DE9F04F 		push	{r4, r5, r6, r7, r8, r9, r10, fp, lr}
  34              		.cfi_def_cfa_offset 36
  35              		.cfi_offset 4, -36
  36              		.cfi_offset 5, -32
  37              		.cfi_offset 6, -28
  38              		.cfi_offset 7, -24
  39              		.cfi_offset 8, -20
  40              		.cfi_offset 9, -16
  41              		.cfi_offset 10, -12
  42              		.cfi_offset 11, -8
  43              		.cfi_offset 14, -4
  44              		.loc 1 719 0
  45 0004 B24B     		ldr	r3, .L113
  46 0006 B349     		ldr	r1, .L113+4
  47 0008 9A69     		ldr	r2, [r3, #24]
  48              		.loc 1 717 0
  49 000a D0F85090 		ldr	r9, [r0, #80]
  50              		.loc 1 719 0
  51 000e 9161     		str	r1, [r2, #24]
  52              		.loc 1 715 0
  53 0010 85B0     		sub	sp, sp, #20
  54              		.cfi_def_cfa_offset 56
  55              		.loc 1 715 0
  56 0012 8346     		mov	fp, r0
  57              	.LVL1:
ARM GAS  /tmp/ccNA7Kai.s 			page 2


  58              	.LBB127:
  59              		.loc 1 720 0
  60 0014 2023     		movs	r3, #32
  61              		.syntax unified
  62              	@ 720 "../ChibiOS_2.6.9/os/hal/platforms/STM32/OTGv1/usb_lld.c" 1
  63 0016 83F31188 		msr     BASEPRI, r3
  64              	@ 0 "" 2
  65              		.thumb
  66              		.syntax unified
  67              	.LBE127:
  68              	.LBB128:
  69              	.LBB129:
  70              		.loc 1 732 0
  71 001a 0026     		movs	r6, #0
  72 001c CDF80090 		str	r9, [sp]
  73              	.LVL2:
  74              	.L62:
  75              	.LBE129:
  76              		.loc 1 726 0
  77 0020 9BF80030 		ldrb	r3, [fp]	@ zero_extendqisi2
  78 0024 012B     		cmp	r3, #1
  79 0026 06D0     		beq	.L2
  80              		.loc 1 726 0 is_stmt 0 discriminator 1
  81 0028 DBF85C30 		ldr	r3, [fp, #92]
  82 002c 7BB9     		cbnz	r3, .L3
  83              		.loc 1 727 0 is_stmt 1
  84 002e 009B     		ldr	r3, [sp]
  85 0030 5B69     		ldr	r3, [r3, #20]
  86 0032 DB06     		lsls	r3, r3, #27
  87 0034 0BD4     		bmi	.L3
  88              	.L2:
  89              		.loc 1 728 0
  90 0036 0099     		ldr	r1, [sp]
  91              		.loc 1 729 0
  92 0038 A54A     		ldr	r2, .L113
  93              		.loc 1 728 0
  94 003a 8B69     		ldr	r3, [r1, #24]
  95              		.loc 1 729 0
  96 003c 9269     		ldr	r2, [r2, #24]
  97              		.loc 1 728 0
  98 003e 43F01003 		orr	r3, r3, #16
  99 0042 8B61     		str	r3, [r1, #24]
 100              		.loc 1 730 0
 101 0044 0220     		movs	r0, #2
 102              		.loc 1 729 0
 103 0046 CBF86420 		str	r2, [fp, #100]
 104              		.loc 1 730 0
 105 004a FFF7FEFF 		bl	chSchGoSleepS
 106              	.LVL3:
 107              	.L3:
 108              	.LBB130:
 109              		.loc 1 732 0
 110 004e 0023     		movs	r3, #0
 111              		.syntax unified
 112              	@ 732 "../ChibiOS_2.6.9/os/hal/platforms/STM32/OTGv1/usb_lld.c" 1
 113 0050 83F31188 		msr     BASEPRI, r3
 114              	@ 0 "" 2
ARM GAS  /tmp/ccNA7Kai.s 			page 3


 115              	.LVL4:
 116              		.thumb
 117              		.syntax unified
 118 0054 9A46     		mov	r10, r3
 119              	.LVL5:
 120              	.L5:
 121              	.LBE130:
 122              		.loc 1 738 0
 123 0056 009B     		ldr	r3, [sp]
 124 0058 5B69     		ldr	r3, [r3, #20]
 125 005a 13F01002 		ands	r2, r3, #16
 126 005e 24D0     		beq	.L108
 127              	.L29:
 128              	.LVL6:
 129              	.LBB131:
 130              	.LBB132:
 131              		.loc 1 455 0
 132 0060 DBF85000 		ldr	r0, [fp, #80]
 133 0064 036A     		ldr	r3, [r0, #32]
 134              	.LVL7:
 135              		.loc 1 456 0
 136 0066 03F4F012 		and	r2, r3, #1966080
 137 006a B2F5802F 		cmp	r2, #262144
 138 006e 32D0     		beq	.L6
 139 0070 B2F5402F 		cmp	r2, #786432
 140 0074 EFD1     		bne	.L5
 141              	.LVL8:
 142              		.loc 1 462 0
 143 0076 03F00F02 		and	r2, r3, #15
 144              	.LVL9:
 145 007a 0BEB8202 		add	r2, fp, r2, lsl #2
 146              	.LVL10:
 147              	.LBB133:
 148              	.LBB134:
 149              		.loc 1 373 0
 150 007e C3F30A13 		ubfx	r3, r3, #4, #11
 151              	.LVL11:
 152              	.LBE134:
 153              	.LBE133:
 154              		.loc 1 462 0
 155 0082 D268     		ldr	r2, [r2, #12]
 156              	.LBB138:
 157              	.LBB136:
 158              		.loc 1 373 0
 159 0084 0333     		adds	r3, r3, #3
 160              		.loc 1 375 0
 161 0086 9B08     		lsrs	r3, r3, #2
 162              	.LBE136:
 163              	.LBE138:
 164              		.loc 1 462 0
 165 0088 146A     		ldr	r4, [r2, #32]
 166              	.LVL12:
 167              	.LBB139:
 168              	.LBB137:
 169              		.loc 1 375 0
 170 008a E4D0     		beq	.L5
 171 008c 00F58050 		add	r0, r0, #4096
ARM GAS  /tmp/ccNA7Kai.s 			page 4


 172              	.LVL13:
 173 0090 0222     		movs	r2, #2
 174              	.LVL14:
 175              	.L11:
 176              	.LBB135:
 177              		.loc 1 376 0
 178 0092 0168     		ldr	r1, [r0]
 179              	.LVL15:
 180              		.loc 1 377 0
 181 0094 12B1     		cbz	r2, .L10
 182              		.loc 1 380 0
 183 0096 44F8041B 		str	r1, [r4], #4
 184              	.LVL16:
 185              		.loc 1 382 0
 186 009a 013A     		subs	r2, r2, #1
 187              	.LVL17:
 188              	.L10:
 189              	.LBE135:
 190              		.loc 1 375 0
 191 009c 013B     		subs	r3, r3, #1
 192              	.LVL18:
 193 009e F8D1     		bne	.L11
 194              	.LBE137:
 195              	.LBE139:
 196              	.LBE132:
 197              	.LBE131:
 198              		.loc 1 738 0
 199 00a0 009B     		ldr	r3, [sp]
 200              	.LVL19:
 201 00a2 5B69     		ldr	r3, [r3, #20]
 202 00a4 13F01002 		ands	r2, r3, #16
 203              	.LVL20:
 204 00a8 DAD1     		bne	.L29
 205              	.LVL21:
 206              	.L108:
 207              		.loc 1 742 0
 208 00aa 0121     		movs	r1, #1
 209              		.loc 1 743 0
 210 00ac DBF85C30 		ldr	r3, [fp, #92]
 211              		.loc 1 742 0
 212 00b0 01FA0AF1 		lsl	r1, r1, r10
 213              		.loc 1 743 0
 214 00b4 1942     		tst	r1, r3
 215              		.loc 1 742 0
 216 00b6 0391     		str	r1, [sp, #12]
 217              	.LVL22:
 218              		.loc 1 743 0
 219 00b8 77D1     		bne	.L100
 220 00ba 0AF10103 		add	r3, r10, #1
 221 00be 0293     		str	r3, [sp, #8]
 222              	.LVL23:
 223              	.L30:
 224              		.loc 1 735 0 discriminator 2
 225 00c0 DBF85430 		ldr	r3, [fp, #84]
 226 00c4 9DF808A0 		ldrb	r10, [sp, #8]	@ zero_extendqisi2
 227              	.LVL24:
 228 00c8 9B68     		ldr	r3, [r3, #8]
ARM GAS  /tmp/ccNA7Kai.s 			page 5


 229 00ca 9A45     		cmp	r10, r3
 230 00cc C3D9     		bls	.L5
 231              	.LBB154:
 232              		.loc 1 767 0
 233 00ce 2023     		movs	r3, #32
 234              		.syntax unified
 235              	@ 767 "../ChibiOS_2.6.9/os/hal/platforms/STM32/OTGv1/usb_lld.c" 1
 236 00d0 83F31188 		msr     BASEPRI, r3
 237              	@ 0 "" 2
 238              		.thumb
 239              		.syntax unified
 240              	.LBE154:
 241              	.LBE128:
 242              		.loc 1 768 0
 243 00d4 A4E7     		b	.L62
 244              	.LVL25:
 245              	.L6:
 246 00d6 03F00F07 		and	r7, r3, #15
 247 00da 0BEB8707 		add	r7, fp, r7, lsl #2
 248              	.LBB188:
 249              	.LBB155:
 250              	.LBB153:
 251              		.loc 1 466 0
 252 00de C3F30A15 		ubfx	r5, r3, #4, #11
 253              	.LVL26:
 254              		.loc 1 468 0
 255 00e2 FB68     		ldr	r3, [r7, #12]
 256              	.LVL27:
 257 00e4 9969     		ldr	r1, [r3, #24]
 258 00e6 0B78     		ldrb	r3, [r1]	@ zero_extendqisi2
 259 00e8 EBB9     		cbnz	r3, .L109
 260              	.LBB140:
 261              	.LBB141:
 262              		.loc 1 374 0
 263 00ea 4B68     		ldr	r3, [r1, #4]
 264 00ec 8A68     		ldr	r2, [r1, #8]
 265              	.LBE141:
 266              	.LBE140:
 267              		.loc 1 475 0
 268 00ee D1F80CE0 		ldr	lr, [r1, #12]
 269              	.LVL28:
 270              	.LBB144:
 271              	.LBB143:
 272              		.loc 1 374 0
 273 00f2 0333     		adds	r3, r3, #3
 274              	.LVL29:
 275 00f4 9A1A     		subs	r2, r3, r2
 276              	.LVL30:
 277              		.loc 1 373 0
 278 00f6 EB1C     		adds	r3, r5, #3
 279              	.LVL31:
 280              		.loc 1 375 0
 281 00f8 9B08     		lsrs	r3, r3, #2
 282              		.loc 1 374 0
 283 00fa 4FEA9202 		lsr	r2, r2, #2
 284              	.LVL32:
 285              		.loc 1 375 0
ARM GAS  /tmp/ccNA7Kai.s 			page 6


 286 00fe 09D0     		beq	.L28
 287 0100 00F58050 		add	r0, r0, #4096
 288              	.LVL33:
 289 0104 F446     		mov	ip, lr
 290              	.LVL34:
 291              	.L27:
 292              	.LBB142:
 293              		.loc 1 376 0
 294 0106 0468     		ldr	r4, [r0]
 295              	.LVL35:
 296              		.loc 1 377 0
 297 0108 12B1     		cbz	r2, .L26
 298              		.loc 1 380 0
 299 010a 4CF8044B 		str	r4, [ip], #4
 300              	.LVL36:
 301              		.loc 1 382 0
 302 010e 013A     		subs	r2, r2, #1
 303              	.LVL37:
 304              	.L26:
 305              	.LBE142:
 306              		.loc 1 375 0
 307 0110 013B     		subs	r3, r3, #1
 308              	.LVL38:
 309 0112 F8D1     		bne	.L27
 310              	.LVL39:
 311              	.L28:
 312              	.LBE143:
 313              	.LBE144:
 314              		.loc 1 480 0
 315 0114 0EEB0504 		add	r4, lr, r5
 316 0118 CC60     		str	r4, [r1, #12]
 317              	.L22:
 318              		.loc 1 482 0
 319 011a FB68     		ldr	r3, [r7, #12]
 320 011c 9A69     		ldr	r2, [r3, #24]
 321 011e 9368     		ldr	r3, [r2, #8]
 322 0120 2B44     		add	r3, r3, r5
 323 0122 9360     		str	r3, [r2, #8]
 324 0124 97E7     		b	.L5
 325              	.L109:
 326              		.loc 1 470 0
 327 0126 CC68     		ldr	r4, [r1, #12]
 328              	.LVL40:
 329              	.LBB145:
 330              	.LBB146:
 331              		.loc 1 403 0
 332 0128 3DB3     		cbz	r5, .L14
 333 012a 6269     		ldr	r2, [r4, #20]
 334 012c 00F58050 		add	r0, r0, #4096
 335              	.LVL41:
 336 0130 AE46     		mov	lr, r5
 337              	.LVL42:
 338              	.L15:
 339              	.LBB147:
 340              		.loc 1 407 0
 341 0132 BEF1030F 		cmp	lr, #3
 342 0136 07D9     		bls	.L16
ARM GAS  /tmp/ccNA7Kai.s 			page 7


 343              	.LVL43:
 344              	.L110:
 345              	.LBB148:
 346              		.loc 1 413 0
 347 0138 2369     		ldr	r3, [r4, #16]
 348 013a 9342     		cmp	r3, r2
 349 013c 04D8     		bhi	.L16
 350              		.loc 1 414 0
 351 013e E268     		ldr	r2, [r4, #12]
 352 0140 6261     		str	r2, [r4, #20]
 353              	.LVL44:
 354              	.LBE148:
 355              		.loc 1 407 0
 356 0142 BEF1030F 		cmp	lr, #3
 357 0146 F7D8     		bhi	.L110
 358              	.LVL45:
 359              	.L16:
 360              		.loc 1 425 0
 361 0148 D0F800C0 		ldr	ip, [r0]
 362              	.LVL46:
 363 014c 0023     		movs	r3, #0
 364              	.LVL47:
 365              	.L20:
 366              		.loc 1 428 0
 367 014e 2CFA03F1 		lsr	r1, ip, r3
 368 0152 02F10108 		add	r8, r2, #1
 369 0156 C4F81480 		str	r8, [r4, #20]
 370 015a 1170     		strb	r1, [r2]
 371              		.loc 1 429 0
 372 015c 2269     		ldr	r2, [r4, #16]
 373 015e 6169     		ldr	r1, [r4, #20]
 374 0160 9142     		cmp	r1, r2
 375              		.loc 1 430 0
 376 0162 24BF     		itt	cs
 377 0164 E268     		ldrcs	r2, [r4, #12]
 378 0166 6261     		strcs	r2, [r4, #20]
 379              		.loc 1 427 0
 380 0168 BEF1010E 		subs	lr, lr, #1
 381              	.LVL48:
 382 016c 03F10803 		add	r3, r3, #8
 383 0170 03D0     		beq	.L14
 384 0172 202B     		cmp	r3, #32
 385 0174 6269     		ldr	r2, [r4, #20]
 386 0176 EAD1     		bne	.L20
 387 0178 DBE7     		b	.L15
 388              	.LVL49:
 389              	.L14:
 390              	.LBE147:
 391              	.LBB149:
 392              		.loc 1 437 0
 393 017a 2023     		movs	r3, #32
 394              		.syntax unified
 395              	@ 437 "../ChibiOS_2.6.9/os/hal/platforms/STM32/OTGv1/usb_lld.c" 1
 396 017c 83F31188 		msr     BASEPRI, r3
 397              	@ 0 "" 2
 398              		.thumb
 399              		.syntax unified
ARM GAS  /tmp/ccNA7Kai.s 			page 8


 400              	.LBE149:
 401              		.loc 1 438 0
 402 0180 A368     		ldr	r3, [r4, #8]
 403              		.loc 1 439 0
 404 0182 2068     		ldr	r0, [r4]
 405              		.loc 1 438 0
 406 0184 2B44     		add	r3, r3, r5
 407              		.loc 1 439 0
 408 0186 8442     		cmp	r4, r0
 409              		.loc 1 438 0
 410 0188 A360     		str	r3, [r4, #8]
 411              		.loc 1 439 0
 412 018a 08D0     		beq	.L24
 413              	.L23:
 414              	.LVL50:
 415              	.LBB150:
 416              	.LBB151:
 417              		.file 2 "../ChibiOS_2.6.9/os/kernel/include/chinline.h"
 418              		.loc 2 62 0
 419 018c 0368     		ldr	r3, [r0]
 420 018e 2360     		str	r3, [r4]
 421 0190 5C60     		str	r4, [r3, #4]
 422              	.LVL51:
 423              	.LBE151:
 424              	.LBE150:
 425              		.loc 1 440 0
 426 0192 FFF7FEFF 		bl	chSchReadyI
 427              	.LVL52:
 428 0196 0662     		str	r6, [r0, #32]
 429              		.loc 1 439 0
 430 0198 2068     		ldr	r0, [r4]
 431 019a A042     		cmp	r0, r4
 432 019c F6D1     		bne	.L23
 433              	.L24:
 434              		.loc 1 441 0
 435 019e FFF7FEFF 		bl	chSchRescheduleS
 436              	.LVL53:
 437              	.LBB152:
 438              		.loc 1 442 0
 439 01a2 0023     		movs	r3, #0
 440              		.syntax unified
 441              	@ 442 "../ChibiOS_2.6.9/os/hal/platforms/STM32/OTGv1/usb_lld.c" 1
 442 01a4 83F31188 		msr     BASEPRI, r3
 443              	@ 0 "" 2
 444              		.thumb
 445              		.syntax unified
 446 01a8 B7E7     		b	.L22
 447              	.LVL54:
 448              	.L100:
 449              	.LBE152:
 450              	.LBE146:
 451              	.LBE145:
 452              	.LBE153:
 453              	.LBE155:
 454              	.LBB156:
 455              	.LBB157:
 456              		.loc 1 746 0
ARM GAS  /tmp/ccNA7Kai.s 			page 9


 457 01aa 2023     		movs	r3, #32
 458              		.syntax unified
 459              	@ 746 "../ChibiOS_2.6.9/os/hal/platforms/STM32/OTGv1/usb_lld.c" 1
 460 01ac 83F31188 		msr     BASEPRI, r3
 461              	@ 0 "" 2
 462              		.thumb
 463              		.syntax unified
 464              	.LBE157:
 465              		.loc 1 754 0
 466 01b0 009C     		ldr	r4, [sp]
 467              		.loc 1 755 0
 468 01b2 DBF85C30 		ldr	r3, [fp, #92]
 469              		.loc 1 754 0
 470 01b6 A068     		ldr	r0, [r4, #8]
 471              		.loc 1 755 0
 472 01b8 0399     		ldr	r1, [sp, #12]
 473              	.LVL55:
 474              		.loc 1 754 0
 475 01ba 20F00100 		bic	r0, r0, #1
 476              		.loc 1 755 0
 477 01be 23EA0101 		bic	r1, r3, r1
 478              		.loc 1 754 0
 479 01c2 A060     		str	r0, [r4, #8]
 480              	.LBB158:
 481              		.loc 1 756 0
 482 01c4 1346     		mov	r3, r2
 483              	.LBE158:
 484              		.loc 1 755 0
 485 01c6 CBF85C10 		str	r1, [fp, #92]
 486              	.LBB159:
 487              		.loc 1 756 0
 488              		.syntax unified
 489              	@ 756 "../ChibiOS_2.6.9/os/hal/platforms/STM32/OTGv1/usb_lld.c" 1
 490 01ca 83F31188 		msr     BASEPRI, r3
 491              	@ 0 "" 2
 492              	.LVL56:
 493              		.thumb
 494              		.syntax unified
 495 01ce 0BEB8A03 		add	r3, fp, r10, lsl #2
 496 01d2 0193     		str	r3, [sp, #4]
 497              	.LBE159:
 498              	.LBB160:
 499              	.LBB161:
 500              		.loc 1 506 0
 501 01d4 D968     		ldr	r1, [r3, #12]
 502 01d6 4869     		ldr	r0, [r1, #20]
 503 01d8 8268     		ldr	r2, [r0, #8]
 504 01da 4368     		ldr	r3, [r0, #4]
 505 01dc 9A42     		cmp	r2, r3
 506 01de 80F0B980 		bcs	.L111
 507              		.loc 1 516 0
 508 01e2 DBF85040 		ldr	r4, [fp, #80]
 509              		.loc 1 511 0
 510 01e6 0D8A     		ldrh	r5, [r1, #16]
 511              		.loc 1 516 0
 512 01e8 4FEA4A18 		lsl	r8, r10, #5
 513 01ec 04EB0801 		add	r1, r4, r8
ARM GAS  /tmp/ccNA7Kai.s 			page 10


 514              		.loc 1 510 0
 515 01f0 9B1A     		subs	r3, r3, r2
 516              	.LVL57:
 517              		.loc 1 516 0
 518 01f2 D1F81829 		ldr	r2, [r1, #2328]
 519 01f6 9D42     		cmp	r5, r3
 520 01f8 28BF     		it	cs
 521 01fa 1D46     		movcs	r5, r3
 522              	.LVL58:
 523 01fc 93B2     		uxth	r3, r2
 524 01fe B5EB830F 		cmp	r5, r3, lsl #2
 525 0202 0AF10103 		add	r3, r10, #1
 526 0206 0293     		str	r3, [sp, #8]
 527 0208 2ED8     		bhi	.L34
 528              		.loc 1 531 0
 529 020a 1B03     		lsls	r3, r3, #12
 530 020c 9A46     		mov	r10, r3
 531              	.LVL59:
 532              	.L35:
 533              		.loc 1 523 0
 534 020e 0378     		ldrb	r3, [r0]	@ zero_extendqisi2
 535 0210 002B     		cmp	r3, #0
 536 0212 3ED1     		bne	.L112
 537              	.LBB162:
 538              	.LBB163:
 539              		.loc 1 272 0
 540 0214 EB1C     		adds	r3, r5, #3
 541              	.LBE163:
 542              	.LBE162:
 543              		.loc 1 531 0
 544 0216 04EB0A0C 		add	ip, r4, r10
 545 021a C468     		ldr	r4, [r0, #12]
 546              	.LVL60:
 547              	.LBB170:
 548              	.LBB168:
 549              	.LBB164:
 550              	.LBB165:
 551              		.loc 1 249 0
 552 021c 9B08     		lsrs	r3, r3, #2
 553              	.LBE165:
 554              	.LBE164:
 555              	.LBE168:
 556              	.LBE170:
 557              		.loc 1 531 0
 558 021e 5246     		mov	r2, r10
 559              	.LBB171:
 560              	.LBB169:
 561              	.LBB167:
 562              	.LBB166:
 563              		.loc 1 249 0
 564 0220 18BF     		it	ne
 565 0222 2246     		movne	r2, r4
 566 0224 05D0     		beq	.L56
 567              	.LVL61:
 568              	.L55:
 569              		.loc 1 252 0
 570 0226 52F8041B 		ldr	r1, [r2], #4
ARM GAS  /tmp/ccNA7Kai.s 			page 11


 571              	.LVL62:
 572 022a CCF80010 		str	r1, [ip]
 573              	.LVL63:
 574              		.loc 1 249 0
 575 022e 013B     		subs	r3, r3, #1
 576              	.LVL64:
 577 0230 F9D1     		bne	.L55
 578              	.LVL65:
 579              	.L56:
 580              	.LBE166:
 581              	.LBE167:
 582              	.LBE169:
 583              	.LBE171:
 584              		.loc 1 534 0
 585 0232 2C44     		add	r4, r4, r5
 586 0234 C460     		str	r4, [r0, #12]
 587              	.L52:
 588              		.loc 1 539 0
 589 0236 019B     		ldr	r3, [sp, #4]
 590 0238 D968     		ldr	r1, [r3, #12]
 591 023a 4869     		ldr	r0, [r1, #20]
 592 023c 8368     		ldr	r3, [r0, #8]
 593              		.loc 1 506 0
 594 023e 4268     		ldr	r2, [r0, #4]
 595              		.loc 1 539 0
 596 0240 2B44     		add	r3, r3, r5
 597              		.loc 1 506 0
 598 0242 9A42     		cmp	r2, r3
 599              		.loc 1 539 0
 600 0244 8360     		str	r3, [r0, #8]
 601              		.loc 1 506 0
 602 0246 40F28880 		bls	.L57
 603              		.loc 1 516 0
 604 024a DBF85040 		ldr	r4, [fp, #80]
 605              		.loc 1 511 0
 606 024e 098A     		ldrh	r1, [r1, #16]
 607              		.loc 1 516 0
 608 0250 04EB080E 		add	lr, r4, r8
 609              		.loc 1 510 0
 610 0254 D51A     		subs	r5, r2, r3
 611              	.LVL66:
 612              		.loc 1 516 0
 613 0256 DEF81839 		ldr	r3, [lr, #2328]
 614 025a 8D42     		cmp	r5, r1
 615 025c 28BF     		it	cs
 616 025e 0D46     		movcs	r5, r1
 617              	.LVL67:
 618 0260 9BB2     		uxth	r3, r3
 619 0262 B5EB830F 		cmp	r5, r3, lsl #2
 620 0266 D2D9     		bls	.L35
 621              	.L34:
 622              		.loc 1 517 0
 623 0268 0022     		movs	r2, #0
 624              	.LVL68:
 625              	.L32:
 626              	.LBE161:
 627              	.LBE160:
ARM GAS  /tmp/ccNA7Kai.s 			page 12


 628              	.LBB185:
 629              		.loc 1 760 0
 630 026a 2023     		movs	r3, #32
 631              		.syntax unified
 632              	@ 760 "../ChibiOS_2.6.9/os/hal/platforms/STM32/OTGv1/usb_lld.c" 1
 633 026c 83F31188 		msr     BASEPRI, r3
 634              	@ 0 "" 2
 635              		.thumb
 636              		.syntax unified
 637              	.LBE185:
 638              		.loc 1 761 0
 639 0270 0098     		ldr	r0, [sp]
 640 0272 8368     		ldr	r3, [r0, #8]
 641 0274 43F00103 		orr	r3, r3, #1
 642 0278 0146     		mov	r1, r0
 643 027a 8360     		str	r3, [r0, #8]
 644              		.loc 1 762 0
 645 027c 2AB9     		cbnz	r2, .L59
 646              		.loc 1 763 0
 647 027e D0F83438 		ldr	r3, [r0, #2100]
 648 0282 039A     		ldr	r2, [sp, #12]
 649 0284 1A43     		orrs	r2, r2, r3
 650 0286 C1F83428 		str	r2, [r1, #2100]
 651              	.L59:
 652              	.LBB186:
 653              		.loc 1 764 0
 654 028a 0023     		movs	r3, #0
 655              		.syntax unified
 656              	@ 764 "../ChibiOS_2.6.9/os/hal/platforms/STM32/OTGv1/usb_lld.c" 1
 657 028c 83F31188 		msr     BASEPRI, r3
 658              	@ 0 "" 2
 659              		.thumb
 660              		.syntax unified
 661 0290 16E7     		b	.L30
 662              	.LVL69:
 663              	.L112:
 664              	.LBE186:
 665              	.LBB187:
 666              	.LBB184:
 667              		.loc 1 525 0
 668 0292 04EB0A0C 		add	ip, r4, r10
 669 0296 C468     		ldr	r4, [r0, #12]
 670              	.LVL70:
 671              	.LBB172:
 672              	.LBB173:
 673              		.loc 1 290 0
 674 0298 15B3     		cbz	r5, .L47
 675 029a D4F81090 		ldr	r9, [r4, #16]
 676 029e 2A46     		mov	r2, r5
 677              	.LVL71:
 678              	.L51:
 679              	.LBB174:
 680              		.loc 1 294 0
 681 02a0 9108     		lsrs	r1, r2, #2
 682              	.LVL72:
 683 02a2 35D1     		bne	.L40
 684 02a4 A369     		ldr	r3, [r4, #24]
ARM GAS  /tmp/ccNA7Kai.s 			page 13


 685              	.LVL73:
 686              	.L41:
 687              		.loc 1 308 0
 688 02a6 0021     		movs	r1, #0
 689 02a8 0846     		mov	r0, r1
 690              	.LVL74:
 691              	.L50:
 692              		.loc 1 315 0
 693 02aa 5F1C     		adds	r7, r3, #1
 694 02ac A761     		str	r7, [r4, #24]
 695 02ae 1B78     		ldrb	r3, [r3]	@ zero_extendqisi2
 696              		.loc 1 316 0
 697 02b0 4F45     		cmp	r7, r9
 698              		.loc 1 315 0
 699 02b2 03FA01F3 		lsl	r3, r3, r1
 700 02b6 40EA0300 		orr	r0, r0, r3
 701              	.LVL75:
 702              		.loc 1 317 0
 703 02ba 24BF     		itt	cs
 704 02bc E368     		ldrcs	r3, [r4, #12]
 705 02be A361     		strcs	r3, [r4, #24]
 706              		.loc 1 314 0
 707 02c0 013A     		subs	r2, r2, #1
 708              	.LVL76:
 709              		.loc 1 315 0
 710 02c2 01F10801 		add	r1, r1, #8
 711              	.LVL77:
 712              		.loc 1 314 0
 713 02c6 07D0     		beq	.L49
 714 02c8 2029     		cmp	r1, #32
 715 02ca 05D0     		beq	.L49
 716 02cc A369     		ldr	r3, [r4, #24]
 717 02ce ECE7     		b	.L50
 718              	.L114:
 719              		.align	2
 720              	.L113:
 721 02d0 00000000 		.word	rlist
 722 02d4 00000000 		.word	.LC0
 723              	.L49:
 724              		.loc 1 321 0
 725 02d8 CCF80000 		str	r0, [ip]
 726              	.LBE174:
 727              		.loc 1 290 0
 728 02dc 002A     		cmp	r2, #0
 729 02de DFD1     		bne	.L51
 730              	.LVL78:
 731              	.L47:
 732              	.LBB178:
 733              		.loc 1 325 0
 734 02e0 2023     		movs	r3, #32
 735              		.syntax unified
 736              	@ 325 "../ChibiOS_2.6.9/os/hal/platforms/STM32/OTGv1/usb_lld.c" 1
 737 02e2 83F31188 		msr     BASEPRI, r3
 738              	@ 0 "" 2
 739              		.thumb
 740              		.syntax unified
 741              	.LBE178:
ARM GAS  /tmp/ccNA7Kai.s 			page 14


 742              		.loc 1 326 0
 743 02e6 A368     		ldr	r3, [r4, #8]
 744              		.loc 1 327 0
 745 02e8 2068     		ldr	r0, [r4]
 746              		.loc 1 326 0
 747 02ea 2B44     		add	r3, r3, r5
 748              		.loc 1 327 0
 749 02ec 8442     		cmp	r4, r0
 750              		.loc 1 326 0
 751 02ee A360     		str	r3, [r4, #8]
 752              		.loc 1 327 0
 753 02f0 08D0     		beq	.L39
 754              	.LVL79:
 755              	.L53:
 756              	.LBB179:
 757              	.LBB180:
 758              		.loc 2 62 0
 759 02f2 0368     		ldr	r3, [r0]
 760 02f4 2360     		str	r3, [r4]
 761 02f6 5C60     		str	r4, [r3, #4]
 762              	.LVL80:
 763              	.LBE180:
 764              	.LBE179:
 765              		.loc 1 328 0
 766 02f8 FFF7FEFF 		bl	chSchReadyI
 767              	.LVL81:
 768 02fc 0662     		str	r6, [r0, #32]
 769              		.loc 1 327 0
 770 02fe 2068     		ldr	r0, [r4]
 771 0300 A042     		cmp	r0, r4
 772 0302 F6D1     		bne	.L53
 773              	.L39:
 774              		.loc 1 329 0
 775 0304 FFF7FEFF 		bl	chSchRescheduleS
 776              	.LVL82:
 777              	.LBB181:
 778              		.loc 1 330 0
 779 0308 0023     		movs	r3, #0
 780              		.syntax unified
 781              	@ 330 "../ChibiOS_2.6.9/os/hal/platforms/STM32/OTGv1/usb_lld.c" 1
 782 030a 83F31188 		msr     BASEPRI, r3
 783              	@ 0 "" 2
 784              		.thumb
 785              		.syntax unified
 786 030e 92E7     		b	.L52
 787              	.LVL83:
 788              	.L40:
 789              	.LBE181:
 790              	.LBB182:
 791              	.LBB175:
 792              		.loc 1 296 0
 793 0310 A069     		ldr	r0, [r4, #24]
 794              	.LVL84:
 795              		.loc 1 298 0
 796 0312 B9EB0003 		subs	r3, r9, r0
 797 0316 48BF     		it	mi
 798 0318 0333     		addmi	r3, r3, #3
ARM GAS  /tmp/ccNA7Kai.s 			page 15


 799 031a 9B10     		asrs	r3, r3, #2
 800 031c 8B42     		cmp	r3, r1
 801 031e 28BF     		it	cs
 802 0320 0B46     		movcs	r3, r1
 803              	.LVL85:
 804 0322 4FEA830E 		lsl	lr, r3, #2
 805 0326 CEEB0202 		rsb	r2, lr, r2
 806              	.LVL86:
 807              	.LBB176:
 808              	.LBB177:
 809              		.loc 1 249 0
 810 032a 3BB1     		cbz	r3, .L43
 811 032c 0146     		mov	r1, r0
 812              	.LVL87:
 813              	.L44:
 814              		.loc 1 252 0
 815 032e 51F8047B 		ldr	r7, [r1], #4
 816              	.LVL88:
 817 0332 CCF80070 		str	r7, [ip]
 818              	.LVL89:
 819              		.loc 1 249 0
 820 0336 013B     		subs	r3, r3, #1
 821              	.LVL90:
 822 0338 F9D1     		bne	.L44
 823 033a 7044     		add	r0, r0, lr
 824              	.LVL91:
 825              	.L43:
 826              	.LBE177:
 827              	.LBE176:
 828              		.loc 1 300 0
 829 033c 8145     		cmp	r9, r0
 830              		.loc 1 299 0
 831 033e A061     		str	r0, [r4, #24]
 832              	.LVL92:
 833              		.loc 1 300 0
 834 0340 04D8     		bhi	.L45
 835              		.loc 1 301 0
 836 0342 E368     		ldr	r3, [r4, #12]
 837 0344 A361     		str	r3, [r4, #24]
 838              	.LBE175:
 839              	.LBE182:
 840              		.loc 1 290 0
 841 0346 002A     		cmp	r2, #0
 842 0348 AAD1     		bne	.L51
 843 034a C9E7     		b	.L47
 844              	.L45:
 845              	.LBB183:
 846              		.loc 1 308 0
 847 034c 002A     		cmp	r2, #0
 848 034e C7D0     		beq	.L47
 849 0350 0346     		mov	r3, r0
 850 0352 A8E7     		b	.L41
 851              	.LVL93:
 852              	.L111:
 853 0354 0AF10103 		add	r3, r10, #1
 854 0358 0293     		str	r3, [sp, #8]
 855              	.LVL94:
ARM GAS  /tmp/ccNA7Kai.s 			page 16


 856              	.L57:
 857              	.LBE183:
 858              	.LBE173:
 859              	.LBE172:
 860              		.loc 1 507 0
 861 035a 0122     		movs	r2, #1
 862 035c 85E7     		b	.L32
 863              	.LBE184:
 864              	.LBE187:
 865              	.LBE156:
 866              	.LBE188:
 867              		.cfi_endproc
 868              	.LFE136:
 869              		.size	usb_lld_pump, .-usb_lld_pump
 870 035e 00BF     		.section	.text.otg_disable_ep.isra.0,"ax",%progbits
 871              		.align	2
 872              		.p2align 4,,15
 873              		.thumb
 874              		.thumb_func
 875              		.type	otg_disable_ep.isra.0, %function
 876              	otg_disable_ep.isra.0:
 877              	.LFB156:
 878              		.loc 1 148 0
 879              		.cfi_startproc
 880              		@ args = 0, pretend = 0, frame = 0
 881              		@ frame_needed = 0, uses_anonymous_args = 0
 882              	.LVL95:
 883 0000 F0B5     		push	{r4, r5, r6, r7, lr}
 884              		.cfi_def_cfa_offset 20
 885              		.cfi_offset 4, -20
 886              		.cfi_offset 5, -16
 887              		.cfi_offset 6, -12
 888              		.cfi_offset 7, -8
 889              		.cfi_offset 14, -4
 890              		.loc 1 152 0
 891 0002 0024     		movs	r4, #0
 892 0004 D1F808E0 		ldr	lr, [r1, #8]
 893              		.loc 1 163 0
 894 0008 2546     		mov	r5, r4
 895              		.loc 1 157 0
 896 000a 4FF0804C 		mov	ip, #1073741824
 897              		.loc 1 165 0
 898 000e 4FF0FF37 		mov	r7, #-1
 899 0012 14E0     		b	.L122
 900              	.LVL96:
 901              	.L116:
 902              		.loc 1 163 0
 903 0014 C1F80059 		str	r5, [r1, #2304]
 904              	.L118:
 905              		.loc 1 164 0
 906 0018 C218     		adds	r2, r0, r3
 907 001a C2F81059 		str	r5, [r2, #2320]
 908              		.loc 1 165 0
 909 001e C2F80879 		str	r7, [r2, #2312]
 910              		.loc 1 171 0
 911 0022 D1F8006B 		ldr	r6, [r1, #2816]
 912 0026 002E     		cmp	r6, #0
ARM GAS  /tmp/ccNA7Kai.s 			page 17


 913 0028 17DB     		blt	.L129
 914              		.loc 1 178 0
 915 002a C1F8005B 		str	r5, [r1, #2816]
 916              	.L121:
 917              		.loc 1 179 0
 918 002e 0344     		add	r3, r3, r0
 919              		.loc 1 152 0
 920 0030 0134     		adds	r4, r4, #1
 921              	.LVL97:
 922 0032 7445     		cmp	r4, lr
 923              		.loc 1 179 0
 924 0034 C3F8105B 		str	r5, [r3, #2832]
 925              		.loc 1 180 0
 926 0038 C3F8087B 		str	r7, [r3, #2824]
 927              		.loc 1 152 0
 928 003c 14D8     		bhi	.L130
 929              	.LVL98:
 930              	.L122:
 931 003e 6301     		lsls	r3, r4, #5
 932 0040 C118     		adds	r1, r0, r3
 933              		.loc 1 156 0
 934 0042 D1F80029 		ldr	r2, [r1, #2304]
 935 0046 002A     		cmp	r2, #0
 936 0048 E4DA     		bge	.L116
 937              		.loc 1 157 0
 938 004a C1F800C9 		str	ip, [r1, #2304]
 939              		.loc 1 159 0
 940 004e 0E46     		mov	r6, r1
 941              	.L117:
 942 0050 D6F80829 		ldr	r2, [r6, #2312]
 943 0054 9207     		lsls	r2, r2, #30
 944 0056 FBD5     		bpl	.L117
 945 0058 DEE7     		b	.L118
 946              	.L129:
 947              		.loc 1 172 0
 948 005a C1F800CB 		str	ip, [r1, #2816]
 949              	.L120:
 950              		.loc 1 174 0
 951 005e D2F8081B 		ldr	r1, [r2, #2824]
 952 0062 C906     		lsls	r1, r1, #27
 953 0064 FBD5     		bpl	.L120
 954 0066 E2E7     		b	.L121
 955              	.L130:
 956              		.loc 1 182 0
 957 0068 4FF00113 		mov	r3, #65537
 958 006c C0F81C38 		str	r3, [r0, #2076]
 959 0070 F0BD     		pop	{r4, r5, r6, r7, pc}
 960              		.cfi_endproc
 961              	.LFE156:
 962              		.size	otg_disable_ep.isra.0, .-otg_disable_ep.isra.0
 963 0072 00BF     		.section	.text.usb_lld_init,"ax",%progbits
 964              		.align	2
 965              		.p2align 4,,15
 966              		.global	usb_lld_init
 967              		.thumb
 968              		.thumb_func
 969              		.type	usb_lld_init, %function
ARM GAS  /tmp/ccNA7Kai.s 			page 18


 970              	usb_lld_init:
 971              	.LFB138:
 972              		.loc 1 818 0
 973              		.cfi_startproc
 974              		@ args = 0, pretend = 0, frame = 0
 975              		@ frame_needed = 0, uses_anonymous_args = 0
 976 0000 10B5     		push	{r4, lr}
 977              		.cfi_def_cfa_offset 8
 978              		.cfi_offset 4, -8
 979              		.cfi_offset 14, -4
 980              		.loc 1 822 0
 981 0002 064C     		ldr	r4, .L133
 982 0004 2046     		mov	r0, r4
 983 0006 FFF7FEFF 		bl	usbObjectInit
 984              	.LVL99:
 985              		.loc 1 825 0
 986 000a 4FF0A043 		mov	r3, #1342177280
 987              		.loc 1 826 0
 988 000e 044A     		ldr	r2, .L133+4
 989              		.loc 1 825 0
 990 0010 2365     		str	r3, [r4, #80]
 991              		.loc 1 823 0
 992 0012 0023     		movs	r3, #0
 993              		.loc 1 826 0
 994 0014 6265     		str	r2, [r4, #84]
 995              		.loc 1 823 0
 996 0016 2366     		str	r3, [r4, #96]
 997              		.loc 1 824 0
 998 0018 6366     		str	r3, [r4, #100]
 999 001a 10BD     		pop	{r4, pc}
 1000              	.L134:
 1001              		.align	2
 1002              	.L133:
 1003 001c 00000000 		.word	.LANCHOR0
 1004 0020 00000000 		.word	.LANCHOR1
 1005              		.cfi_endproc
 1006              	.LFE138:
 1007              		.size	usb_lld_init, .-usb_lld_init
 1008              		.section	.text.usb_lld_start,"ax",%progbits
 1009              		.align	2
 1010              		.p2align 4,,15
 1011              		.global	usb_lld_start
 1012              		.thumb
 1013              		.thumb_func
 1014              		.type	usb_lld_start, %function
 1015              	usb_lld_start:
 1016              	.LFB139:
 1017              		.loc 1 876 0
 1018              		.cfi_startproc
 1019              		@ args = 0, pretend = 0, frame = 0
 1020              		@ frame_needed = 0, uses_anonymous_args = 0
 1021              	.LVL100:
 1022              		.loc 1 879 0
 1023 0000 0378     		ldrb	r3, [r0]	@ zero_extendqisi2
 1024 0002 012B     		cmp	r3, #1
 1025 0004 00D0     		beq	.L147
 1026 0006 7047     		bx	lr
ARM GAS  /tmp/ccNA7Kai.s 			page 19


 1027              	.L147:
 1028              		.loc 1 876 0
 1029 0008 70B5     		push	{r4, r5, r6, lr}
 1030              		.cfi_def_cfa_offset 16
 1031              		.cfi_offset 4, -16
 1032              		.cfi_offset 5, -12
 1033              		.cfi_offset 6, -8
 1034              		.cfi_offset 14, -4
 1035              		.loc 1 882 0
 1036 000a 304B     		ldr	r3, .L151
 1037              		.loc 1 877 0
 1038 000c 066D     		ldr	r6, [r0, #80]
 1039              		.loc 1 882 0
 1040 000e 9842     		cmp	r0, r3
 1041              		.loc 1 876 0
 1042 0010 82B0     		sub	sp, sp, #8
 1043              		.cfi_def_cfa_offset 24
 1044 0012 0546     		mov	r5, r0
 1045              		.loc 1 882 0
 1046 0014 49D0     		beq	.L148
 1047              	.LVL101:
 1048              	.L137:
 1049              		.loc 1 911 0
 1050 0016 2B6E     		ldr	r3, [r5, #96]
 1051              		.loc 1 910 0
 1052 0018 0022     		movs	r2, #0
 1053 001a EA65     		str	r2, [r5, #92]
 1054              		.loc 1 911 0
 1055 001c 002B     		cmp	r3, #0
 1056 001e 38D0     		beq	.L149
 1057              	.L138:
 1058              		.loc 1 921 0
 1059 0020 2B4B     		ldr	r3, .L151+4
 1060 0022 F360     		str	r3, [r6, #12]
 1061              		.loc 1 924 0
 1062 0024 2B49     		ldr	r1, .L151+8
 1063 0026 2C6D     		ldr	r4, [r5, #80]
 1064              	.LVL102:
 1065 0028 C6F80018 		str	r1, [r6, #2048]
 1066              		.loc 1 934 0
 1067 002c 4FF45023 		mov	r3, #851968
 1068              		.loc 1 927 0
 1069 0030 0022     		movs	r2, #0
 1070 0032 C6F8002E 		str	r2, [r6, #3584]
 1071              	.LBB191:
 1072              	.LBB192:
 1073              		.loc 1 134 0
 1074 0036 2020     		movs	r0, #32
 1075              	.LBE192:
 1076              	.LBE191:
 1077              		.loc 1 934 0
 1078 0038 B363     		str	r3, [r6, #56]
 1079              	.LBB194:
 1080              	.LBB193:
 1081              		.loc 1 134 0
 1082 003a FFF7FEFF 		bl	halPolledDelay
 1083              	.LVL103:
ARM GAS  /tmp/ccNA7Kai.s 			page 20


 1084              		.loc 1 137 0
 1085 003e 0123     		movs	r3, #1
 1086 0040 2361     		str	r3, [r4, #16]
 1087              	.L139:
 1088              		.loc 1 138 0
 1089 0042 2369     		ldr	r3, [r4, #16]
 1090 0044 DB07     		lsls	r3, r3, #31
 1091 0046 FCD4     		bmi	.L139
 1092              		.loc 1 141 0
 1093 0048 0C20     		movs	r0, #12
 1094 004a FFF7FEFF 		bl	halPolledDelay
 1095              	.LVL104:
 1096              	.L140:
 1097              		.loc 1 144 0
 1098 004e 2369     		ldr	r3, [r4, #16]
 1099 0050 002B     		cmp	r3, #0
 1100 0052 FCDA     		bge	.L140
 1101              	.LVL105:
 1102              	.LBE193:
 1103              	.LBE194:
 1104              		.loc 1 941 0
 1105 0054 0024     		movs	r4, #0
 1106 0056 B460     		str	r4, [r6, #8]
 1107              		.loc 1 944 0
 1108 0058 696D     		ldr	r1, [r5, #84]
 1109 005a 286D     		ldr	r0, [r5, #80]
 1110 005c FFF7FEFF 		bl	otg_disable_ep.isra.0
 1111              	.LVL106:
 1112              		.loc 1 951 0
 1113 0060 6B68     		ldr	r3, [r5, #4]
 1114              		.loc 1 948 0
 1115 0062 C6F81048 		str	r4, [r6, #2064]
 1116              		.loc 1 951 0
 1117 0066 DB68     		ldr	r3, [r3, #12]
 1118              		.loc 1 949 0
 1119 0068 C6F81448 		str	r4, [r6, #2068]
 1120              		.loc 1 950 0
 1121 006c C6F81C48 		str	r4, [r6, #2076]
 1122              		.loc 1 951 0
 1123 0070 5BB1     		cbz	r3, .L150
 1124              		.loc 1 955 0
 1125 0072 43F20803 		movw	r3, #12296
 1126 0076 B361     		str	r3, [r6, #24]
 1127              	.L142:
 1128              		.loc 1 957 0
 1129 0078 4FF0FF33 		mov	r3, #-1
 1130 007c 7361     		str	r3, [r6, #20]
 1131              		.loc 1 960 0
 1132 007e B368     		ldr	r3, [r6, #8]
 1133 0080 43F00103 		orr	r3, r3, #1
 1134 0084 B360     		str	r3, [r6, #8]
 1135              		.loc 1 962 0
 1136 0086 02B0     		add	sp, sp, #8
 1137              		.cfi_remember_state
 1138              		.cfi_def_cfa_offset 16
 1139              		@ sp needed
 1140 0088 70BD     		pop	{r4, r5, r6, pc}
ARM GAS  /tmp/ccNA7Kai.s 			page 21


 1141              	.LVL107:
 1142              	.L150:
 1143              		.cfi_restore_state
 1144              		.loc 1 952 0
 1145 008a 4FF44053 		mov	r3, #12288
 1146 008e B361     		str	r3, [r6, #24]
 1147 0090 F2E7     		b	.L142
 1148              	.LVL108:
 1149              	.L149:
 1150              		.loc 1 912 0
 1151 0092 0095     		str	r5, [sp]
 1152 0094 104B     		ldr	r3, .L151+12
 1153 0096 0222     		movs	r2, #2
 1154 0098 4FF4A471 		mov	r1, #328
 1155 009c 05F16800 		add	r0, r5, #104
 1156 00a0 FFF7FEFF 		bl	chThdCreateI
 1157              	.LVL109:
 1158 00a4 6866     		str	r0, [r5, #100]
 1159 00a6 2866     		str	r0, [r5, #96]
 1160 00a8 BAE7     		b	.L138
 1161              	.LVL110:
 1162              	.L148:
 1163              		.loc 1 884 0
 1164 00aa 0C4B     		ldr	r3, .L151+16
 1165 00ac 5A6B     		ldr	r2, [r3, #52]
 1166 00ae 42F08002 		orr	r2, r2, #128
 1167 00b2 5A63     		str	r2, [r3, #52]
 1168              	.LVL111:
 1169              		.loc 1 885 0
 1170 00b4 5A69     		ldr	r2, [r3, #20]
 1171 00b6 0020     		movs	r0, #0
 1172              	.LVL112:
 1173 00b8 42F08002 		orr	r2, r2, #128
 1174 00bc 5A61     		str	r2, [r3, #20]
 1175              		.loc 1 888 0
 1176 00be E021     		movs	r1, #224
 1177              		.loc 1 885 0
 1178 00c0 5861     		str	r0, [r3, #20]
 1179              		.loc 1 888 0
 1180 00c2 4320     		movs	r0, #67
 1181 00c4 FFF7FEFF 		bl	nvicEnableVector
 1182              	.LVL113:
 1183 00c8 A5E7     		b	.L137
 1184              	.L152:
 1185 00ca 00BF     		.align	2
 1186              	.L151:
 1187 00cc 00000000 		.word	.LANCHOR0
 1188 00d0 40140040 		.word	1073747008
 1189 00d4 03002002 		.word	35651587
 1190 00d8 00000000 		.word	usb_lld_pump
 1191 00dc 00380240 		.word	1073887232
 1192              		.cfi_endproc
 1193              	.LFE139:
 1194              		.size	usb_lld_start, .-usb_lld_start
 1195              		.section	.text.usb_lld_stop,"ax",%progbits
 1196              		.align	2
 1197              		.p2align 4,,15
ARM GAS  /tmp/ccNA7Kai.s 			page 22


 1198              		.global	usb_lld_stop
 1199              		.thumb
 1200              		.thumb_func
 1201              		.type	usb_lld_stop, %function
 1202              	usb_lld_stop:
 1203              	.LFB140:
 1204              		.loc 1 971 0
 1205              		.cfi_startproc
 1206              		@ args = 0, pretend = 0, frame = 0
 1207              		@ frame_needed = 0, uses_anonymous_args = 0
 1208              	.LVL114:
 1209 0000 38B5     		push	{r3, r4, r5, lr}
 1210              		.cfi_def_cfa_offset 16
 1211              		.cfi_offset 3, -16
 1212              		.cfi_offset 4, -12
 1213              		.cfi_offset 5, -8
 1214              		.cfi_offset 14, -4
 1215              		.loc 1 975 0
 1216 0002 0378     		ldrb	r3, [r0]	@ zero_extendqisi2
 1217 0004 012B     		cmp	r3, #1
 1218 0006 0ED0     		beq	.L153
 1219              		.loc 1 972 0
 1220 0008 056D     		ldr	r5, [r0, #80]
 1221              		.loc 1 979 0
 1222 000a 416D     		ldr	r1, [r0, #84]
 1223 000c 0446     		mov	r4, r0
 1224 000e 2846     		mov	r0, r5
 1225              	.LVL115:
 1226 0010 FFF7FEFF 		bl	otg_disable_ep.isra.0
 1227              	.LVL116:
 1228              		.loc 1 988 0
 1229 0014 094A     		ldr	r2, .L159
 1230              		.loc 1 981 0
 1231 0016 0023     		movs	r3, #0
 1232              		.loc 1 988 0
 1233 0018 9442     		cmp	r4, r2
 1234              		.loc 1 981 0
 1235 001a E365     		str	r3, [r4, #92]
 1236              		.loc 1 983 0
 1237 001c C5F81C38 		str	r3, [r5, #2076]
 1238              		.loc 1 984 0
 1239 0020 AB60     		str	r3, [r5, #8]
 1240              		.loc 1 985 0
 1241 0022 AB63     		str	r3, [r5, #56]
 1242              		.loc 1 988 0
 1243 0024 00D0     		beq	.L158
 1244              	.LVL117:
 1245              	.L153:
 1246 0026 38BD     		pop	{r3, r4, r5, pc}
 1247              	.LVL118:
 1248              	.L158:
 1249              		.loc 1 989 0
 1250 0028 4320     		movs	r0, #67
 1251 002a FFF7FEFF 		bl	nvicDisableVector
 1252              	.LVL119:
 1253              		.loc 1 990 0
 1254 002e 044A     		ldr	r2, .L159+4
ARM GAS  /tmp/ccNA7Kai.s 			page 23


 1255 0030 536B     		ldr	r3, [r2, #52]
 1256 0032 23F08003 		bic	r3, r3, #128
 1257 0036 5363     		str	r3, [r2, #52]
 1258              		.loc 1 1001 0
 1259 0038 F5E7     		b	.L153
 1260              	.L160:
 1261 003a 00BF     		.align	2
 1262              	.L159:
 1263 003c 00000000 		.word	.LANCHOR0
 1264 0040 00380240 		.word	1073887232
 1265              		.cfi_endproc
 1266              	.LFE140:
 1267              		.size	usb_lld_stop, .-usb_lld_stop
 1268              		.section	.text.usb_lld_reset,"ax",%progbits
 1269              		.align	2
 1270              		.p2align 4,,15
 1271              		.global	usb_lld_reset
 1272              		.thumb
 1273              		.thumb_func
 1274              		.type	usb_lld_reset, %function
 1275              	usb_lld_reset:
 1276              	.LFB141:
 1277              		.loc 1 1010 0
 1278              		.cfi_startproc
 1279              		@ args = 0, pretend = 0, frame = 0
 1280              		@ frame_needed = 0, uses_anonymous_args = 0
 1281              	.LVL120:
 1282 0000 F8B5     		push	{r3, r4, r5, r6, r7, lr}
 1283              		.cfi_def_cfa_offset 24
 1284              		.cfi_offset 3, -24
 1285              		.cfi_offset 4, -20
 1286              		.cfi_offset 5, -16
 1287              		.cfi_offset 6, -12
 1288              		.cfi_offset 7, -8
 1289              		.cfi_offset 14, -4
 1290              		.loc 1 1012 0
 1291 0002 056D     		ldr	r5, [r0, #80]
 1292              	.LVL121:
 1293              	.LBB195:
 1294              	.LBB196:
 1295              		.loc 1 198 0
 1296 0004 2023     		movs	r3, #32
 1297              	.LBE196:
 1298              	.LBE195:
 1299              		.loc 1 1010 0
 1300 0006 0746     		mov	r7, r0
 1301              	.LVL122:
 1302              	.LBB198:
 1303              	.LBB197:
 1304              		.loc 1 198 0
 1305 0008 2B61     		str	r3, [r5, #16]
 1306              	.L162:
 1307              		.loc 1 199 0
 1308 000a 2B69     		ldr	r3, [r5, #16]
 1309 000c 13F02004 		ands	r4, r3, #32
 1310 0010 FBD1     		bne	.L162
 1311              		.loc 1 202 0
ARM GAS  /tmp/ccNA7Kai.s 			page 24


 1312 0012 0C20     		movs	r0, #12
 1313              	.LVL123:
 1314 0014 FFF7FEFF 		bl	halPolledDelay
 1315              	.LVL124:
 1316              	.LBE197:
 1317              	.LBE198:
 1318              		.loc 1 1018 0
 1319 0018 D7F854E0 		ldr	lr, [r7, #84]
 1320 001c DEF80860 		ldr	r6, [lr, #8]
 1321 0020 2346     		mov	r3, r4
 1322              		.loc 1 1019 0
 1323 0022 4FF00060 		mov	r0, #134217728
 1324              		.loc 1 1021 0
 1325 0026 FF21     		movs	r1, #255
 1326              	.LVL125:
 1327              	.L163:
 1328 0028 05EB4312 		add	r2, r5, r3, lsl #5
 1329              		.loc 1 1018 0 discriminator 3
 1330 002c 0133     		adds	r3, r3, #1
 1331              	.LVL126:
 1332 002e B342     		cmp	r3, r6
 1333              		.loc 1 1019 0 discriminator 3
 1334 0030 C2F80009 		str	r0, [r2, #2304]
 1335              		.loc 1 1020 0 discriminator 3
 1336 0034 C2F8000B 		str	r0, [r2, #2816]
 1337              		.loc 1 1021 0 discriminator 3
 1338 0038 C2F80819 		str	r1, [r2, #2312]
 1339              		.loc 1 1022 0 discriminator 3
 1340 003c C2F8081B 		str	r1, [r2, #2824]
 1341              		.loc 1 1018 0 discriminator 3
 1342 0040 F2D9     		bls	.L163
 1343              	.LBB199:
 1344              	.LBB200:
 1345              		.loc 1 214 0
 1346 0042 DEF80030 		ldr	r3, [lr]
 1347              	.LVL127:
 1348              	.LBE200:
 1349              	.LBE199:
 1350              		.loc 1 1026 0
 1351 0046 4FF0FF32 		mov	r2, #-1
 1352              		.loc 1 1027 0
 1353 004a 4FF00111 		mov	r1, #65537
 1354              		.loc 1 1026 0
 1355 004e C5F81828 		str	r2, [r5, #2072]
 1356 0052 3A6D     		ldr	r2, [r7, #80]
 1357              		.loc 1 1027 0
 1358 0054 C5F81C18 		str	r1, [r5, #2076]
 1359              	.LVL128:
 1360              	.LBB202:
 1361              	.LBB201:
 1362              		.loc 1 214 0
 1363 0058 BB65     		str	r3, [r7, #88]
 1364              	.LBE201:
 1365              	.LBE202:
 1366              		.loc 1 1033 0
 1367 005a DEF80030 		ldr	r3, [lr]
 1368 005e 6B62     		str	r3, [r5, #36]
ARM GAS  /tmp/ccNA7Kai.s 			page 25


 1369              	.LBB203:
 1370              	.LBB204:
 1371              		.loc 1 188 0
 1372 0060 1023     		movs	r3, #16
 1373 0062 1361     		str	r3, [r2, #16]
 1374              	.L164:
 1375              		.loc 1 189 0
 1376 0064 1369     		ldr	r3, [r2, #16]
 1377 0066 13F01004 		ands	r4, r3, #16
 1378 006a FBD1     		bne	.L164
 1379              		.loc 1 192 0
 1380 006c 0C20     		movs	r0, #12
 1381 006e FFF7FEFF 		bl	halPolledDelay
 1382              	.LVL129:
 1383              	.LBE204:
 1384              	.LBE203:
 1385              		.loc 1 1037 0
 1386 0072 D5F80038 		ldr	r3, [r5, #2048]
 1387              		.loc 1 1047 0
 1388 0076 114A     		ldr	r2, .L169
 1389              		.loc 1 1045 0
 1390 0078 1148     		ldr	r0, .L169+4
 1391              		.loc 1 1037 0
 1392 007a 23F4FE63 		bic	r3, r3, #2032
 1393 007e C5F80038 		str	r3, [r5, #2048]
 1394              		.loc 1 1040 0
 1395 0082 AB69     		ldr	r3, [r5, #24]
 1396 0084 43F44023 		orr	r3, r3, #786432
 1397 0088 43F01003 		orr	r3, r3, #16
 1398              		.loc 1 1041 0
 1399 008c 0921     		movs	r1, #9
 1400              		.loc 1 1040 0
 1401 008e AB61     		str	r3, [r5, #24]
 1402              		.loc 1 1041 0
 1403 0090 C5F81018 		str	r1, [r5, #2064]
 1404              		.loc 1 1042 0
 1405 0094 C5F81418 		str	r1, [r5, #2068]
 1406              		.loc 1 1045 0
 1407 0098 F860     		str	r0, [r7, #12]
 1408              		.loc 1 1046 0
 1409 009a C5F8104B 		str	r4, [r5, #2832]
 1410              		.loc 1 1047 0
 1411 009e C5F8002B 		str	r2, [r5, #2816]
 1412              		.loc 1 1049 0
 1413 00a2 C5F81049 		str	r4, [r5, #2320]
 1414              		.loc 1 1050 0
 1415 00a6 C5F80029 		str	r2, [r5, #2304]
 1416              	.LVL130:
 1417              	.LBB205:
 1418              	.LBB206:
 1419              		.loc 1 228 0
 1420 00aa BB6D     		ldr	r3, [r7, #88]
 1421              	.LVL131:
 1422              		.loc 1 229 0
 1423 00ac 03F11002 		add	r2, r3, #16
 1424              	.LBE206:
 1425              	.LBE205:
ARM GAS  /tmp/ccNA7Kai.s 			page 26


 1426              		.loc 1 1052 0
 1427 00b0 43F48013 		orr	r3, r3, #1048576
 1428              	.LVL132:
 1429              	.LBB208:
 1430              	.LBB207:
 1431              		.loc 1 229 0
 1432 00b4 BA65     		str	r2, [r7, #88]
 1433              	.LVL133:
 1434              	.LBE207:
 1435              	.LBE208:
 1436              		.loc 1 1052 0
 1437 00b6 AB62     		str	r3, [r5, #40]
 1438 00b8 F8BD     		pop	{r3, r4, r5, r6, r7, pc}
 1439              	.LVL134:
 1440              	.L170:
 1441 00ba 00BF     		.align	2
 1442              	.L169:
 1443 00bc 40800010 		.word	268468288
 1444 00c0 00000000 		.word	.LANCHOR2
 1445              		.cfi_endproc
 1446              	.LFE141:
 1447              		.size	usb_lld_reset, .-usb_lld_reset
 1448              		.section	.text.usb_lld_set_address,"ax",%progbits
 1449              		.align	2
 1450              		.p2align 4,,15
 1451              		.global	usb_lld_set_address
 1452              		.thumb
 1453              		.thumb_func
 1454              		.type	usb_lld_set_address, %function
 1455              	usb_lld_set_address:
 1456              	.LFB142:
 1457              		.loc 1 1064 0
 1458              		.cfi_startproc
 1459              		@ args = 0, pretend = 0, frame = 0
 1460              		@ frame_needed = 0, uses_anonymous_args = 0
 1461              		@ link register save eliminated.
 1462              	.LVL135:
 1463              		.loc 1 1065 0
 1464 0000 026D     		ldr	r2, [r0, #80]
 1465              	.LVL136:
 1466              		.loc 1 1067 0
 1467 0002 90F84E10 		ldrb	r1, [r0, #78]	@ zero_extendqisi2
 1468 0006 D2F80038 		ldr	r3, [r2, #2048]
 1469 000a 23F4FE63 		bic	r3, r3, #2032
 1470 000e 43EA0113 		orr	r3, r3, r1, lsl #4
 1471 0012 C2F80038 		str	r3, [r2, #2048]
 1472 0016 7047     		bx	lr
 1473              		.cfi_endproc
 1474              	.LFE142:
 1475              		.size	usb_lld_set_address, .-usb_lld_set_address
 1476              		.section	.text.usb_lld_init_endpoint,"ax",%progbits
 1477              		.align	2
 1478              		.p2align 4,,15
 1479              		.global	usb_lld_init_endpoint
 1480              		.thumb
 1481              		.thumb_func
 1482              		.type	usb_lld_init_endpoint, %function
ARM GAS  /tmp/ccNA7Kai.s 			page 27


 1483              	usb_lld_init_endpoint:
 1484              	.LFB143:
 1485              		.loc 1 1078 0
 1486              		.cfi_startproc
 1487              		@ args = 0, pretend = 0, frame = 0
 1488              		@ frame_needed = 0, uses_anonymous_args = 0
 1489              	.LVL137:
 1490 0000 2DE9F843 		push	{r3, r4, r5, r6, r7, r8, r9, lr}
 1491              		.cfi_def_cfa_offset 32
 1492              		.cfi_offset 3, -32
 1493              		.cfi_offset 4, -28
 1494              		.cfi_offset 5, -24
 1495              		.cfi_offset 6, -20
 1496              		.cfi_offset 7, -16
 1497              		.cfi_offset 8, -12
 1498              		.cfi_offset 9, -8
 1499              		.cfi_offset 14, -4
 1500 0004 0FFA81F8 		sxth	r8, r1
 1501 0008 00EB8807 		add	r7, r0, r8, lsl #2
 1502              		.loc 1 1078 0
 1503 000c 0D46     		mov	r5, r1
 1504              		.loc 1 1083 0
 1505 000e FB68     		ldr	r3, [r7, #12]
 1506 0010 1A68     		ldr	r2, [r3]
 1507 0012 02F00302 		and	r2, r2, #3
 1508 0016 022A     		cmp	r2, #2
 1509 0018 5ED0     		beq	.L174
 1510 001a 032A     		cmp	r2, #3
 1511 001c 5ED0     		beq	.L175
 1512              		.loc 1 1085 0
 1513 001e 4C4E     		ldr	r6, .L188
 1514 0020 4C49     		ldr	r1, .L188+4
 1515              	.LVL138:
 1516 0022 012A     		cmp	r2, #1
 1517 0024 18BF     		it	ne
 1518 0026 0E46     		movne	r6, r1
 1519              	.L176:
 1520              		.loc 1 1080 0
 1521 0028 046D     		ldr	r4, [r0, #80]
 1522              	.LVL139:
 1523              		.loc 1 1102 0
 1524 002a D968     		ldr	r1, [r3, #12]
 1525              		.loc 1 1101 0
 1526 002c 6A01     		lsls	r2, r5, #5
 1527 002e 04EB020E 		add	lr, r4, r2
 1528 0032 4FF0000C 		mov	ip, #0
 1529 0036 CEF810CB 		str	ip, [lr, #2832]
 1530              	.LVL140:
 1531              		.loc 1 1102 0
 1532 003a 0029     		cmp	r1, #0
 1533 003c 73D0     		beq	.L177
 1534              		.loc 1 1103 0
 1535 003e B3F812E0 		ldrh	lr, [r3, #18]
 1536 0042 05F15801 		add	r1, r5, #88
 1537 0046 4901     		lsls	r1, r1, #5
 1538 0048 4EEA060E 		orr	lr, lr, r6
 1539 004c 44F801E0 		str	lr, [r4, r1]
ARM GAS  /tmp/ccNA7Kai.s 			page 28


 1540              		.loc 1 1104 0
 1541 0050 05F1100C 		add	ip, r5, #16
 1542 0054 D4F81C18 		ldr	r1, [r4, #2076]
 1543 0058 4FF0010E 		mov	lr, #1
 1544 005c 0EFA0CFE 		lsl	lr, lr, ip
 1545 0060 4EEA0101 		orr	r1, lr, r1
 1546 0064 C4F81C18 		str	r1, [r4, #2076]
 1547              	.L178:
 1548              		.loc 1 1112 0
 1549 0068 2244     		add	r2, r2, r4
 1550              		.loc 1 1113 0
 1551 006a 9968     		ldr	r1, [r3, #8]
 1552              		.loc 1 1112 0
 1553 006c 4FF0000E 		mov	lr, #0
 1554 0070 C2F810E9 		str	lr, [r2, #2320]
 1555              		.loc 1 1113 0
 1556 0074 0029     		cmp	r1, #0
 1557 0076 33D0     		beq	.L179
 1558              		.loc 1 1116 0
 1559 0078 998B     		ldrh	r1, [r3, #28]
 1560              		.loc 1 1115 0
 1561 007a 1A8A     		ldrh	r2, [r3, #16]
 1562              		.loc 1 1116 0
 1563 007c 0129     		cmp	r1, #1
 1564              		.loc 1 1115 0
 1565 007e 4FEA9203 		lsr	r3, r2, #2
 1566              	.LVL141:
 1567              	.LBB209:
 1568              	.LBB210:
 1569              		.loc 1 228 0
 1570 0082 826D     		ldr	r2, [r0, #88]
 1571              	.LBE210:
 1572              	.LBE209:
 1573              		.loc 1 1117 0
 1574 0084 88BF     		it	hi
 1575 0086 4B43     		mulhi	r3, r1, r3
 1576              	.LVL142:
 1577              		.loc 1 1118 0
 1578 0088 05F13F01 		add	r1, r5, #63
 1579              	.LBB213:
 1580              	.LBB211:
 1581              		.loc 1 229 0
 1582 008c 03EB020E 		add	lr, r3, r2
 1583              	.LBE211:
 1584              	.LBE213:
 1585              		.loc 1 1118 0
 1586 0090 04EB8101 		add	r1, r4, r1, lsl #2
 1587 0094 42EA0343 		orr	r3, r2, r3, lsl #16
 1588              	.LVL143:
 1589              	.LBB214:
 1590              	.LBB215:
 1591              		.loc 1 198 0
 1592 0098 AA01     		lsls	r2, r5, #6
 1593              	.LVL144:
 1594 009a 42F02002 		orr	r2, r2, #32
 1595              	.LBE215:
 1596              	.LBE214:
ARM GAS  /tmp/ccNA7Kai.s 			page 29


 1597              	.LBB217:
 1598              	.LBB212:
 1599              		.loc 1 229 0
 1600 009e C0F858E0 		str	lr, [r0, #88]
 1601              	.LVL145:
 1602              	.LBE212:
 1603              	.LBE217:
 1604              		.loc 1 1118 0
 1605 00a2 4B60     		str	r3, [r1, #4]
 1606              	.LVL146:
 1607              	.LBB218:
 1608              	.LBB216:
 1609              		.loc 1 198 0
 1610 00a4 2261     		str	r2, [r4, #16]
 1611              	.LVL147:
 1612              	.L181:
 1613              		.loc 1 199 0
 1614 00a6 2369     		ldr	r3, [r4, #16]
 1615 00a8 9A06     		lsls	r2, r3, #26
 1616 00aa FCD4     		bmi	.L181
 1617              		.loc 1 202 0
 1618 00ac 0C20     		movs	r0, #12
 1619              	.LVL148:
 1620 00ae FFF7FEFF 		bl	halPolledDelay
 1621              	.LVL149:
 1622              	.LBE216:
 1623              	.LBE218:
 1624              		.loc 1 1124 0
 1625 00b2 FB68     		ldr	r3, [r7, #12]
 1626              		.loc 1 1123 0
 1627 00b4 1A8A     		ldrh	r2, [r3, #16]
 1628              		.loc 1 1122 0
 1629 00b6 05F14803 		add	r3, r5, #72
 1630              		.loc 1 1123 0
 1631 00ba 42EA8552 		orr	r2, r2, r5, lsl #22
 1632              		.loc 1 1122 0
 1633 00be 5B01     		lsls	r3, r3, #5
 1634              		.loc 1 1123 0
 1635 00c0 3243     		orrs	r2, r2, r6
 1636              		.loc 1 1122 0
 1637 00c2 E250     		str	r2, [r4, r3]
 1638              		.loc 1 1125 0
 1639 00c4 0121     		movs	r1, #1
 1640 00c6 D4F81C38 		ldr	r3, [r4, #2076]
 1641 00ca 01FA05F5 		lsl	r5, r1, r5
 1642 00ce 1D43     		orrs	r5, r5, r3
 1643 00d0 C4F81C58 		str	r5, [r4, #2076]
 1644 00d4 BDE8F883 		pop	{r3, r4, r5, r6, r7, r8, r9, pc}
 1645              	.LVL150:
 1646              	.L174:
 1647              		.loc 1 1091 0
 1648 00d8 1F4E     		ldr	r6, .L188+8
 1649              		.loc 1 1092 0
 1650 00da A5E7     		b	.L176
 1651              	.LVL151:
 1652              	.L175:
 1653              		.loc 1 1094 0
ARM GAS  /tmp/ccNA7Kai.s 			page 30


 1654 00dc 1F4E     		ldr	r6, .L188+12
 1655              		.loc 1 1095 0
 1656 00de A3E7     		b	.L176
 1657              	.LVL152:
 1658              	.L179:
 1659              		.loc 1 1128 0
 1660 00e0 05F13F02 		add	r2, r5, #63
 1661 00e4 04EB8202 		add	r2, r4, r2, lsl #2
 1662              	.LBB219:
 1663              	.LBB220:
 1664              		.loc 1 198 0
 1665 00e8 AB01     		lsls	r3, r5, #6
 1666              	.LBE220:
 1667              	.LBE219:
 1668              		.loc 1 1128 0
 1669 00ea 1D49     		ldr	r1, .L188+16
 1670 00ec 5160     		str	r1, [r2, #4]
 1671              	.LVL153:
 1672              	.LBB222:
 1673              	.LBB221:
 1674              		.loc 1 198 0
 1675 00ee 43F02003 		orr	r3, r3, #32
 1676 00f2 2361     		str	r3, [r4, #16]
 1677              	.LVL154:
 1678              	.L183:
 1679              		.loc 1 199 0
 1680 00f4 2369     		ldr	r3, [r4, #16]
 1681 00f6 9B06     		lsls	r3, r3, #26
 1682 00f8 FCD4     		bmi	.L183
 1683 00fa 04EB4818 		add	r8, r4, r8, lsl #5
 1684              		.loc 1 202 0
 1685 00fe 0C20     		movs	r0, #12
 1686              	.LVL155:
 1687 0100 FFF7FEFF 		bl	halPolledDelay
 1688              	.LVL156:
 1689              	.LBE221:
 1690              	.LBE222:
 1691              		.loc 1 1130 0
 1692 0104 D8F80039 		ldr	r3, [r8, #2304]
 1693 0108 23F40043 		bic	r3, r3, #32768
 1694 010c C8F80039 		str	r3, [r8, #2304]
 1695              		.loc 1 1131 0
 1696 0110 D4F81C38 		ldr	r3, [r4, #2076]
 1697 0114 0122     		movs	r2, #1
 1698 0116 02FA05F5 		lsl	r5, r2, r5
 1699 011a 23EA0503 		bic	r3, r3, r5
 1700 011e C4F81C38 		str	r3, [r4, #2076]
 1701 0122 BDE8F883 		pop	{r3, r4, r5, r6, r7, r8, r9, pc}
 1702              	.LVL157:
 1703              	.L177:
 1704 0126 04EB4811 		add	r1, r4, r8, lsl #5
 1705              		.loc 1 1108 0
 1706 012a 05F11009 		add	r9, r5, #16
 1707              		.loc 1 1107 0
 1708 012e D1F800CB 		ldr	ip, [r1, #2816]
 1709 0132 2CF4004C 		bic	ip, ip, #32768
 1710 0136 C1F800CB 		str	ip, [r1, #2816]
ARM GAS  /tmp/ccNA7Kai.s 			page 31


 1711              		.loc 1 1108 0
 1712 013a D4F81C18 		ldr	r1, [r4, #2076]
 1713 013e 4FF0010E 		mov	lr, #1
 1714 0142 0EFA09FE 		lsl	lr, lr, r9
 1715 0146 21EA0E01 		bic	r1, r1, lr
 1716 014a C4F81C18 		str	r1, [r4, #2076]
 1717 014e 8BE7     		b	.L178
 1718              	.L189:
 1719              		.align	2
 1720              	.L188:
 1721 0150 00800410 		.word	268730368
 1722 0154 00800010 		.word	268468224
 1723 0158 00800810 		.word	268992512
 1724 015c 00800C10 		.word	269254656
 1725 0160 00040002 		.word	33555456
 1726              		.cfi_endproc
 1727              	.LFE143:
 1728              		.size	usb_lld_init_endpoint, .-usb_lld_init_endpoint
 1729              		.section	.text.usb_lld_disable_endpoints,"ax",%progbits
 1730              		.align	2
 1731              		.p2align 4,,15
 1732              		.global	usb_lld_disable_endpoints
 1733              		.thumb
 1734              		.thumb_func
 1735              		.type	usb_lld_disable_endpoints, %function
 1736              	usb_lld_disable_endpoints:
 1737              	.LFB144:
 1738              		.loc 1 1142 0
 1739              		.cfi_startproc
 1740              		@ args = 0, pretend = 0, frame = 0
 1741              		@ frame_needed = 0, uses_anonymous_args = 0
 1742              		@ link register save eliminated.
 1743              	.LVL158:
 1744 0000 416D     		ldr	r1, [r0, #84]
 1745              	.LVL159:
 1746              		.loc 1 1142 0
 1747 0002 0346     		mov	r3, r0
 1748              	.LBB223:
 1749              	.LBB224:
 1750              		.loc 1 214 0
 1751 0004 0A68     		ldr	r2, [r1]
 1752              	.LBE224:
 1753              	.LBE223:
 1754              		.loc 1 1148 0
 1755 0006 006D     		ldr	r0, [r0, #80]
 1756              	.LVL160:
 1757              	.LBB226:
 1758              	.LBB225:
 1759              		.loc 1 214 0
 1760 0008 9A65     		str	r2, [r3, #88]
 1761              	.LBE225:
 1762              	.LBE226:
 1763              		.loc 1 1148 0
 1764 000a FFF7FEBF 		b	otg_disable_ep.isra.0
 1765              	.LVL161:
 1766              		.cfi_endproc
 1767              	.LFE144:
ARM GAS  /tmp/ccNA7Kai.s 			page 32


 1768              		.size	usb_lld_disable_endpoints, .-usb_lld_disable_endpoints
 1769 000e 00BF     		.section	.text.usb_lld_get_status_out,"ax",%progbits
 1770              		.align	2
 1771              		.p2align 4,,15
 1772              		.global	usb_lld_get_status_out
 1773              		.thumb
 1774              		.thumb_func
 1775              		.type	usb_lld_get_status_out, %function
 1776              	usb_lld_get_status_out:
 1777              	.LFB145:
 1778              		.loc 1 1163 0
 1779              		.cfi_startproc
 1780              		@ args = 0, pretend = 0, frame = 0
 1781              		@ frame_needed = 0, uses_anonymous_args = 0
 1782              		@ link register save eliminated.
 1783              	.LVL162:
 1784              		.loc 1 1168 0
 1785 0000 5831     		adds	r1, r1, #88
 1786              	.LVL163:
 1787 0002 036D     		ldr	r3, [r0, #80]
 1788 0004 4901     		lsls	r1, r1, #5
 1789 0006 5B58     		ldr	r3, [r3, r1]
 1790              	.LVL164:
 1791              		.loc 1 1169 0
 1792 0008 13F40040 		ands	r0, r3, #32768
 1793              	.LVL165:
 1794 000c 04D0     		beq	.L192
 1795              		.loc 1 1171 0
 1796 000e 13F4001F 		tst	r3, #2097152
 1797              		.loc 1 1173 0
 1798 0012 14BF     		ite	ne
 1799 0014 0120     		movne	r0, #1
 1800 0016 0220     		moveq	r0, #2
 1801              	.L192:
 1802              		.loc 1 1174 0
 1803 0018 7047     		bx	lr
 1804              		.cfi_endproc
 1805              	.LFE145:
 1806              		.size	usb_lld_get_status_out, .-usb_lld_get_status_out
 1807 001a 00BF     		.section	.text.usb_lld_get_status_in,"ax",%progbits
 1808              		.align	2
 1809              		.p2align 4,,15
 1810              		.global	usb_lld_get_status_in
 1811              		.thumb
 1812              		.thumb_func
 1813              		.type	usb_lld_get_status_in, %function
 1814              	usb_lld_get_status_in:
 1815              	.LFB146:
 1816              		.loc 1 1188 0
 1817              		.cfi_startproc
 1818              		@ args = 0, pretend = 0, frame = 0
 1819              		@ frame_needed = 0, uses_anonymous_args = 0
 1820              		@ link register save eliminated.
 1821              	.LVL166:
 1822              		.loc 1 1193 0
 1823 0000 4831     		adds	r1, r1, #72
 1824              	.LVL167:
ARM GAS  /tmp/ccNA7Kai.s 			page 33


 1825 0002 036D     		ldr	r3, [r0, #80]
 1826 0004 4901     		lsls	r1, r1, #5
 1827 0006 5B58     		ldr	r3, [r3, r1]
 1828              	.LVL168:
 1829              		.loc 1 1194 0
 1830 0008 13F40040 		ands	r0, r3, #32768
 1831              	.LVL169:
 1832 000c 04D0     		beq	.L196
 1833              		.loc 1 1196 0
 1834 000e 13F4001F 		tst	r3, #2097152
 1835              		.loc 1 1198 0
 1836 0012 14BF     		ite	ne
 1837 0014 0120     		movne	r0, #1
 1838 0016 0220     		moveq	r0, #2
 1839              	.L196:
 1840              		.loc 1 1199 0
 1841 0018 7047     		bx	lr
 1842              		.cfi_endproc
 1843              	.LFE146:
 1844              		.size	usb_lld_get_status_in, .-usb_lld_get_status_in
 1845 001a 00BF     		.section	.text.usb_lld_read_setup,"ax",%progbits
 1846              		.align	2
 1847              		.p2align 4,,15
 1848              		.global	usb_lld_read_setup
 1849              		.thumb
 1850              		.thumb_func
 1851              		.type	usb_lld_read_setup, %function
 1852              	usb_lld_read_setup:
 1853              	.LFB147:
 1854              		.loc 1 1215 0
 1855              		.cfi_startproc
 1856              		@ args = 0, pretend = 0, frame = 0
 1857              		@ frame_needed = 0, uses_anonymous_args = 0
 1858              		@ link register save eliminated.
 1859              	.LVL170:
 1860              		.loc 1 1217 0
 1861 0000 00EB8101 		add	r1, r0, r1, lsl #2
 1862              	.LVL171:
 1863 0004 CB68     		ldr	r3, [r1, #12]
 1864 0006 1B6A     		ldr	r3, [r3, #32]
 1865 0008 1968     		ldr	r1, [r3]	@ unaligned
 1866 000a 5B68     		ldr	r3, [r3, #4]	@ unaligned
 1867 000c 5360     		str	r3, [r2, #4]	@ unaligned
 1868 000e 1160     		str	r1, [r2]	@ unaligned
 1869 0010 7047     		bx	lr
 1870              		.cfi_endproc
 1871              	.LFE147:
 1872              		.size	usb_lld_read_setup, .-usb_lld_read_setup
 1873 0012 00BF     		.section	.text.usb_lld_prepare_receive,"ax",%progbits
 1874              		.align	2
 1875              		.p2align 4,,15
 1876              		.global	usb_lld_prepare_receive
 1877              		.thumb
 1878              		.thumb_func
 1879              		.type	usb_lld_prepare_receive, %function
 1880              	usb_lld_prepare_receive:
 1881              	.LFB148:
ARM GAS  /tmp/ccNA7Kai.s 			page 34


 1882              		.loc 1 1228 0
 1883              		.cfi_startproc
 1884              		@ args = 0, pretend = 0, frame = 0
 1885              		@ frame_needed = 0, uses_anonymous_args = 0
 1886              		@ link register save eliminated.
 1887              	.LVL172:
 1888              		.loc 1 1230 0
 1889 0000 00EB8103 		add	r3, r0, r1, lsl #2
 1890              		.loc 1 1228 0
 1891 0004 30B4     		push	{r4, r5}
 1892              		.cfi_def_cfa_offset 8
 1893              		.cfi_offset 4, -8
 1894              		.cfi_offset 5, -4
 1895              		.loc 1 1230 0
 1896 0006 DD68     		ldr	r5, [r3, #12]
 1897 0008 AC69     		ldr	r4, [r5, #24]
 1898              	.LVL173:
 1899              		.loc 1 1233 0
 1900 000a 6368     		ldr	r3, [r4, #4]
 1901 000c 2361     		str	r3, [r4, #16]
 1902              		.loc 1 1234 0
 1903 000e 31B9     		cbnz	r1, .L205
 1904              		.loc 1 1234 0 is_stmt 0 discriminator 1
 1905 0010 402B     		cmp	r3, #64
 1906 0012 04D9     		bls	.L205
 1907              		.loc 1 1235 0 is_stmt 1
 1908 0014 4023     		movs	r3, #64
 1909 0016 6360     		str	r3, [r4, #4]
 1910 0018 094A     		ldr	r2, .L206
 1911 001a 3F24     		movs	r4, #63
 1912              	.LVL174:
 1913 001c 02E0     		b	.L202
 1914              	.LVL175:
 1915              	.L205:
 1916 001e 5C1E     		subs	r4, r3, #1
 1917              	.LVL176:
 1918 0020 43F0C042 		orr	r2, r3, #1610612736
 1919              	.L202:
 1920              		.loc 1 1239 0
 1921 0024 006D     		ldr	r0, [r0, #80]
 1922              	.LVL177:
 1923              		.loc 1 1237 0
 1924 0026 6D8A     		ldrh	r5, [r5, #18]
 1925              	.LVL178:
 1926              		.loc 1 1239 0
 1927 0028 00EB4111 		add	r1, r0, r1, lsl #5
 1928              	.LVL179:
 1929 002c 2B19     		adds	r3, r5, r4
 1930 002e B3FBF5F3 		udiv	r3, r3, r5
 1931              	.LVL180:
 1932 0032 42EAC343 		orr	r3, r2, r3, lsl #19
 1933              	.LVL181:
 1934 0036 C1F8103B 		str	r3, [r1, #2832]
 1935              		.loc 1 1242 0
 1936 003a 30BC     		pop	{r4, r5}
 1937              		.cfi_restore 5
 1938              		.cfi_restore 4
ARM GAS  /tmp/ccNA7Kai.s 			page 35


 1939              		.cfi_def_cfa_offset 0
 1940              	.LVL182:
 1941 003c 7047     		bx	lr
 1942              	.L207:
 1943 003e 00BF     		.align	2
 1944              	.L206:
 1945 0040 40000060 		.word	1610612800
 1946              		.cfi_endproc
 1947              	.LFE148:
 1948              		.size	usb_lld_prepare_receive, .-usb_lld_prepare_receive
 1949              		.section	.text.otg_epout_handler.constprop.8,"ax",%progbits
 1950              		.align	2
 1951              		.p2align 4,,15
 1952              		.thumb
 1953              		.thumb_func
 1954              		.type	otg_epout_handler.constprop.8, %function
 1955              	otg_epout_handler.constprop.8:
 1956              	.LFB164:
 1957              		.loc 1 599 0
 1958              		.cfi_startproc
 1959              		@ args = 0, pretend = 0, frame = 0
 1960              		@ frame_needed = 0, uses_anonymous_args = 0
 1961              	.LVL183:
 1962 0000 2DE9F041 		push	{r4, r5, r6, r7, r8, lr}
 1963              		.cfi_def_cfa_offset 24
 1964              		.cfi_offset 4, -24
 1965              		.cfi_offset 5, -20
 1966              		.cfi_offset 6, -16
 1967              		.cfi_offset 7, -12
 1968              		.cfi_offset 8, -8
 1969              		.cfi_offset 14, -4
 1970              		.loc 1 600 0
 1971 0004 264E     		ldr	r6, .L227
 1972 0006 376D     		ldr	r7, [r6, #80]
 1973              	.LVL184:
 1974              		.loc 1 601 0
 1975 0008 07EB4013 		add	r3, r7, r0, lsl #5
 1976              		.loc 1 599 0
 1977 000c 0546     		mov	r5, r0
 1978              		.loc 1 601 0
 1979 000e D3F8084B 		ldr	r4, [r3, #2824]
 1980              	.LVL185:
 1981              		.loc 1 604 0
 1982 0012 C3F8084B 		str	r4, [r3, #2824]
 1983              		.loc 1 606 0
 1984 0016 2007     		lsls	r0, r4, #28
 1985              	.LVL186:
 1986 0018 03D5     		bpl	.L209
 1987 001a D7F81438 		ldr	r3, [r7, #2068]
 1988 001e 1907     		lsls	r1, r3, #28
 1989 0020 1DD4     		bmi	.L225
 1990              	.L209:
 1991              		.loc 1 612 0
 1992 0022 E207     		lsls	r2, r4, #31
 1993 0024 19D5     		bpl	.L208
 1994 0026 D7F81438 		ldr	r3, [r7, #2068]
 1995 002a DB07     		lsls	r3, r3, #31
ARM GAS  /tmp/ccNA7Kai.s 			page 36


 1996 002c 15D5     		bpl	.L208
 1997              	.LBB227:
 1998              		.loc 1 614 0
 1999 002e 06EB8506 		add	r6, r6, r5, lsl #2
 2000 0032 1B4C     		ldr	r4, .L227
 2001              	.LVL187:
 2002 0034 F168     		ldr	r1, [r6, #12]
 2003 0036 8B69     		ldr	r3, [r1, #24]
 2004              	.LVL188:
 2005              		.loc 1 616 0
 2006 0038 5868     		ldr	r0, [r3, #4]
 2007 003a 1A69     		ldr	r2, [r3, #16]
 2008 003c 9042     		cmp	r0, r2
 2009 003e 16D3     		bcc	.L226
 2010              		.loc 1 629 0
 2011 0040 6289     		ldrh	r2, [r4, #10]
 2012 0042 CE68     		ldr	r6, [r1, #12]
 2013 0044 0123     		movs	r3, #1
 2014              	.LVL189:
 2015 0046 AB40     		lsls	r3, r3, r5
 2016 0048 22EA0303 		bic	r3, r2, r3
 2017 004c 6381     		strh	r3, [r4, #10]	@ movhi
 2018 004e 2946     		mov	r1, r5
 2019              	.LVL190:
 2020 0050 2046     		mov	r0, r4
 2021 0052 3346     		mov	r3, r6
 2022              	.LBE227:
 2023              		.loc 1 632 0
 2024 0054 BDE8F041 		pop	{r4, r5, r6, r7, r8, lr}
 2025              		.cfi_remember_state
 2026              		.cfi_restore 14
 2027              		.cfi_restore 8
 2028              		.cfi_restore 7
 2029              		.cfi_restore 6
 2030              		.cfi_restore 5
 2031              		.cfi_restore 4
 2032              		.cfi_def_cfa_offset 0
 2033              	.LVL191:
 2034              	.LBB233:
 2035              		.loc 1 629 0
 2036 0058 1847     		bx	r3	@ indirect register sibling call
 2037              	.LVL192:
 2038              	.L208:
 2039              		.cfi_restore_state
 2040 005a BDE8F081 		pop	{r4, r5, r6, r7, r8, pc}
 2041              	.LVL193:
 2042              	.L225:
 2043              	.LBE233:
 2044              		.loc 1 609 0
 2045 005e 06EB8503 		add	r3, r6, r5, lsl #2
 2046 0062 2946     		mov	r1, r5
 2047 0064 DB68     		ldr	r3, [r3, #12]
 2048 0066 3046     		mov	r0, r6
 2049 0068 5B68     		ldr	r3, [r3, #4]
 2050 006a 9847     		blx	r3
 2051              	.LVL194:
 2052 006c D9E7     		b	.L209
ARM GAS  /tmp/ccNA7Kai.s 			page 37


 2053              	.LVL195:
 2054              	.L226:
 2055              	.LBB234:
 2056              		.loc 1 620 0
 2057 006e 121A     		subs	r2, r2, r0
 2058              		.loc 1 621 0
 2059 0070 0026     		movs	r6, #0
 2060              		.loc 1 620 0
 2061 0072 5A60     		str	r2, [r3, #4]
 2062              		.loc 1 621 0
 2063 0074 9E60     		str	r6, [r3, #8]
 2064              		.loc 1 622 0
 2065 0076 2946     		mov	r1, r5
 2066 0078 2046     		mov	r0, r4
 2067 007a FFF7FEFF 		bl	usb_lld_prepare_receive
 2068              	.LVL196:
 2069              	.LBB228:
 2070              		.loc 1 623 0
 2071 007e 2023     		movs	r3, #32
 2072              		.syntax unified
 2073              	@ 623 "../ChibiOS_2.6.9/os/hal/platforms/STM32/OTGv1/usb_lld.c" 1
 2074 0080 83F31188 		msr     BASEPRI, r3
 2075              	@ 0 "" 2
 2076              	.LVL197:
 2077              		.thumb
 2078              		.syntax unified
 2079 0084 236D     		ldr	r3, [r4, #80]
 2080 0086 03EB4515 		add	r5, r3, r5, lsl #5
 2081              	.LVL198:
 2082              	.LBE228:
 2083              	.LBB229:
 2084              		.loc 1 625 0
 2085 008a 3346     		mov	r3, r6
 2086              	.LBE229:
 2087              	.LBB230:
 2088              	.LBB231:
 2089              		.loc 1 1283 0
 2090 008c D5F8002B 		ldr	r2, [r5, #2816]
 2091 0090 42F08062 		orr	r2, r2, #67108864
 2092 0094 C5F8002B 		str	r2, [r5, #2816]
 2093              	.LVL199:
 2094              	.LBE231:
 2095              	.LBE230:
 2096              	.LBB232:
 2097              		.loc 1 625 0
 2098              		.syntax unified
 2099              	@ 625 "../ChibiOS_2.6.9/os/hal/platforms/STM32/OTGv1/usb_lld.c" 1
 2100 0098 83F31188 		msr     BASEPRI, r3
 2101              	@ 0 "" 2
 2102              		.thumb
 2103              		.syntax unified
 2104 009c BDE8F081 		pop	{r4, r5, r6, r7, r8, pc}
 2105              	.LVL200:
 2106              	.L228:
 2107              		.align	2
 2108              	.L227:
 2109 00a0 00000000 		.word	.LANCHOR0
ARM GAS  /tmp/ccNA7Kai.s 			page 38


 2110              	.LBE232:
 2111              	.LBE234:
 2112              		.cfi_endproc
 2113              	.LFE164:
 2114              		.size	otg_epout_handler.constprop.8, .-otg_epout_handler.constprop.8
 2115              		.section	.text.usb_lld_prepare_transmit,"ax",%progbits
 2116              		.align	2
 2117              		.p2align 4,,15
 2118              		.global	usb_lld_prepare_transmit
 2119              		.thumb
 2120              		.thumb_func
 2121              		.type	usb_lld_prepare_transmit, %function
 2122              	usb_lld_prepare_transmit:
 2123              	.LFB149:
 2124              		.loc 1 1252 0
 2125              		.cfi_startproc
 2126              		@ args = 0, pretend = 0, frame = 0
 2127              		@ frame_needed = 0, uses_anonymous_args = 0
 2128              		@ link register save eliminated.
 2129              	.LVL201:
 2130              		.loc 1 1253 0
 2131 0000 00EB8103 		add	r3, r0, r1, lsl #2
 2132              		.loc 1 1252 0
 2133 0004 10B4     		push	{r4}
 2134              		.cfi_def_cfa_offset 4
 2135              		.cfi_offset 4, -4
 2136              		.loc 1 1253 0
 2137 0006 DC68     		ldr	r4, [r3, #12]
 2138 0008 6269     		ldr	r2, [r4, #20]
 2139              	.LVL202:
 2140              		.loc 1 1256 0
 2141 000a 5368     		ldr	r3, [r2, #4]
 2142 000c 1361     		str	r3, [r2, #16]
 2143              		.loc 1 1257 0
 2144 000e A3B1     		cbz	r3, .L237
 2145              	.LBB235:
 2146              		.loc 1 1262 0
 2147 0010 69B1     		cbz	r1, .L238
 2148              	.L236:
 2149 0012 5A1E     		subs	r2, r3, #1
 2150              	.LVL203:
 2151              	.L233:
 2152              		.loc 1 1268 0
 2153 0014 006D     		ldr	r0, [r0, #80]
 2154              	.LVL204:
 2155              		.loc 1 1266 0
 2156 0016 248A     		ldrh	r4, [r4, #16]
 2157              	.LVL205:
 2158              		.loc 1 1268 0
 2159 0018 00EB4111 		add	r1, r0, r1, lsl #5
 2160              	.LVL206:
 2161 001c 2244     		add	r2, r2, r4
 2162              	.LVL207:
 2163 001e B2FBF4F2 		udiv	r2, r2, r4
 2164              	.LVL208:
 2165 0022 43EAC243 		orr	r3, r3, r2, lsl #19
 2166 0026 C1F81039 		str	r3, [r1, #2320]
ARM GAS  /tmp/ccNA7Kai.s 			page 39


 2167              	.LBE235:
 2168              		.loc 1 1271 0
 2169 002a 10BC     		pop	{r4}
 2170              		.cfi_remember_state
 2171              		.cfi_restore 4
 2172              		.cfi_def_cfa_offset 0
 2173 002c 7047     		bx	lr
 2174              	.LVL209:
 2175              	.L238:
 2176              		.cfi_restore_state
 2177              	.LBB236:
 2178              		.loc 1 1262 0 discriminator 1
 2179 002e 402B     		cmp	r3, #64
 2180 0030 EFD9     		bls	.L236
 2181              		.loc 1 1263 0
 2182 0032 4023     		movs	r3, #64
 2183 0034 5360     		str	r3, [r2, #4]
 2184 0036 3F22     		movs	r2, #63
 2185              	.LVL210:
 2186 0038 ECE7     		b	.L233
 2187              	.LVL211:
 2188              	.L237:
 2189              	.LBE236:
 2190              		.loc 1 1259 0
 2191 003a 036D     		ldr	r3, [r0, #80]
 2192              		.loc 1 1271 0
 2193 003c 10BC     		pop	{r4}
 2194              		.cfi_restore 4
 2195              		.cfi_def_cfa_offset 0
 2196              		.loc 1 1259 0
 2197 003e 03EB4111 		add	r1, r3, r1, lsl #5
 2198              	.LVL212:
 2199 0042 4FF40023 		mov	r3, #524288
 2200 0046 C1F81039 		str	r3, [r1, #2320]
 2201              		.loc 1 1271 0
 2202 004a 7047     		bx	lr
 2203              		.cfi_endproc
 2204              	.LFE149:
 2205              		.size	usb_lld_prepare_transmit, .-usb_lld_prepare_transmit
 2206              		.section	.text.otg_epin_handler.constprop.9,"ax",%progbits
 2207              		.align	2
 2208              		.p2align 4,,15
 2209              		.thumb
 2210              		.thumb_func
 2211              		.type	otg_epin_handler.constprop.9, %function
 2212              	otg_epin_handler.constprop.9:
 2213              	.LFB163:
 2214              		.loc 1 551 0
 2215              		.cfi_startproc
 2216              		@ args = 0, pretend = 0, frame = 0
 2217              		@ frame_needed = 0, uses_anonymous_args = 0
 2218              	.LVL213:
 2219 0000 2DE9F041 		push	{r4, r5, r6, r7, r8, lr}
 2220              		.cfi_def_cfa_offset 24
 2221              		.cfi_offset 4, -24
 2222              		.cfi_offset 5, -20
 2223              		.cfi_offset 6, -16
ARM GAS  /tmp/ccNA7Kai.s 			page 40


 2224              		.cfi_offset 7, -12
 2225              		.cfi_offset 8, -8
 2226              		.cfi_offset 14, -4
 2227              		.loc 1 552 0
 2228 0004 324D     		ldr	r5, .L261
 2229 0006 2E6D     		ldr	r6, [r5, #80]
 2230              	.LVL214:
 2231              		.loc 1 553 0
 2232 0008 06EB4013 		add	r3, r6, r0, lsl #5
 2233              		.loc 1 551 0
 2234 000c 0746     		mov	r7, r0
 2235              		.loc 1 553 0
 2236 000e D3F80849 		ldr	r4, [r3, #2312]
 2237              	.LVL215:
 2238              		.loc 1 555 0
 2239 0012 C3F80849 		str	r4, [r3, #2312]
 2240              		.loc 1 560 0
 2241 0016 E107     		lsls	r1, r4, #31
 2242 0018 03D5     		bpl	.L240
 2243 001a D6F81038 		ldr	r3, [r6, #2064]
 2244 001e DA07     		lsls	r2, r3, #31
 2245 0020 20D4     		bmi	.L260
 2246              	.LVL216:
 2247              	.L240:
 2248              		.loc 1 580 0
 2249 0022 2306     		lsls	r3, r4, #24
 2250 0024 1CD5     		bpl	.L239
 2251 0026 0123     		movs	r3, #1
 2252              		.loc 1 581 0
 2253 0028 D6F83428 		ldr	r2, [r6, #2100]
 2254              		.loc 1 580 0
 2255 002c 03FA07F7 		lsl	r7, r3, r7
 2256 0030 1742     		tst	r7, r2
 2257 0032 15D0     		beq	.L239
 2258              	.LBB237:
 2259              		.loc 1 583 0
 2260 0034 2023     		movs	r3, #32
 2261              		.syntax unified
 2262              	@ 583 "../ChibiOS_2.6.9/os/hal/platforms/STM32/OTGv1/usb_lld.c" 1
 2263 0036 83F31188 		msr     BASEPRI, r3
 2264              	@ 0 "" 2
 2265              		.thumb
 2266              		.syntax unified
 2267              	.LBE237:
 2268              		.loc 1 584 0
 2269 003a EA6D     		ldr	r2, [r5, #92]
 2270              		.loc 1 585 0
 2271 003c D6F83438 		ldr	r3, [r6, #2100]
 2272              	.LBB238:
 2273              	.LBB239:
 2274              		.loc 1 125 0
 2275 0040 686E     		ldr	r0, [r5, #100]
 2276              	.LBE239:
 2277              	.LBE238:
 2278              		.loc 1 584 0
 2279 0042 234C     		ldr	r4, .L261
 2280              	.LVL217:
ARM GAS  /tmp/ccNA7Kai.s 			page 41


 2281 0044 3A43     		orrs	r2, r2, r7
 2282              		.loc 1 585 0
 2283 0046 23EA0707 		bic	r7, r3, r7
 2284              		.loc 1 584 0
 2285 004a EA65     		str	r2, [r5, #92]
 2286              		.loc 1 585 0
 2287 004c C6F83478 		str	r7, [r6, #2100]
 2288              	.LVL218:
 2289              	.LBB241:
 2290              	.LBB240:
 2291              		.loc 1 125 0
 2292 0050 18B1     		cbz	r0, .L243
 2293              		.loc 1 126 0
 2294 0052 FFF7FEFF 		bl	chSchReadyI
 2295              	.LVL219:
 2296              		.loc 1 127 0
 2297 0056 0023     		movs	r3, #0
 2298 0058 6366     		str	r3, [r4, #100]
 2299              	.L243:
 2300              	.LBE240:
 2301              	.LBE241:
 2302              	.LBB242:
 2303              		.loc 1 587 0
 2304 005a 0023     		movs	r3, #0
 2305              		.syntax unified
 2306              	@ 587 "../ChibiOS_2.6.9/os/hal/platforms/STM32/OTGv1/usb_lld.c" 1
 2307 005c 83F31188 		msr     BASEPRI, r3
 2308              	@ 0 "" 2
 2309              	.LVL220:
 2310              		.thumb
 2311              		.syntax unified
 2312              	.L239:
 2313 0060 BDE8F081 		pop	{r4, r5, r6, r7, r8, pc}
 2314              	.LVL221:
 2315              	.L260:
 2316              	.LBE242:
 2317              	.LBB243:
 2318              		.loc 1 562 0
 2319 0064 05EB8003 		add	r3, r5, r0, lsl #2
 2320 0068 D968     		ldr	r1, [r3, #12]
 2321 006a 4B69     		ldr	r3, [r1, #20]
 2322              	.LVL222:
 2323              		.loc 1 564 0
 2324 006c 5868     		ldr	r0, [r3, #4]
 2325              	.LVL223:
 2326 006e 1A69     		ldr	r2, [r3, #16]
 2327 0070 9042     		cmp	r0, r2
 2328 0072 20D2     		bcs	.L241
 2329              		.loc 1 568 0
 2330 0074 121A     		subs	r2, r2, r0
 2331              		.loc 1 569 0
 2332 0076 4FF00008 		mov	r8, #0
 2333              		.loc 1 568 0
 2334 007a 5A60     		str	r2, [r3, #4]
 2335              		.loc 1 569 0
 2336 007c C3F80880 		str	r8, [r3, #8]
 2337              		.loc 1 570 0
ARM GAS  /tmp/ccNA7Kai.s 			page 42


 2338 0080 3946     		mov	r1, r7
 2339 0082 2846     		mov	r0, r5
 2340 0084 FFF7FEFF 		bl	usb_lld_prepare_transmit
 2341              	.LVL224:
 2342              	.LBB244:
 2343              		.loc 1 571 0
 2344 0088 2023     		movs	r3, #32
 2345              		.syntax unified
 2346              	@ 571 "../ChibiOS_2.6.9/os/hal/platforms/STM32/OTGv1/usb_lld.c" 1
 2347 008a 83F31188 		msr     BASEPRI, r3
 2348              	@ 0 "" 2
 2349              	.LVL225:
 2350              		.thumb
 2351              		.syntax unified
 2352              	.LBE244:
 2353              	.LBB245:
 2354              	.LBB246:
 2355              		.loc 1 1296 0
 2356 008e 2A6D     		ldr	r2, [r5, #80]
 2357 0090 02EB4710 		add	r0, r2, r7, lsl #5
 2358              	.LBE246:
 2359              	.LBE245:
 2360              	.LBB248:
 2361              		.loc 1 573 0
 2362 0094 4346     		mov	r3, r8
 2363              	.LBE248:
 2364              	.LBB249:
 2365              	.LBB247:
 2366              		.loc 1 1296 0
 2367 0096 D0F80019 		ldr	r1, [r0, #2304]
 2368 009a 41F00441 		orr	r1, r1, #-2080374784
 2369 009e C0F80019 		str	r1, [r0, #2304]
 2370              		.loc 1 1297 0
 2371 00a2 D2F83408 		ldr	r0, [r2, #2100]
 2372 00a6 0121     		movs	r1, #1
 2373 00a8 B940     		lsls	r1, r1, r7
 2374 00aa 0143     		orrs	r1, r1, r0
 2375 00ac C2F83418 		str	r1, [r2, #2100]
 2376              	.LVL226:
 2377              	.LBE247:
 2378              	.LBE249:
 2379              	.LBB250:
 2380              		.loc 1 573 0
 2381              		.syntax unified
 2382              	@ 573 "../ChibiOS_2.6.9/os/hal/platforms/STM32/OTGv1/usb_lld.c" 1
 2383 00b0 83F31188 		msr     BASEPRI, r3
 2384              	@ 0 "" 2
 2385              		.thumb
 2386              		.syntax unified
 2387 00b4 B5E7     		b	.L240
 2388              	.LVL227:
 2389              	.L241:
 2390              	.LBE250:
 2391              		.loc 1 577 0
 2392 00b6 2A89     		ldrh	r2, [r5, #8]
 2393 00b8 D1F80880 		ldr	r8, [r1, #8]
 2394 00bc 0123     		movs	r3, #1
ARM GAS  /tmp/ccNA7Kai.s 			page 43


 2395              	.LVL228:
 2396 00be BB40     		lsls	r3, r3, r7
 2397 00c0 22EA0303 		bic	r3, r2, r3
 2398 00c4 2B81     		strh	r3, [r5, #8]	@ movhi
 2399 00c6 3946     		mov	r1, r7
 2400              	.LVL229:
 2401 00c8 2846     		mov	r0, r5
 2402 00ca C047     		blx	r8
 2403              	.LVL230:
 2404 00cc A9E7     		b	.L240
 2405              	.L262:
 2406 00ce 00BF     		.align	2
 2407              	.L261:
 2408 00d0 00000000 		.word	.LANCHOR0
 2409              	.LBE243:
 2410              		.cfi_endproc
 2411              	.LFE163:
 2412              		.size	otg_epin_handler.constprop.9, .-otg_epin_handler.constprop.9
 2413              		.section	.text.Vector14C,"ax",%progbits
 2414              		.align	2
 2415              		.p2align 4,,15
 2416              		.global	Vector14C
 2417              		.thumb
 2418              		.thumb_func
 2419              		.type	Vector14C, %function
 2420              	Vector14C:
 2421              	.LFB137:
 2422              		.loc 1 780 0
 2423              		.cfi_startproc
 2424              		@ args = 0, pretend = 0, frame = 0
 2425              		@ frame_needed = 0, uses_anonymous_args = 0
 2426              	.LVL231:
 2427 0000 70B5     		push	{r4, r5, r6, lr}
 2428              		.cfi_def_cfa_offset 16
 2429              		.cfi_offset 4, -16
 2430              		.cfi_offset 5, -12
 2431              		.cfi_offset 6, -8
 2432              		.cfi_offset 14, -4
 2433              	.LBB257:
 2434              	.LBB258:
 2435              		.loc 1 642 0
 2436 0002 3B4D     		ldr	r5, .L335
 2437 0004 2E6D     		ldr	r6, [r5, #80]
 2438              	.LVL232:
 2439              		.loc 1 645 0
 2440 0006 7469     		ldr	r4, [r6, #20]
 2441              	.LVL233:
 2442              		.loc 1 646 0
 2443 0008 B369     		ldr	r3, [r6, #24]
 2444 000a 1C40     		ands	r4, r4, r3
 2445              	.LVL234:
 2446              		.loc 1 650 0
 2447 000c E004     		lsls	r0, r4, #19
 2448              		.loc 1 647 0
 2449 000e 7461     		str	r4, [r6, #20]
 2450              		.loc 1 650 0
 2451 0010 3ED4     		bmi	.L326
ARM GAS  /tmp/ccNA7Kai.s 			page 44


 2452              	.L265:
 2453              		.loc 1 656 0
 2454 0012 A104     		lsls	r1, r4, #18
 2455              		.loc 1 657 0
 2456 0014 48BF     		it	mi
 2457 0016 D6F80838 		ldrmi	r3, [r6, #2056]
 2458              		.loc 1 661 0
 2459 001a 2207     		lsls	r2, r4, #28
 2460 001c 04D5     		bpl	.L268
 2461              		.loc 1 662 0
 2462 001e 6B68     		ldr	r3, [r5, #4]
 2463 0020 DB68     		ldr	r3, [r3, #12]
 2464 0022 0BB1     		cbz	r3, .L268
 2465 0024 3248     		ldr	r0, .L335
 2466 0026 9847     		blx	r3
 2467              	.LVL235:
 2468              	.L268:
 2469              		.loc 1 666 0
 2470 0028 E306     		lsls	r3, r4, #27
 2471 002a 10D5     		bpl	.L269
 2472              	.LBB259:
 2473              		.loc 1 669 0
 2474 002c 2023     		movs	r3, #32
 2475              		.syntax unified
 2476              	@ 669 "../ChibiOS_2.6.9/os/hal/platforms/STM32/OTGv1/usb_lld.c" 1
 2477 002e 83F31188 		msr     BASEPRI, r3
 2478              	@ 0 "" 2
 2479              		.thumb
 2480              		.syntax unified
 2481              	.LBE259:
 2482              		.loc 1 670 0
 2483 0032 B369     		ldr	r3, [r6, #24]
 2484              	.LBB260:
 2485              	.LBB261:
 2486              		.loc 1 125 0
 2487 0034 686E     		ldr	r0, [r5, #100]
 2488 0036 2E4D     		ldr	r5, .L335
 2489              	.LBE261:
 2490              	.LBE260:
 2491              		.loc 1 670 0
 2492 0038 23F01003 		bic	r3, r3, #16
 2493 003c B361     		str	r3, [r6, #24]
 2494              	.LVL236:
 2495              	.LBB263:
 2496              	.LBB262:
 2497              		.loc 1 125 0
 2498 003e 18B1     		cbz	r0, .L270
 2499              		.loc 1 126 0
 2500 0040 FFF7FEFF 		bl	chSchReadyI
 2501              	.LVL237:
 2502              		.loc 1 127 0
 2503 0044 0023     		movs	r3, #0
 2504 0046 6B66     		str	r3, [r5, #100]
 2505              	.L270:
 2506              	.LBE262:
 2507              	.LBE263:
 2508              	.LBB264:
ARM GAS  /tmp/ccNA7Kai.s 			page 45


 2509              		.loc 1 672 0
 2510 0048 0023     		movs	r3, #0
 2511              		.syntax unified
 2512              	@ 672 "../ChibiOS_2.6.9/os/hal/platforms/STM32/OTGv1/usb_lld.c" 1
 2513 004a 83F31188 		msr     BASEPRI, r3
 2514              	@ 0 "" 2
 2515              	.LVL238:
 2516              		.thumb
 2517              		.syntax unified
 2518              	.L269:
 2519              	.LBE264:
 2520              		.loc 1 677 0
 2521 004e 6003     		lsls	r0, r4, #13
 2522              		.loc 1 676 0
 2523 0050 D6F81858 		ldr	r5, [r6, #2072]
 2524              	.LVL239:
 2525              		.loc 1 677 0
 2526 0054 07D5     		bpl	.L272
 2527              		.loc 1 678 0
 2528 0056 E907     		lsls	r1, r5, #31
 2529 0058 36D4     		bmi	.L327
 2530              		.loc 1 680 0
 2531 005a AA07     		lsls	r2, r5, #30
 2532 005c 39D4     		bmi	.L328
 2533              	.L274:
 2534              		.loc 1 682 0
 2535 005e 6B07     		lsls	r3, r5, #29
 2536 0060 3CD4     		bmi	.L329
 2537              	.L275:
 2538              		.loc 1 684 0
 2539 0062 2E07     		lsls	r6, r5, #28
 2540              	.LVL240:
 2541 0064 3FD4     		bmi	.L330
 2542              	.L272:
 2543              		.loc 1 693 0
 2544 0066 2403     		lsls	r4, r4, #12
 2545              	.LVL241:
 2546 0068 07D5     		bpl	.L278
 2547              		.loc 1 694 0
 2548 006a E803     		lsls	r0, r5, #15
 2549 006c 21D4     		bmi	.L331
 2550              		.loc 1 696 0
 2551 006e A903     		lsls	r1, r5, #14
 2552 0070 24D4     		bmi	.L332
 2553              	.L280:
 2554              		.loc 1 698 0
 2555 0072 6A03     		lsls	r2, r5, #13
 2556 0074 17D4     		bmi	.L333
 2557              	.L281:
 2558              		.loc 1 700 0
 2559 0076 2B03     		lsls	r3, r5, #12
 2560 0078 03D4     		bmi	.L334
 2561              	.L278:
 2562              	.LVL242:
 2563              	.LBE258:
 2564              	.LBE257:
 2565              		.loc 1 787 0
ARM GAS  /tmp/ccNA7Kai.s 			page 46


 2566 007a BDE87040 		pop	{r4, r5, r6, lr}
 2567              		.cfi_remember_state
 2568              		.cfi_restore 14
 2569              		.cfi_restore 6
 2570              		.cfi_restore 5
 2571              		.cfi_restore 4
 2572              		.cfi_def_cfa_offset 0
 2573              		.loc 1 786 0
 2574 007e FFF7FEBF 		b	_port_irq_epilogue
 2575              	.LVL243:
 2576              	.L334:
 2577              		.cfi_restore_state
 2578              	.LBB267:
 2579              	.LBB265:
 2580              		.loc 1 701 0
 2581 0082 0320     		movs	r0, #3
 2582 0084 FFF7FEFF 		bl	otg_epout_handler.constprop.8
 2583              	.LVL244:
 2584              	.LBE265:
 2585              	.LBE267:
 2586              		.loc 1 787 0
 2587 0088 BDE87040 		pop	{r4, r5, r6, lr}
 2588              		.cfi_remember_state
 2589              		.cfi_restore 4
 2590              		.cfi_restore 5
 2591              		.cfi_restore 6
 2592              		.cfi_restore 14
 2593              		.cfi_def_cfa_offset 0
 2594              		.loc 1 786 0
 2595 008c FFF7FEBF 		b	_port_irq_epilogue
 2596              	.LVL245:
 2597              	.L326:
 2598              		.cfi_restore_state
 2599              	.LBB268:
 2600              	.LBB266:
 2601              		.loc 1 651 0
 2602 0090 2846     		mov	r0, r5
 2603 0092 FFF7FEFF 		bl	_usb_reset
 2604              	.LVL246:
 2605              		.loc 1 652 0
 2606 0096 6B68     		ldr	r3, [r5, #4]
 2607 0098 1B68     		ldr	r3, [r3]
 2608 009a 002B     		cmp	r3, #0
 2609 009c B9D0     		beq	.L265
 2610 009e 0021     		movs	r1, #0
 2611 00a0 2846     		mov	r0, r5
 2612 00a2 9847     		blx	r3
 2613              	.LVL247:
 2614 00a4 B5E7     		b	.L265
 2615              	.LVL248:
 2616              	.L333:
 2617              		.loc 1 699 0
 2618 00a6 0220     		movs	r0, #2
 2619 00a8 FFF7FEFF 		bl	otg_epout_handler.constprop.8
 2620              	.LVL249:
 2621              		.loc 1 700 0
 2622 00ac 2B03     		lsls	r3, r5, #12
ARM GAS  /tmp/ccNA7Kai.s 			page 47


 2623 00ae E4D5     		bpl	.L278
 2624 00b0 E7E7     		b	.L334
 2625              	.L331:
 2626              		.loc 1 695 0
 2627 00b2 0020     		movs	r0, #0
 2628 00b4 FFF7FEFF 		bl	otg_epout_handler.constprop.8
 2629              	.LVL250:
 2630              		.loc 1 696 0
 2631 00b8 A903     		lsls	r1, r5, #14
 2632 00ba DAD5     		bpl	.L280
 2633              	.L332:
 2634              		.loc 1 697 0
 2635 00bc 0120     		movs	r0, #1
 2636 00be FFF7FEFF 		bl	otg_epout_handler.constprop.8
 2637              	.LVL251:
 2638              		.loc 1 698 0
 2639 00c2 6A03     		lsls	r2, r5, #13
 2640 00c4 D7D5     		bpl	.L281
 2641 00c6 EEE7     		b	.L333
 2642              	.LVL252:
 2643              	.L327:
 2644              		.loc 1 679 0
 2645 00c8 0020     		movs	r0, #0
 2646 00ca FFF7FEFF 		bl	otg_epin_handler.constprop.9
 2647              	.LVL253:
 2648              		.loc 1 680 0
 2649 00ce AA07     		lsls	r2, r5, #30
 2650 00d0 C5D5     		bpl	.L274
 2651              	.L328:
 2652              		.loc 1 681 0
 2653 00d2 0120     		movs	r0, #1
 2654 00d4 FFF7FEFF 		bl	otg_epin_handler.constprop.9
 2655              	.LVL254:
 2656              		.loc 1 682 0
 2657 00d8 6B07     		lsls	r3, r5, #29
 2658 00da C2D5     		bpl	.L275
 2659              	.L329:
 2660              		.loc 1 683 0
 2661 00dc 0220     		movs	r0, #2
 2662 00de FFF7FEFF 		bl	otg_epin_handler.constprop.9
 2663              	.LVL255:
 2664              		.loc 1 684 0
 2665 00e2 2E07     		lsls	r6, r5, #28
 2666              	.LVL256:
 2667 00e4 BFD5     		bpl	.L272
 2668              	.L330:
 2669              		.loc 1 685 0
 2670 00e6 0320     		movs	r0, #3
 2671 00e8 FFF7FEFF 		bl	otg_epin_handler.constprop.9
 2672              	.LVL257:
 2673 00ec BBE7     		b	.L272
 2674              	.L336:
 2675 00ee 00BF     		.align	2
 2676              	.L335:
 2677 00f0 00000000 		.word	.LANCHOR0
 2678              	.LBE266:
 2679              	.LBE268:
ARM GAS  /tmp/ccNA7Kai.s 			page 48


 2680              		.cfi_endproc
 2681              	.LFE137:
 2682              		.size	Vector14C, .-Vector14C
 2683              		.section	.text.usb_lld_start_out,"ax",%progbits
 2684              		.align	2
 2685              		.p2align 4,,15
 2686              		.global	usb_lld_start_out
 2687              		.thumb
 2688              		.thumb_func
 2689              		.type	usb_lld_start_out, %function
 2690              	usb_lld_start_out:
 2691              	.LFB150:
 2692              		.loc 1 1281 0
 2693              		.cfi_startproc
 2694              		@ args = 0, pretend = 0, frame = 0
 2695              		@ frame_needed = 0, uses_anonymous_args = 0
 2696              		@ link register save eliminated.
 2697              	.LVL258:
 2698 0000 036D     		ldr	r3, [r0, #80]
 2699 0002 03EB4111 		add	r1, r3, r1, lsl #5
 2700              	.LVL259:
 2701              		.loc 1 1283 0
 2702 0006 D1F8003B 		ldr	r3, [r1, #2816]
 2703 000a 43F08063 		orr	r3, r3, #67108864
 2704 000e C1F8003B 		str	r3, [r1, #2816]
 2705 0012 7047     		bx	lr
 2706              		.cfi_endproc
 2707              	.LFE150:
 2708              		.size	usb_lld_start_out, .-usb_lld_start_out
 2709              		.section	.text.usb_lld_start_in,"ax",%progbits
 2710              		.align	2
 2711              		.p2align 4,,15
 2712              		.global	usb_lld_start_in
 2713              		.thumb
 2714              		.thumb_func
 2715              		.type	usb_lld_start_in, %function
 2716              	usb_lld_start_in:
 2717              	.LFB151:
 2718              		.loc 1 1294 0
 2719              		.cfi_startproc
 2720              		@ args = 0, pretend = 0, frame = 0
 2721              		@ frame_needed = 0, uses_anonymous_args = 0
 2722              		@ link register save eliminated.
 2723              	.LVL260:
 2724              		.loc 1 1296 0
 2725 0000 036D     		ldr	r3, [r0, #80]
 2726              		.loc 1 1294 0
 2727 0002 10B4     		push	{r4}
 2728              		.cfi_def_cfa_offset 4
 2729              		.cfi_offset 4, -4
 2730 0004 03EB4114 		add	r4, r3, r1, lsl #5
 2731              		.loc 1 1297 0
 2732 0008 0120     		movs	r0, #1
 2733              	.LVL261:
 2734              		.loc 1 1296 0
 2735 000a D4F80029 		ldr	r2, [r4, #2304]
 2736 000e 42F00442 		orr	r2, r2, #-2080374784
ARM GAS  /tmp/ccNA7Kai.s 			page 49


 2737 0012 C4F80029 		str	r2, [r4, #2304]
 2738              		.loc 1 1297 0
 2739 0016 D3F83428 		ldr	r2, [r3, #2100]
 2740              		.loc 1 1298 0
 2741 001a 10BC     		pop	{r4}
 2742              		.cfi_restore 4
 2743              		.cfi_def_cfa_offset 0
 2744              		.loc 1 1297 0
 2745 001c 00FA01F1 		lsl	r1, r0, r1
 2746              	.LVL262:
 2747 0020 1143     		orrs	r1, r1, r2
 2748 0022 C3F83418 		str	r1, [r3, #2100]
 2749              		.loc 1 1298 0
 2750 0026 7047     		bx	lr
 2751              		.cfi_endproc
 2752              	.LFE151:
 2753              		.size	usb_lld_start_in, .-usb_lld_start_in
 2754              		.section	.text.usb_lld_stall_out,"ax",%progbits
 2755              		.align	2
 2756              		.p2align 4,,15
 2757              		.global	usb_lld_stall_out
 2758              		.thumb
 2759              		.thumb_func
 2760              		.type	usb_lld_stall_out, %function
 2761              	usb_lld_stall_out:
 2762              	.LFB152:
 2763              		.loc 1 1308 0
 2764              		.cfi_startproc
 2765              		@ args = 0, pretend = 0, frame = 0
 2766              		@ frame_needed = 0, uses_anonymous_args = 0
 2767              		@ link register save eliminated.
 2768              	.LVL263:
 2769 0000 036D     		ldr	r3, [r0, #80]
 2770 0002 03EB4111 		add	r1, r3, r1, lsl #5
 2771              	.LVL264:
 2772              		.loc 1 1310 0
 2773 0006 D1F8003B 		ldr	r3, [r1, #2816]
 2774 000a 43F40013 		orr	r3, r3, #2097152
 2775 000e C1F8003B 		str	r3, [r1, #2816]
 2776 0012 7047     		bx	lr
 2777              		.cfi_endproc
 2778              	.LFE152:
 2779              		.size	usb_lld_stall_out, .-usb_lld_stall_out
 2780              		.section	.text.usb_lld_stall_in,"ax",%progbits
 2781              		.align	2
 2782              		.p2align 4,,15
 2783              		.global	usb_lld_stall_in
 2784              		.thumb
 2785              		.thumb_func
 2786              		.type	usb_lld_stall_in, %function
 2787              	usb_lld_stall_in:
 2788              	.LFB153:
 2789              		.loc 1 1321 0
 2790              		.cfi_startproc
 2791              		@ args = 0, pretend = 0, frame = 0
 2792              		@ frame_needed = 0, uses_anonymous_args = 0
 2793              		@ link register save eliminated.
ARM GAS  /tmp/ccNA7Kai.s 			page 50


 2794              	.LVL265:
 2795 0000 036D     		ldr	r3, [r0, #80]
 2796 0002 03EB4111 		add	r1, r3, r1, lsl #5
 2797              	.LVL266:
 2798              		.loc 1 1323 0
 2799 0006 D1F80039 		ldr	r3, [r1, #2304]
 2800 000a 43F40013 		orr	r3, r3, #2097152
 2801 000e C1F80039 		str	r3, [r1, #2304]
 2802 0012 7047     		bx	lr
 2803              		.cfi_endproc
 2804              	.LFE153:
 2805              		.size	usb_lld_stall_in, .-usb_lld_stall_in
 2806              		.section	.text.usb_lld_clear_out,"ax",%progbits
 2807              		.align	2
 2808              		.p2align 4,,15
 2809              		.global	usb_lld_clear_out
 2810              		.thumb
 2811              		.thumb_func
 2812              		.type	usb_lld_clear_out, %function
 2813              	usb_lld_clear_out:
 2814              	.LFB154:
 2815              		.loc 1 1334 0
 2816              		.cfi_startproc
 2817              		@ args = 0, pretend = 0, frame = 0
 2818              		@ frame_needed = 0, uses_anonymous_args = 0
 2819              		@ link register save eliminated.
 2820              	.LVL267:
 2821 0000 036D     		ldr	r3, [r0, #80]
 2822 0002 03EB4111 		add	r1, r3, r1, lsl #5
 2823              	.LVL268:
 2824              		.loc 1 1336 0
 2825 0006 D1F8003B 		ldr	r3, [r1, #2816]
 2826 000a 23F40013 		bic	r3, r3, #2097152
 2827 000e C1F8003B 		str	r3, [r1, #2816]
 2828 0012 7047     		bx	lr
 2829              		.cfi_endproc
 2830              	.LFE154:
 2831              		.size	usb_lld_clear_out, .-usb_lld_clear_out
 2832              		.section	.text.usb_lld_clear_in,"ax",%progbits
 2833              		.align	2
 2834              		.p2align 4,,15
 2835              		.global	usb_lld_clear_in
 2836              		.thumb
 2837              		.thumb_func
 2838              		.type	usb_lld_clear_in, %function
 2839              	usb_lld_clear_in:
 2840              	.LFB155:
 2841              		.loc 1 1347 0
 2842              		.cfi_startproc
 2843              		@ args = 0, pretend = 0, frame = 0
 2844              		@ frame_needed = 0, uses_anonymous_args = 0
 2845              		@ link register save eliminated.
 2846              	.LVL269:
 2847 0000 036D     		ldr	r3, [r0, #80]
 2848 0002 03EB4111 		add	r1, r3, r1, lsl #5
 2849              	.LVL270:
 2850              		.loc 1 1349 0
ARM GAS  /tmp/ccNA7Kai.s 			page 51


 2851 0006 D1F80039 		ldr	r3, [r1, #2304]
 2852 000a 23F40013 		bic	r3, r3, #2097152
 2853 000e C1F80039 		str	r3, [r1, #2304]
 2854 0012 7047     		bx	lr
 2855              		.cfi_endproc
 2856              	.LFE155:
 2857              		.size	usb_lld_clear_in, .-usb_lld_clear_in
 2858              		.global	USBD1
 2859              		.section	.rodata.fsparams,"a",%progbits
 2860              		.align	2
 2861              		.set	.LANCHOR1,. + 0
 2862              		.type	fsparams, %object
 2863              		.size	fsparams, 12
 2864              	fsparams:
 2865 0000 80000000 		.word	128
 2866 0004 40010000 		.word	320
 2867 0008 03000000 		.word	3
 2868              		.section	.bss.USBD1,"aw",%nobits
 2869              		.align	3
 2870              		.set	.LANCHOR0,. + 0
 2871              		.type	USBD1, %object
 2872              		.size	USBD1, 432
 2873              	USBD1:
 2874 0000 00000000 		.space	432
 2874      00000000 
 2874      00000000 
 2874      00000000 
 2874      00000000 
 2875              		.section	.rodata.str1.4,"aMS",%progbits,1
 2876              		.align	2
 2877              	.LC0:
 2878 0000 7573625F 		.ascii	"usb_lld_pump\000"
 2878      6C6C645F 
 2878      70756D70 
 2878      00
 2879              		.section	.rodata.ep0config,"a",%progbits
 2880              		.align	2
 2881              		.set	.LANCHOR2,. + 0
 2882              		.type	ep0config, %object
 2883              		.size	ep0config, 36
 2884              	ep0config:
 2885 0000 00000000 		.word	0
 2886 0004 00000000 		.word	_usb_ep0setup
 2887 0008 00000000 		.word	_usb_ep0in
 2888 000c 00000000 		.word	_usb_ep0out
 2889 0010 4000     		.short	64
 2890 0012 4000     		.short	64
 2891 0014 00000000 		.word	ep0_state
 2892 0018 00000000 		.word	ep0_state
 2893 001c 0100     		.short	1
 2894 001e 0000     		.space	2
 2895 0020 00000000 		.word	ep0setup_buffer
 2896              		.section	.bss.ep0_state,"aw",%nobits
 2897              		.align	2
 2898              		.type	ep0_state, %object
 2899              		.size	ep0_state, 20
 2900              	ep0_state:
ARM GAS  /tmp/ccNA7Kai.s 			page 52


 2901 0000 00000000 		.space	20
 2901      00000000 
 2901      00000000 
 2901      00000000 
 2901      00000000 
 2902              		.section	.bss.ep0setup_buffer,"aw",%nobits
 2903              		.align	2
 2904              		.type	ep0setup_buffer, %object
 2905              		.size	ep0setup_buffer, 8
 2906              	ep0setup_buffer:
 2907 0000 00000000 		.space	8
 2907      00000000 
 2908              		.text
 2909              	.Letext0:
 2910              		.file 3 "/usr/local/gcc-arm-none-eabi-5_4-2016q3/lib/gcc/arm-none-eabi/5.4.1/include/stddef.h"
 2911              		.file 4 "/usr/local/gcc-arm-none-eabi-5_4-2016q3/arm-none-eabi/include/machine/_default_types.h"
 2912              		.file 5 "/usr/local/gcc-arm-none-eabi-5_4-2016q3/arm-none-eabi/include/sys/_stdint.h"
 2913              		.file 6 "../ChibiOS_2.6.9/os/ports/GCC/ARMCMx/chtypes.h"
 2914              		.file 7 "../ChibiOS_2.6.9/os/kernel/include/chlists.h"
 2915              		.file 8 "../ChibiOS_2.6.9/os/kernel/include/chthreads.h"
 2916              		.file 9 "../ChibiOS_2.6.9/os/ports/GCC/ARMCMx/chcore_v7m.h"
 2917              		.file 10 "../ChibiOS_2.6.9/os/kernel/include/chschd.h"
 2918              		.file 11 "../ChibiOS_2.6.9/os/kernel/include/chmtx.h"
 2919              		.file 12 "../ChibiOS_2.6.9/os/kernel/include/chqueues.h"
 2920              		.file 13 "../ChibiOS_2.6.9/os/hal/platforms/STM32F4xx/stm32f4xx.h"
 2921              		.file 14 "../ChibiOS_2.6.9/os/hal/include/usb.h"
 2922              		.file 15 "../ChibiOS_2.6.9/os/hal/platforms/STM32/OTGv1/usb_lld.h"
 2923              		.file 16 "../ChibiOS_2.6.9/os/hal/platforms/STM32/OTGv1/stm32_otg.h"
 2924              		.file 17 "../ChibiOS_2.6.9/os/ports/common/ARMCMx/CMSIS/include/core_cm4.h"
 2925              		.file 18 "../ChibiOS_2.6.9/os/hal/include/hal.h"
 2926              		.file 19 "../ChibiOS_2.6.9/os/ports/common/ARMCMx/nvic.h"