ARM GAS  /tmp/ccy7WDFc.s 			page 1


   1              		.syntax unified
   2              		.cpu cortex-m4
   3              		.fpu softvfp
   4              		.eabi_attribute 20, 1
   5              		.eabi_attribute 21, 1
   6              		.eabi_attribute 23, 3
   7              		.eabi_attribute 24, 1
   8              		.eabi_attribute 25, 1
   9              		.eabi_attribute 26, 1
  10              		.eabi_attribute 30, 2
  11              		.eabi_attribute 34, 1
  12              		.eabi_attribute 18, 4
  13              		.thumb
  14              		.syntax unified
  15              		.file	"usb_hid.c"
  16              		.text
  17              	.Ltext0:
  18              		.cfi_sections	.debug_frame
  19              		.section	.text.hid_recive,"ax",%progbits
  20              		.align	2
  21              		.p2align 4,,15
  22              		.global	hid_recive
  23              		.thumb
  24              		.thumb_func
  25              		.type	hid_recive, %function
  26              	hid_recive:
  27              	.LFB118:
  28              		.file 1 "usb_hid.c"
  29              		.loc 1 38 0
  30              		.cfi_startproc
  31              		@ args = 0, pretend = 0, frame = 0
  32              		@ frame_needed = 0, uses_anonymous_args = 0
  33              	.LVL0:
  34 0000 10B5     		push	{r4, lr}
  35              		.cfi_def_cfa_offset 8
  36              		.cfi_offset 4, -8
  37              		.cfi_offset 14, -4
  38              		.loc 1 39 0
  39 0002 0123     		movs	r3, #1
  40 0004 074A     		ldr	r2, .L3
  41 0006 0221     		movs	r1, #2
  42              		.loc 1 38 0
  43 0008 0446     		mov	r4, r0
  44              		.loc 1 39 0
  45 000a FFF7FEFF 		bl	usbPrepareReceive
  46              	.LVL1:
  47              	.LBB2:
  48              		.loc 1 40 0
  49 000e 2023     		movs	r3, #32
  50              		.syntax unified
  51              	@ 40 "usb_hid.c" 1
  52 0010 83F31188 		msr     BASEPRI, r3
  53              	@ 0 "" 2
  54              		.thumb
  55              		.syntax unified
  56              	.LBE2:
  57              		.loc 1 41 0
ARM GAS  /tmp/ccy7WDFc.s 			page 2


  58 0014 0221     		movs	r1, #2
  59 0016 2046     		mov	r0, r4
  60 0018 FFF7FEFF 		bl	usbStartReceiveI
  61              	.LVL2:
  62              	.LBB3:
  63              		.loc 1 42 0
  64 001c 0023     		movs	r3, #0
  65              		.syntax unified
  66              	@ 42 "usb_hid.c" 1
  67 001e 83F31188 		msr     BASEPRI, r3
  68              	@ 0 "" 2
  69              		.thumb
  70              		.syntax unified
  71 0022 10BD     		pop	{r4, pc}
  72              	.LVL3:
  73              	.L4:
  74              		.align	2
  75              	.L3:
  76 0024 00000000 		.word	.LANCHOR0
  77              	.LBE3:
  78              		.cfi_endproc
  79              	.LFE118:
  80              		.size	hid_recive, .-hid_recive
  81              		.section	.text.hid_transmit,"ax",%progbits
  82              		.align	2
  83              		.p2align 4,,15
  84              		.global	hid_transmit
  85              		.thumb
  86              		.thumb_func
  87              		.type	hid_transmit, %function
  88              	hid_transmit:
  89              	.LFB119:
  90              		.loc 1 45 0
  91              		.cfi_startproc
  92              		@ args = 0, pretend = 0, frame = 0
  93              		@ frame_needed = 0, uses_anonymous_args = 0
  94              	.LVL4:
  95 0000 38B5     		push	{r3, r4, r5, lr}
  96              		.cfi_def_cfa_offset 16
  97              		.cfi_offset 3, -16
  98              		.cfi_offset 4, -12
  99              		.cfi_offset 5, -8
 100              		.cfi_offset 14, -4
 101              		.loc 1 46 0
 102 0002 0D4A     		ldr	r2, .L7
 103 0004 1423     		movs	r3, #20
 104 0006 0121     		movs	r1, #1
 105              		.loc 1 45 0
 106 0008 0546     		mov	r5, r0
 107              		.loc 1 46 0
 108 000a FFF7FEFF 		bl	usbPrepareTransmit
 109              	.LVL5:
 110              	.LBB4:
 111              		.loc 1 47 0
 112 000e 2023     		movs	r3, #32
 113              		.syntax unified
 114              	@ 47 "usb_hid.c" 1
ARM GAS  /tmp/ccy7WDFc.s 			page 3


 115 0010 83F31188 		msr     BASEPRI, r3
 116              	@ 0 "" 2
 117              		.thumb
 118              		.syntax unified
 119              	.LBE4:
 120              		.loc 1 49 0
 121 0014 094C     		ldr	r4, .L7+4
 122              		.loc 1 48 0
 123 0016 2846     		mov	r0, r5
 124 0018 0121     		movs	r1, #1
 125 001a FFF7FEFF 		bl	usbStartTransmitI
 126              	.LVL6:
 127              		.loc 1 49 0
 128 001e 2046     		mov	r0, r4
 129 0020 0122     		movs	r2, #1
 130 0022 4FF48041 		mov	r1, #16384
 131 0026 FFF7FEFF 		bl	_pal_lld_setgroupmode
 132              	.LVL7:
 133              		.loc 1 50 0
 134 002a 4FF48043 		mov	r3, #16384
 135 002e 6383     		strh	r3, [r4, #26]	@ movhi
 136              	.LBB5:
 137              		.loc 1 51 0
 138 0030 0023     		movs	r3, #0
 139              		.syntax unified
 140              	@ 51 "usb_hid.c" 1
 141 0032 83F31188 		msr     BASEPRI, r3
 142              	@ 0 "" 2
 143              		.thumb
 144              		.syntax unified
 145 0036 38BD     		pop	{r3, r4, r5, pc}
 146              	.LVL8:
 147              	.L8:
 148              		.align	2
 149              	.L7:
 150 0038 00000000 		.word	.LANCHOR1
 151 003c 000C0240 		.word	1073875968
 152              	.LBE5:
 153              		.cfi_endproc
 154              	.LFE119:
 155              		.size	hid_transmit, .-hid_transmit
 156              		.section	.text.usb_request_hook_cb,"ax",%progbits
 157              		.align	2
 158              		.p2align 4,,15
 159              		.global	usb_request_hook_cb
 160              		.thumb
 161              		.thumb_func
 162              		.type	usb_request_hook_cb, %function
 163              	usb_request_hook_cb:
 164              	.LFB120:
 165              		.loc 1 56 0
 166              		.cfi_startproc
 167              		@ args = 0, pretend = 0, frame = 0
 168              		@ frame_needed = 0, uses_anonymous_args = 0
 169              	.LVL9:
 170 0000 F8B5     		push	{r3, r4, r5, r6, r7, lr}
 171              		.cfi_def_cfa_offset 24
ARM GAS  /tmp/ccy7WDFc.s 			page 4


 172              		.cfi_offset 3, -24
 173              		.cfi_offset 4, -20
 174              		.cfi_offset 5, -16
 175              		.cfi_offset 6, -12
 176              		.cfi_offset 7, -8
 177              		.cfi_offset 14, -4
 178 0002 90F84440 		ldrb	r4, [r0, #68]	@ zero_extendqisi2
 179 0006 04F07F04 		and	r4, r4, #127
 180              		.loc 1 59 0
 181 000a 012C     		cmp	r4, #1
 182              		.loc 1 56 0
 183 000c 0346     		mov	r3, r0
 184              		.loc 1 59 0
 185 000e 21D0     		beq	.L26
 186              		.loc 1 75 0
 187 0010 212C     		cmp	r4, #33
 188 0012 01D0     		beq	.L27
 189              	.LVL10:
 190              	.L23:
 191              		.loc 1 71 0
 192 0014 0020     		movs	r0, #0
 193 0016 F8BD     		pop	{r3, r4, r5, r6, r7, pc}
 194              	.LVL11:
 195              	.L27:
 196              		.loc 1 77 0
 197 0018 90F84520 		ldrb	r2, [r0, #69]	@ zero_extendqisi2
 198 001c 013A     		subs	r2, r2, #1
 199 001e 0A2A     		cmp	r2, #10
 200 0020 F8D8     		bhi	.L23
 201 0022 01A1     		adr	r1, .L17
 202 0024 51F822F0 		ldr	pc, [r1, r2, lsl #2]
 203              		.p2align 2
 204              	.L17:
 205 0028 9D000000 		.word	.L16+1
 206 002c 8D000000 		.word	.L20+1
 207 0030 99000000 		.word	.L22+1
 208 0034 15000000 		.word	.L23+1
 209 0038 15000000 		.word	.L23+1
 210 003c 15000000 		.word	.L23+1
 211 0040 15000000 		.word	.L23+1
 212 0044 15000000 		.word	.L23+1
 213 0048 8D000000 		.word	.L20+1
 214 004c 8D000000 		.word	.L20+1
 215 0050 99000000 		.word	.L22+1
 216              		.p2align 1
 217              	.L26:
 218              		.loc 1 61 0
 219 0054 90F84520 		ldrb	r2, [r0, #69]	@ zero_extendqisi2
 220 0058 062A     		cmp	r2, #6
 221 005a DBD1     		bne	.L23
 222              		.loc 1 63 0
 223 005c 4168     		ldr	r1, [r0, #4]
 224 005e 90F84970 		ldrb	r7, [r0, #73]	@ zero_extendqisi2
 225 0062 90F84830 		ldrb	r3, [r0, #72]	@ zero_extendqisi2
 226 0066 4E68     		ldr	r6, [r1, #4]
 227 0068 90F84620 		ldrb	r2, [r0, #70]	@ zero_extendqisi2
 228 006c 90F84710 		ldrb	r1, [r0, #71]	@ zero_extendqisi2
ARM GAS  /tmp/ccy7WDFc.s 			page 5


 229 0070 43EA0723 		orr	r3, r3, r7, lsl #8
 230 0074 0546     		mov	r5, r0
 231 0076 B047     		blx	r6
 232              	.LVL12:
 233              		.loc 1 66 0
 234 0078 0028     		cmp	r0, #0
 235 007a CBD0     		beq	.L23
 236              		.loc 1 68 0
 237 007c 90E80C00 		ldmia	r0, {r2, r3}
 238 0080 AB63     		str	r3, [r5, #56]
 239 0082 0023     		movs	r3, #0
 240              		.loc 1 69 0
 241 0084 2046     		mov	r0, r4
 242              	.LVL13:
 243              		.loc 1 68 0
 244 0086 EA63     		str	r2, [r5, #60]
 245 0088 2B64     		str	r3, [r5, #64]
 246              		.loc 1 69 0
 247 008a F8BD     		pop	{r3, r4, r5, r6, r7, pc}
 248              	.LVL14:
 249              	.L20:
 250              		.loc 1 97 0
 251 008c 0022     		movs	r2, #0
 252 008e 8263     		str	r2, [r0, #56]
 253 0090 C263     		str	r2, [r0, #60]
 254 0092 0264     		str	r2, [r0, #64]
 255              		.loc 1 98 0
 256 0094 0120     		movs	r0, #1
 257              	.LVL15:
 258 0096 F8BD     		pop	{r3, r4, r5, r6, r7, pc}
 259              	.LVL16:
 260              	.L22:
 261              		.loc 1 92 0
 262 0098 0120     		movs	r0, #1
 263              	.LVL17:
 264              		.loc 1 106 0
 265 009a F8BD     		pop	{r3, r4, r5, r6, r7, pc}
 266              	.LVL18:
 267              	.L16:
 268              		.loc 1 86 0
 269 009c 044C     		ldr	r4, .L28
 270              		.loc 1 85 0
 271 009e 054A     		ldr	r2, .L28+4
 272 00a0 8263     		str	r2, [r0, #56]
 273              		.loc 1 86 0
 274 00a2 0120     		movs	r0, #1
 275              	.LVL19:
 276              		.loc 1 85 0
 277 00a4 1421     		movs	r1, #20
 278 00a6 0022     		movs	r2, #0
 279              		.loc 1 86 0
 280 00a8 2070     		strb	r0, [r4]
 281              		.loc 1 85 0
 282 00aa D963     		str	r1, [r3, #60]
 283 00ac 1A64     		str	r2, [r3, #64]
 284              		.loc 1 87 0
 285 00ae F8BD     		pop	{r3, r4, r5, r6, r7, pc}
ARM GAS  /tmp/ccy7WDFc.s 			page 6


 286              	.LVL20:
 287              	.L29:
 288              		.align	2
 289              	.L28:
 290 00b0 00000000 		.word	.LANCHOR2
 291 00b4 00000000 		.word	.LANCHOR1
 292              		.cfi_endproc
 293              	.LFE120:
 294              		.size	usb_request_hook_cb, .-usb_request_hook_cb
 295              		.section	.text.hidDataTransmitted,"ax",%progbits
 296              		.align	2
 297              		.p2align 4,,15
 298              		.global	hidDataTransmitted
 299              		.thumb
 300              		.thumb_func
 301              		.type	hidDataTransmitted, %function
 302              	hidDataTransmitted:
 303              	.LFB121:
 304              		.loc 1 111 0
 305              		.cfi_startproc
 306              		@ args = 0, pretend = 0, frame = 0
 307              		@ frame_needed = 0, uses_anonymous_args = 0
 308              	.LVL21:
 309 0000 10B5     		push	{r4, lr}
 310              		.cfi_def_cfa_offset 8
 311              		.cfi_offset 4, -8
 312              		.cfi_offset 14, -4
 313              		.loc 1 114 0
 314 0002 054C     		ldr	r4, .L32
 315 0004 0122     		movs	r2, #1
 316 0006 2046     		mov	r0, r4
 317              	.LVL22:
 318 0008 4FF48041 		mov	r1, #16384
 319              	.LVL23:
 320 000c FFF7FEFF 		bl	_pal_lld_setgroupmode
 321              	.LVL24:
 322              		.loc 1 115 0
 323 0010 4FF48043 		mov	r3, #16384
 324 0014 2383     		strh	r3, [r4, #24]	@ movhi
 325 0016 10BD     		pop	{r4, pc}
 326              	.L33:
 327              		.align	2
 328              	.L32:
 329 0018 000C0240 		.word	1073875968
 330              		.cfi_endproc
 331              	.LFE121:
 332              		.size	hidDataTransmitted, .-hidDataTransmitted
 333              		.section	.text.hidDataReceived,"ax",%progbits
 334              		.align	2
 335              		.p2align 4,,15
 336              		.global	hidDataReceived
 337              		.thumb
 338              		.thumb_func
 339              		.type	hidDataReceived, %function
 340              	hidDataReceived:
 341              	.LFB122:
 342              		.loc 1 121 0
ARM GAS  /tmp/ccy7WDFc.s 			page 7


 343              		.cfi_startproc
 344              		@ args = 0, pretend = 0, frame = 0
 345              		@ frame_needed = 0, uses_anonymous_args = 0
 346              	.LVL25:
 347 0000 10B5     		push	{r4, lr}
 348              		.cfi_def_cfa_offset 8
 349              		.cfi_offset 4, -8
 350              		.cfi_offset 14, -4
 351              		.loc 1 124 0
 352 0002 054C     		ldr	r4, .L36
 353 0004 0122     		movs	r2, #1
 354 0006 2046     		mov	r0, r4
 355              	.LVL26:
 356 0008 4FF40041 		mov	r1, #32768
 357              	.LVL27:
 358 000c FFF7FEFF 		bl	_pal_lld_setgroupmode
 359              	.LVL28:
 360              		.loc 1 125 0
 361 0010 4FF40043 		mov	r3, #32768
 362 0014 2383     		strh	r3, [r4, #24]	@ movhi
 363 0016 10BD     		pop	{r4, pc}
 364              	.L37:
 365              		.align	2
 366              	.L36:
 367 0018 000C0240 		.word	1073875968
 368              		.cfi_endproc
 369              	.LFE122:
 370              		.size	hidDataReceived, .-hidDataReceived
 371              		.global	usbInitState
 372              		.global	hid_out_data
 373              		.global	hid_in_data
 374              		.section	.bss.usbInitState,"aw",%nobits
 375              		.set	.LANCHOR2,. + 0
 376              		.type	usbInitState, %object
 377              		.size	usbInitState, 1
 378              	usbInitState:
 379 0000 00       		.space	1
 380              		.section	.bss.hid_out_data,"aw",%nobits
 381              		.align	2
 382              		.set	.LANCHOR0,. + 0
 383              		.type	hid_out_data, %object
 384              		.size	hid_out_data, 1
 385              	hid_out_data:
 386 0000 00       		.space	1
 387              		.section	.data.hid_in_data,"aw",%progbits
 388              		.align	2
 389              		.set	.LANCHOR1,. + 0
 390              		.type	hid_in_data, %object
 391              		.size	hid_in_data, 20
 392              	hid_in_data:
 393 0000 00       		.byte	0
 394 0001 14       		.byte	20
 395 0002 00       		.byte	0
 396 0003 00       		.byte	0
 397 0004 00       		.byte	0
 398 0005 00       		.byte	0
 399 0006 0000     		.short	0
ARM GAS  /tmp/ccy7WDFc.s 			page 8


 400 0008 0000     		.short	0
 401 000a 0000     		.short	0
 402 000c 0000     		.short	0
 403 000e 00       		.byte	0
 404 000f 00       		.byte	0
 405 0010 00       		.byte	0
 406 0011 00       		.byte	0
 407 0012 00       		.byte	0
 408 0013 00       		.byte	0
 409              		.text
 410              	.Letext0:
 411              		.file 2 "/usr/local/gcc-arm-none-eabi-5_4-2016q3/lib/gcc/arm-none-eabi/5.4.1/include/stddef.h"
 412              		.file 3 "/usr/local/gcc-arm-none-eabi-5_4-2016q3/arm-none-eabi/include/machine/_default_types.h"
 413              		.file 4 "/usr/local/gcc-arm-none-eabi-5_4-2016q3/arm-none-eabi/include/sys/_stdint.h"
 414              		.file 5 "../ChibiOS_2.6.9/os/ports/GCC/ARMCMx/chtypes.h"
 415              		.file 6 "../ChibiOS_2.6.9/os/kernel/include/chlists.h"
 416              		.file 7 "../ChibiOS_2.6.9/os/kernel/include/chthreads.h"
 417              		.file 8 "../ChibiOS_2.6.9/os/ports/GCC/ARMCMx/chcore_v7m.h"
 418              		.file 9 "../ChibiOS_2.6.9/os/kernel/include/chmtx.h"
 419              		.file 10 "../ChibiOS_2.6.9/os/kernel/include/chqueues.h"
 420              		.file 11 "../ChibiOS_2.6.9/os/hal/platforms/STM32/GPIOv2/pal_lld.h"
 421              		.file 12 "../ChibiOS_2.6.9/os/hal/include/usb.h"
 422              		.file 13 "../ChibiOS_2.6.9/os/hal/platforms/STM32/OTGv1/usb_lld.h"
 423              		.file 14 "../ChibiOS_2.6.9/os/hal/platforms/STM32/OTGv1/stm32_otg.h"
 424              		.file 15 "usb_hid.h"
 425              		.file 16 "../ChibiOS_2.6.9/os/ports/common/ARMCMx/CMSIS/include/core_cm4.h"
 426              		.section	.debug_info,"",%progbits
 427              	.Ldebug_info0:
 428 0000 3A140000 		.4byte	0x143a
 429 0004 0400     		.2byte	0x4
 430 0006 00000000 		.4byte	.Ldebug_abbrev0
 431 000a 04       		.byte	0x4
 432 000b 01       		.uleb128 0x1
 433 000c A0050000 		.4byte	.LASF269
 434 0010 0C       		.byte	0xc
 435 0011 8B070000 		.4byte	.LASF270
 436 0015 97000000 		.4byte	.LASF271
 437 0019 00000000 		.4byte	.Ldebug_ranges0+0
 438 001d 00000000 		.4byte	0
 439 0021 00000000 		.4byte	.Ldebug_line0
 440 0025 02       		.uleb128 0x2
 441 0026 04       		.byte	0x4
 442 0027 05       		.byte	0x5
 443 0028 696E7400 		.ascii	"int\000"
 444 002c 03       		.uleb128 0x3
 445 002d 0D000000 		.4byte	.LASF3
 446 0031 02       		.byte	0x2
 447 0032 D8       		.byte	0xd8
 448 0033 37000000 		.4byte	0x37
 449 0037 04       		.uleb128 0x4
 450 0038 04       		.byte	0x4
 451 0039 07       		.byte	0x7
 452 003a 3B070000 		.4byte	.LASF0
 453 003e 04       		.uleb128 0x4
 454 003f 08       		.byte	0x8
 455 0040 05       		.byte	0x5
 456 0041 94060000 		.4byte	.LASF1
ARM GAS  /tmp/ccy7WDFc.s 			page 9


 457 0045 04       		.uleb128 0x4
 458 0046 08       		.byte	0x8
 459 0047 04       		.byte	0x4
 460 0048 EA070000 		.4byte	.LASF2
 461 004c 03       		.uleb128 0x3
 462 004d 34080000 		.4byte	.LASF4
 463 0051 03       		.byte	0x3
 464 0052 1B       		.byte	0x1b
 465 0053 57000000 		.4byte	0x57
 466 0057 04       		.uleb128 0x4
 467 0058 01       		.byte	0x1
 468 0059 06       		.byte	0x6
 469 005a 25020000 		.4byte	.LASF5
 470 005e 03       		.uleb128 0x3
 471 005f 2B010000 		.4byte	.LASF6
 472 0063 03       		.byte	0x3
 473 0064 1D       		.byte	0x1d
 474 0065 69000000 		.4byte	0x69
 475 0069 04       		.uleb128 0x4
 476 006a 01       		.byte	0x1
 477 006b 08       		.byte	0x8
 478 006c 78020000 		.4byte	.LASF7
 479 0070 04       		.uleb128 0x4
 480 0071 02       		.byte	0x2
 481 0072 05       		.byte	0x5
 482 0073 7E090000 		.4byte	.LASF8
 483 0077 03       		.uleb128 0x3
 484 0078 29030000 		.4byte	.LASF9
 485 007c 03       		.byte	0x3
 486 007d 2B       		.byte	0x2b
 487 007e 82000000 		.4byte	0x82
 488 0082 04       		.uleb128 0x4
 489 0083 02       		.byte	0x2
 490 0084 07       		.byte	0x7
 491 0085 BF0A0000 		.4byte	.LASF10
 492 0089 03       		.uleb128 0x3
 493 008a FF0A0000 		.4byte	.LASF11
 494 008e 03       		.byte	0x3
 495 008f 3F       		.byte	0x3f
 496 0090 94000000 		.4byte	0x94
 497 0094 04       		.uleb128 0x4
 498 0095 04       		.byte	0x4
 499 0096 05       		.byte	0x5
 500 0097 7D010000 		.4byte	.LASF12
 501 009b 03       		.uleb128 0x3
 502 009c 7A060000 		.4byte	.LASF13
 503 00a0 03       		.byte	0x3
 504 00a1 41       		.byte	0x41
 505 00a2 A6000000 		.4byte	0xa6
 506 00a6 04       		.uleb128 0x4
 507 00a7 04       		.byte	0x4
 508 00a8 07       		.byte	0x7
 509 00a9 A6040000 		.4byte	.LASF14
 510 00ad 03       		.uleb128 0x3
 511 00ae 93040000 		.4byte	.LASF15
 512 00b2 03       		.byte	0x3
 513 00b3 5B       		.byte	0x5b
ARM GAS  /tmp/ccy7WDFc.s 			page 10


 514 00b4 B8000000 		.4byte	0xb8
 515 00b8 04       		.uleb128 0x4
 516 00b9 08       		.byte	0x8
 517 00ba 07       		.byte	0x7
 518 00bb 46080000 		.4byte	.LASF16
 519 00bf 03       		.uleb128 0x3
 520 00c0 00000000 		.4byte	.LASF17
 521 00c4 04       		.byte	0x4
 522 00c5 14       		.byte	0x14
 523 00c6 4C000000 		.4byte	0x4c
 524 00ca 03       		.uleb128 0x3
 525 00cb 3B020000 		.4byte	.LASF18
 526 00cf 04       		.byte	0x4
 527 00d0 18       		.byte	0x18
 528 00d1 5E000000 		.4byte	0x5e
 529 00d5 03       		.uleb128 0x3
 530 00d6 6E080000 		.4byte	.LASF19
 531 00da 04       		.byte	0x4
 532 00db 24       		.byte	0x24
 533 00dc 77000000 		.4byte	0x77
 534 00e0 03       		.uleb128 0x3
 535 00e1 55000000 		.4byte	.LASF20
 536 00e5 04       		.byte	0x4
 537 00e6 2C       		.byte	0x2c
 538 00e7 89000000 		.4byte	0x89
 539 00eb 03       		.uleb128 0x3
 540 00ec 880A0000 		.4byte	.LASF21
 541 00f0 04       		.byte	0x4
 542 00f1 30       		.byte	0x30
 543 00f2 9B000000 		.4byte	0x9b
 544 00f6 03       		.uleb128 0x3
 545 00f7 90090000 		.4byte	.LASF22
 546 00fb 04       		.byte	0x4
 547 00fc 3C       		.byte	0x3c
 548 00fd AD000000 		.4byte	0xad
 549 0101 03       		.uleb128 0x3
 550 0102 EB090000 		.4byte	.LASF23
 551 0106 05       		.byte	0x5
 552 0107 2B       		.byte	0x2b
 553 0108 0C010000 		.4byte	0x10c
 554 010c 04       		.uleb128 0x4
 555 010d 01       		.byte	0x1
 556 010e 02       		.byte	0x2
 557 010f D3020000 		.4byte	.LASF24
 558 0113 03       		.uleb128 0x3
 559 0114 33090000 		.4byte	.LASF25
 560 0118 05       		.byte	0x5
 561 0119 2C       		.byte	0x2c
 562 011a CA000000 		.4byte	0xca
 563 011e 03       		.uleb128 0x3
 564 011f A2010000 		.4byte	.LASF26
 565 0123 05       		.byte	0x5
 566 0124 2D       		.byte	0x2d
 567 0125 CA000000 		.4byte	0xca
 568 0129 03       		.uleb128 0x3
 569 012a 4A0A0000 		.4byte	.LASF27
 570 012e 05       		.byte	0x5
ARM GAS  /tmp/ccy7WDFc.s 			page 11


 571 012f 2E       		.byte	0x2e
 572 0130 CA000000 		.4byte	0xca
 573 0134 03       		.uleb128 0x3
 574 0135 B3080000 		.4byte	.LASF28
 575 0139 05       		.byte	0x5
 576 013a 2F       		.byte	0x2f
 577 013b CA000000 		.4byte	0xca
 578 013f 03       		.uleb128 0x3
 579 0140 35000000 		.4byte	.LASF29
 580 0144 05       		.byte	0x5
 581 0145 30       		.byte	0x30
 582 0146 EB000000 		.4byte	0xeb
 583 014a 03       		.uleb128 0x3
 584 014b 84080000 		.4byte	.LASF30
 585 014f 05       		.byte	0x5
 586 0150 31       		.byte	0x31
 587 0151 E0000000 		.4byte	0xe0
 588 0155 03       		.uleb128 0x3
 589 0156 5D020000 		.4byte	.LASF31
 590 015a 05       		.byte	0x5
 591 015b 33       		.byte	0x33
 592 015c EB000000 		.4byte	0xeb
 593 0160 03       		.uleb128 0x3
 594 0161 1D0A0000 		.4byte	.LASF32
 595 0165 06       		.byte	0x6
 596 0166 2A       		.byte	0x2a
 597 0167 6B010000 		.4byte	0x16b
 598 016b 05       		.uleb128 0x5
 599 016c 1D0A0000 		.4byte	.LASF32
 600 0170 44       		.byte	0x44
 601 0171 07       		.byte	0x7
 602 0172 5E       		.byte	0x5e
 603 0173 5C020000 		.4byte	0x25c
 604 0177 06       		.uleb128 0x6
 605 0178 86010000 		.4byte	.LASF33
 606 017c 07       		.byte	0x7
 607 017d 5F       		.byte	0x5f
 608 017e 7D020000 		.4byte	0x27d
 609 0182 00       		.byte	0
 610 0183 06       		.uleb128 0x6
 611 0184 9B010000 		.4byte	.LASF34
 612 0188 07       		.byte	0x7
 613 0189 61       		.byte	0x61
 614 018a 7D020000 		.4byte	0x27d
 615 018e 04       		.byte	0x4
 616 018f 06       		.uleb128 0x6
 617 0190 18030000 		.4byte	.LASF35
 618 0194 07       		.byte	0x7
 619 0195 63       		.byte	0x63
 620 0196 3F010000 		.4byte	0x13f
 621 019a 08       		.byte	0x8
 622 019b 06       		.uleb128 0x6
 623 019c 2F000000 		.4byte	.LASF36
 624 01a0 07       		.byte	0x7
 625 01a1 64       		.byte	0x64
 626 01a2 42030000 		.4byte	0x342
 627 01a6 0C       		.byte	0xc
ARM GAS  /tmp/ccy7WDFc.s 			page 12


 628 01a7 06       		.uleb128 0x6
 629 01a8 75010000 		.4byte	.LASF37
 630 01ac 07       		.byte	0x7
 631 01ad 66       		.byte	0x66
 632 01ae 7D020000 		.4byte	0x27d
 633 01b2 10       		.byte	0x10
 634 01b3 06       		.uleb128 0x6
 635 01b4 66080000 		.4byte	.LASF38
 636 01b8 07       		.byte	0x7
 637 01b9 67       		.byte	0x67
 638 01ba 7D020000 		.4byte	0x27d
 639 01be 14       		.byte	0x14
 640 01bf 06       		.uleb128 0x6
 641 01c0 460B0000 		.4byte	.LASF39
 642 01c4 07       		.byte	0x7
 643 01c5 6E       		.byte	0x6e
 644 01c6 E6030000 		.4byte	0x3e6
 645 01ca 18       		.byte	0x18
 646 01cb 06       		.uleb128 0x6
 647 01cc 910B0000 		.4byte	.LASF40
 648 01d0 07       		.byte	0x7
 649 01d1 79       		.byte	0x79
 650 01d2 1E010000 		.4byte	0x11e
 651 01d6 1C       		.byte	0x1c
 652 01d7 06       		.uleb128 0x6
 653 01d8 24070000 		.4byte	.LASF41
 654 01dc 07       		.byte	0x7
 655 01dd 7D       		.byte	0x7d
 656 01de 13010000 		.4byte	0x113
 657 01e2 1D       		.byte	0x1d
 658 01e3 06       		.uleb128 0x6
 659 01e4 70070000 		.4byte	.LASF42
 660 01e8 07       		.byte	0x7
 661 01e9 82       		.byte	0x82
 662 01ea 29010000 		.4byte	0x129
 663 01ee 1E       		.byte	0x1e
 664 01ef 06       		.uleb128 0x6
 665 01f0 31020000 		.4byte	.LASF43
 666 01f4 07       		.byte	0x7
 667 01f5 88       		.byte	0x88
 668 01f6 34010000 		.4byte	0x134
 669 01fa 1F       		.byte	0x1f
 670 01fb 07       		.uleb128 0x7
 671 01fc 705F7500 		.ascii	"p_u\000"
 672 0200 07       		.byte	0x7
 673 0201 B4       		.byte	0xb4
 674 0202 B1030000 		.4byte	0x3b1
 675 0206 20       		.byte	0x20
 676 0207 06       		.uleb128 0x6
 677 0208 14070000 		.4byte	.LASF44
 678 020c 07       		.byte	0x7
 679 020d B9       		.byte	0xb9
 680 020e A3020000 		.4byte	0x2a3
 681 0212 24       		.byte	0x24
 682 0213 06       		.uleb128 0x6
 683 0214 3D000000 		.4byte	.LASF45
 684 0218 07       		.byte	0x7
ARM GAS  /tmp/ccy7WDFc.s 			page 13


 685 0219 BF       		.byte	0xbf
 686 021a 83020000 		.4byte	0x283
 687 021e 28       		.byte	0x28
 688 021f 06       		.uleb128 0x6
 689 0220 8B0B0000 		.4byte	.LASF46
 690 0224 07       		.byte	0x7
 691 0225 C3       		.byte	0xc3
 692 0226 4A010000 		.4byte	0x14a
 693 022a 30       		.byte	0x30
 694 022b 06       		.uleb128 0x6
 695 022c 28040000 		.4byte	.LASF47
 696 0230 07       		.byte	0x7
 697 0231 C9       		.byte	0xc9
 698 0232 55010000 		.4byte	0x155
 699 0236 34       		.byte	0x34
 700 0237 06       		.uleb128 0x6
 701 0238 B7010000 		.4byte	.LASF48
 702 023c 07       		.byte	0x7
 703 023d D0       		.byte	0xd0
 704 023e F8030000 		.4byte	0x3f8
 705 0242 38       		.byte	0x38
 706 0243 06       		.uleb128 0x6
 707 0244 F6070000 		.4byte	.LASF49
 708 0248 07       		.byte	0x7
 709 0249 D4       		.byte	0xd4
 710 024a 3F010000 		.4byte	0x13f
 711 024e 3C       		.byte	0x3c
 712 024f 06       		.uleb128 0x6
 713 0250 5C070000 		.4byte	.LASF50
 714 0254 07       		.byte	0x7
 715 0255 DA       		.byte	0xda
 716 0256 B9020000 		.4byte	0x2b9
 717 025a 40       		.byte	0x40
 718 025b 00       		.byte	0
 719 025c 08       		.uleb128 0x8
 720 025d 08       		.byte	0x8
 721 025e 06       		.byte	0x6
 722 025f 61       		.byte	0x61
 723 0260 7D020000 		.4byte	0x27d
 724 0264 06       		.uleb128 0x6
 725 0265 86010000 		.4byte	.LASF33
 726 0269 06       		.byte	0x6
 727 026a 62       		.byte	0x62
 728 026b 7D020000 		.4byte	0x27d
 729 026f 00       		.byte	0
 730 0270 06       		.uleb128 0x6
 731 0271 9B010000 		.4byte	.LASF34
 732 0275 06       		.byte	0x6
 733 0276 64       		.byte	0x64
 734 0277 7D020000 		.4byte	0x27d
 735 027b 04       		.byte	0x4
 736 027c 00       		.byte	0
 737 027d 09       		.uleb128 0x9
 738 027e 04       		.byte	0x4
 739 027f 60010000 		.4byte	0x160
 740 0283 03       		.uleb128 0x3
 741 0284 990A0000 		.4byte	.LASF51
ARM GAS  /tmp/ccy7WDFc.s 			page 14


 742 0288 06       		.byte	0x6
 743 0289 66       		.byte	0x66
 744 028a 5C020000 		.4byte	0x25c
 745 028e 08       		.uleb128 0x8
 746 028f 04       		.byte	0x4
 747 0290 06       		.byte	0x6
 748 0291 6B       		.byte	0x6b
 749 0292 A3020000 		.4byte	0x2a3
 750 0296 06       		.uleb128 0x6
 751 0297 86010000 		.4byte	.LASF33
 752 029b 06       		.byte	0x6
 753 029c 6D       		.byte	0x6d
 754 029d 7D020000 		.4byte	0x27d
 755 02a1 00       		.byte	0
 756 02a2 00       		.byte	0
 757 02a3 03       		.uleb128 0x3
 758 02a4 95070000 		.4byte	.LASF52
 759 02a8 06       		.byte	0x6
 760 02a9 70       		.byte	0x70
 761 02aa 8E020000 		.4byte	0x28e
 762 02ae 03       		.uleb128 0x3
 763 02af E4010000 		.4byte	.LASF53
 764 02b3 08       		.byte	0x8
 765 02b4 E5       		.byte	0xe5
 766 02b5 B9020000 		.4byte	0x2b9
 767 02b9 0A       		.uleb128 0xa
 768 02ba 04       		.byte	0x4
 769 02bb 03       		.uleb128 0x3
 770 02bc 68030000 		.4byte	.LASF54
 771 02c0 08       		.byte	0x8
 772 02c1 EB       		.byte	0xeb
 773 02c2 F6000000 		.4byte	0xf6
 774 02c6 0B       		.uleb128 0xb
 775 02c7 21040000 		.4byte	.LASF55
 776 02cb 24       		.byte	0x24
 777 02cc 08       		.byte	0x8
 778 02cd 0C01     		.2byte	0x10c
 779 02cf 42030000 		.4byte	0x342
 780 02d3 0C       		.uleb128 0xc
 781 02d4 723400   		.ascii	"r4\000"
 782 02d7 08       		.byte	0x8
 783 02d8 1F01     		.2byte	0x11f
 784 02da AE020000 		.4byte	0x2ae
 785 02de 00       		.byte	0
 786 02df 0C       		.uleb128 0xc
 787 02e0 723500   		.ascii	"r5\000"
 788 02e3 08       		.byte	0x8
 789 02e4 2001     		.2byte	0x120
 790 02e6 AE020000 		.4byte	0x2ae
 791 02ea 04       		.byte	0x4
 792 02eb 0C       		.uleb128 0xc
 793 02ec 723600   		.ascii	"r6\000"
 794 02ef 08       		.byte	0x8
 795 02f0 2101     		.2byte	0x121
 796 02f2 AE020000 		.4byte	0x2ae
 797 02f6 08       		.byte	0x8
 798 02f7 0C       		.uleb128 0xc
ARM GAS  /tmp/ccy7WDFc.s 			page 15


 799 02f8 723700   		.ascii	"r7\000"
 800 02fb 08       		.byte	0x8
 801 02fc 2201     		.2byte	0x122
 802 02fe AE020000 		.4byte	0x2ae
 803 0302 0C       		.byte	0xc
 804 0303 0C       		.uleb128 0xc
 805 0304 723800   		.ascii	"r8\000"
 806 0307 08       		.byte	0x8
 807 0308 2301     		.2byte	0x123
 808 030a AE020000 		.4byte	0x2ae
 809 030e 10       		.byte	0x10
 810 030f 0C       		.uleb128 0xc
 811 0310 723900   		.ascii	"r9\000"
 812 0313 08       		.byte	0x8
 813 0314 2401     		.2byte	0x124
 814 0316 AE020000 		.4byte	0x2ae
 815 031a 14       		.byte	0x14
 816 031b 0C       		.uleb128 0xc
 817 031c 72313000 		.ascii	"r10\000"
 818 0320 08       		.byte	0x8
 819 0321 2501     		.2byte	0x125
 820 0323 AE020000 		.4byte	0x2ae
 821 0327 18       		.byte	0x18
 822 0328 0C       		.uleb128 0xc
 823 0329 72313100 		.ascii	"r11\000"
 824 032d 08       		.byte	0x8
 825 032e 2601     		.2byte	0x126
 826 0330 AE020000 		.4byte	0x2ae
 827 0334 1C       		.byte	0x1c
 828 0335 0C       		.uleb128 0xc
 829 0336 6C7200   		.ascii	"lr\000"
 830 0339 08       		.byte	0x8
 831 033a 2701     		.2byte	0x127
 832 033c AE020000 		.4byte	0x2ae
 833 0340 20       		.byte	0x20
 834 0341 00       		.byte	0
 835 0342 0B       		.uleb128 0xb
 836 0343 69020000 		.4byte	.LASF56
 837 0347 04       		.byte	0x4
 838 0348 08       		.byte	0x8
 839 0349 3101     		.2byte	0x131
 840 034b 5D030000 		.4byte	0x35d
 841 034f 0C       		.uleb128 0xc
 842 0350 72313300 		.ascii	"r13\000"
 843 0354 08       		.byte	0x8
 844 0355 3201     		.2byte	0x132
 845 0357 5D030000 		.4byte	0x35d
 846 035b 00       		.byte	0
 847 035c 00       		.byte	0
 848 035d 09       		.uleb128 0x9
 849 035e 04       		.byte	0x4
 850 035f C6020000 		.4byte	0x2c6
 851 0363 0D       		.uleb128 0xd
 852 0364 EB000000 		.4byte	0xeb
 853 0368 04       		.uleb128 0x4
 854 0369 04       		.byte	0x4
 855 036a 07       		.byte	0x7
ARM GAS  /tmp/ccy7WDFc.s 			page 16


 856 036b 14000000 		.4byte	.LASF57
 857 036f 05       		.uleb128 0x5
 858 0370 8E060000 		.4byte	.LASF58
 859 0374 10       		.byte	0x10
 860 0375 09       		.byte	0x9
 861 0376 2C       		.byte	0x2c
 862 0377 A0030000 		.4byte	0x3a0
 863 037b 06       		.uleb128 0x6
 864 037c AC060000 		.4byte	.LASF59
 865 0380 09       		.byte	0x9
 866 0381 2D       		.byte	0x2d
 867 0382 83020000 		.4byte	0x283
 868 0386 00       		.byte	0
 869 0387 06       		.uleb128 0x6
 870 0388 0C010000 		.4byte	.LASF60
 871 038c 09       		.byte	0x9
 872 038d 2F       		.byte	0x2f
 873 038e 7D020000 		.4byte	0x27d
 874 0392 08       		.byte	0x8
 875 0393 06       		.uleb128 0x6
 876 0394 4D0B0000 		.4byte	.LASF61
 877 0398 09       		.byte	0x9
 878 0399 31       		.byte	0x31
 879 039a A0030000 		.4byte	0x3a0
 880 039e 0C       		.byte	0xc
 881 039f 00       		.byte	0
 882 03a0 09       		.uleb128 0x9
 883 03a1 04       		.byte	0x4
 884 03a2 6F030000 		.4byte	0x36f
 885 03a6 03       		.uleb128 0x3
 886 03a7 8E060000 		.4byte	.LASF58
 887 03ab 09       		.byte	0x9
 888 03ac 33       		.byte	0x33
 889 03ad 6F030000 		.4byte	0x36f
 890 03b1 0E       		.uleb128 0xe
 891 03b2 04       		.byte	0x4
 892 03b3 07       		.byte	0x7
 893 03b4 96       		.byte	0x96
 894 03b5 E6030000 		.4byte	0x3e6
 895 03b9 0F       		.uleb128 0xf
 896 03ba B80A0000 		.4byte	.LASF62
 897 03be 07       		.byte	0x7
 898 03bf 9D       		.byte	0x9d
 899 03c0 4A010000 		.4byte	0x14a
 900 03c4 0F       		.uleb128 0xf
 901 03c5 14010000 		.4byte	.LASF63
 902 03c9 07       		.byte	0x7
 903 03ca A4       		.byte	0xa4
 904 03cb 4A010000 		.4byte	0x14a
 905 03cf 0F       		.uleb128 0xf
 906 03d0 41030000 		.4byte	.LASF64
 907 03d4 07       		.byte	0x7
 908 03d5 AB       		.byte	0xab
 909 03d6 B9020000 		.4byte	0x2b9
 910 03da 0F       		.uleb128 0xf
 911 03db 3B010000 		.4byte	.LASF65
 912 03df 07       		.byte	0x7
ARM GAS  /tmp/ccy7WDFc.s 			page 17


 913 03e0 B2       		.byte	0xb2
 914 03e1 55010000 		.4byte	0x155
 915 03e5 00       		.byte	0
 916 03e6 09       		.uleb128 0x9
 917 03e7 04       		.byte	0x4
 918 03e8 F3030000 		.4byte	0x3f3
 919 03ec 04       		.uleb128 0x4
 920 03ed 01       		.byte	0x1
 921 03ee 08       		.byte	0x8
 922 03ef F8020000 		.4byte	.LASF66
 923 03f3 10       		.uleb128 0x10
 924 03f4 EC030000 		.4byte	0x3ec
 925 03f8 09       		.uleb128 0x9
 926 03f9 04       		.byte	0x4
 927 03fa A6030000 		.4byte	0x3a6
 928 03fe 03       		.uleb128 0x3
 929 03ff 34030000 		.4byte	.LASF67
 930 0403 0A       		.byte	0xa
 931 0404 37       		.byte	0x37
 932 0405 09040000 		.4byte	0x409
 933 0409 05       		.uleb128 0x5
 934 040a 34030000 		.4byte	.LASF67
 935 040e 24       		.byte	0x24
 936 040f 0A       		.byte	0xa
 937 0410 45       		.byte	0x45
 938 0411 76040000 		.4byte	0x476
 939 0415 06       		.uleb128 0x6
 940 0416 29090000 		.4byte	.LASF68
 941 041a 0A       		.byte	0xa
 942 041b 46       		.byte	0x46
 943 041c 83020000 		.4byte	0x283
 944 0420 00       		.byte	0
 945 0421 06       		.uleb128 0x6
 946 0422 80040000 		.4byte	.LASF69
 947 0426 0A       		.byte	0xa
 948 0427 47       		.byte	0x47
 949 0428 2C000000 		.4byte	0x2c
 950 042c 08       		.byte	0x8
 951 042d 06       		.uleb128 0x6
 952 042e 48010000 		.4byte	.LASF70
 953 0432 0A       		.byte	0xa
 954 0433 48       		.byte	0x48
 955 0434 98040000 		.4byte	0x498
 956 0438 0C       		.byte	0xc
 957 0439 06       		.uleb128 0x6
 958 043a 35010000 		.4byte	.LASF71
 959 043e 0A       		.byte	0xa
 960 043f 49       		.byte	0x49
 961 0440 98040000 		.4byte	0x498
 962 0444 10       		.byte	0x10
 963 0445 06       		.uleb128 0x6
 964 0446 19050000 		.4byte	.LASF72
 965 044a 0A       		.byte	0xa
 966 044b 4B       		.byte	0x4b
 967 044c 98040000 		.4byte	0x498
 968 0450 14       		.byte	0x14
 969 0451 06       		.uleb128 0x6
ARM GAS  /tmp/ccy7WDFc.s 			page 18


 970 0452 8D010000 		.4byte	.LASF73
 971 0456 0A       		.byte	0xa
 972 0457 4C       		.byte	0x4c
 973 0458 98040000 		.4byte	0x498
 974 045c 18       		.byte	0x18
 975 045d 06       		.uleb128 0x6
 976 045e 6C010000 		.4byte	.LASF74
 977 0462 0A       		.byte	0xa
 978 0463 4D       		.byte	0x4d
 979 0464 76040000 		.4byte	0x476
 980 0468 1C       		.byte	0x1c
 981 0469 06       		.uleb128 0x6
 982 046a 94020000 		.4byte	.LASF75
 983 046e 0A       		.byte	0xa
 984 046f 4E       		.byte	0x4e
 985 0470 B9020000 		.4byte	0x2b9
 986 0474 20       		.byte	0x20
 987 0475 00       		.byte	0
 988 0476 03       		.uleb128 0x3
 989 0477 0A070000 		.4byte	.LASF76
 990 047b 0A       		.byte	0xa
 991 047c 3A       		.byte	0x3a
 992 047d 81040000 		.4byte	0x481
 993 0481 09       		.uleb128 0x9
 994 0482 04       		.byte	0x4
 995 0483 87040000 		.4byte	0x487
 996 0487 11       		.uleb128 0x11
 997 0488 92040000 		.4byte	0x492
 998 048c 12       		.uleb128 0x12
 999 048d 92040000 		.4byte	0x492
 1000 0491 00       		.byte	0
 1001 0492 09       		.uleb128 0x9
 1002 0493 04       		.byte	0x4
 1003 0494 FE030000 		.4byte	0x3fe
 1004 0498 09       		.uleb128 0x9
 1005 0499 04       		.byte	0x4
 1006 049a CA000000 		.4byte	0xca
 1007 049e 03       		.uleb128 0x3
 1008 049f E90A0000 		.4byte	.LASF77
 1009 04a3 0A       		.byte	0xa
 1010 04a4 82       		.byte	0x82
 1011 04a5 FE030000 		.4byte	0x3fe
 1012 04a9 03       		.uleb128 0x3
 1013 04aa 73030000 		.4byte	.LASF78
 1014 04ae 0A       		.byte	0xa
 1015 04af F5       		.byte	0xf5
 1016 04b0 FE030000 		.4byte	0x3fe
 1017 04b4 09       		.uleb128 0x9
 1018 04b5 04       		.byte	0x4
 1019 04b6 BA040000 		.4byte	0x4ba
 1020 04ba 10       		.uleb128 0x10
 1021 04bb CA000000 		.4byte	0xca
 1022 04bf 0D       		.uleb128 0xd
 1023 04c0 E0000000 		.4byte	0xe0
 1024 04c4 08       		.uleb128 0x8
 1025 04c5 04       		.byte	0x4
 1026 04c6 0B       		.byte	0xb
ARM GAS  /tmp/ccy7WDFc.s 			page 19


 1027 04c7 96       		.byte	0x96
 1028 04c8 E5040000 		.4byte	0x4e5
 1029 04cc 07       		.uleb128 0x7
 1030 04cd 73657400 		.ascii	"set\000"
 1031 04d1 0B       		.byte	0xb
 1032 04d2 97       		.byte	0x97
 1033 04d3 D5000000 		.4byte	0xd5
 1034 04d7 00       		.byte	0
 1035 04d8 06       		.uleb128 0x6
 1036 04d9 57040000 		.4byte	.LASF79
 1037 04dd 0B       		.byte	0xb
 1038 04de 98       		.byte	0x98
 1039 04df D5000000 		.4byte	0xd5
 1040 04e3 02       		.byte	0x2
 1041 04e4 00       		.byte	0
 1042 04e5 0E       		.uleb128 0xe
 1043 04e6 04       		.byte	0x4
 1044 04e7 0B       		.byte	0xb
 1045 04e8 94       		.byte	0x94
 1046 04e9 00050000 		.4byte	0x500
 1047 04ed 13       		.uleb128 0x13
 1048 04ee 5700     		.ascii	"W\000"
 1049 04f0 0B       		.byte	0xb
 1050 04f1 95       		.byte	0x95
 1051 04f2 EB000000 		.4byte	0xeb
 1052 04f6 13       		.uleb128 0x13
 1053 04f7 4800     		.ascii	"H\000"
 1054 04f9 0B       		.byte	0xb
 1055 04fa 99       		.byte	0x99
 1056 04fb C4040000 		.4byte	0x4c4
 1057 04ff 00       		.byte	0
 1058 0500 08       		.uleb128 0x8
 1059 0501 28       		.byte	0x28
 1060 0502 0B       		.byte	0xb
 1061 0503 8C       		.byte	0x8c
 1062 0504 81050000 		.4byte	0x581
 1063 0508 06       		.uleb128 0x6
 1064 0509 1E070000 		.4byte	.LASF80
 1065 050d 0B       		.byte	0xb
 1066 050e 8E       		.byte	0x8e
 1067 050f 63030000 		.4byte	0x363
 1068 0513 00       		.byte	0
 1069 0514 06       		.uleb128 0x6
 1070 0515 22090000 		.4byte	.LASF81
 1071 0519 0B       		.byte	0xb
 1072 051a 8F       		.byte	0x8f
 1073 051b 63030000 		.4byte	0x363
 1074 051f 04       		.byte	0x4
 1075 0520 06       		.uleb128 0x6
 1076 0521 58050000 		.4byte	.LASF82
 1077 0525 0B       		.byte	0xb
 1078 0526 90       		.byte	0x90
 1079 0527 63030000 		.4byte	0x363
 1080 052b 08       		.byte	0x8
 1081 052c 06       		.uleb128 0x6
 1082 052d 42010000 		.4byte	.LASF83
 1083 0531 0B       		.byte	0xb
ARM GAS  /tmp/ccy7WDFc.s 			page 20


 1084 0532 91       		.byte	0x91
 1085 0533 63030000 		.4byte	0x363
 1086 0537 0C       		.byte	0xc
 1087 0538 07       		.uleb128 0x7
 1088 0539 49445200 		.ascii	"IDR\000"
 1089 053d 0B       		.byte	0xb
 1090 053e 92       		.byte	0x92
 1091 053f 63030000 		.4byte	0x363
 1092 0543 10       		.byte	0x10
 1093 0544 07       		.uleb128 0x7
 1094 0545 4F445200 		.ascii	"ODR\000"
 1095 0549 0B       		.byte	0xb
 1096 054a 93       		.byte	0x93
 1097 054b 63030000 		.4byte	0x363
 1098 054f 14       		.byte	0x14
 1099 0550 06       		.uleb128 0x6
 1100 0551 0A0A0000 		.4byte	.LASF84
 1101 0555 0B       		.byte	0xb
 1102 0556 9A       		.byte	0x9a
 1103 0557 81050000 		.4byte	0x581
 1104 055b 18       		.byte	0x18
 1105 055c 06       		.uleb128 0x6
 1106 055d 2A050000 		.4byte	.LASF85
 1107 0561 0B       		.byte	0xb
 1108 0562 9B       		.byte	0x9b
 1109 0563 63030000 		.4byte	0x363
 1110 0567 1C       		.byte	0x1c
 1111 0568 06       		.uleb128 0x6
 1112 0569 CA080000 		.4byte	.LASF86
 1113 056d 0B       		.byte	0xb
 1114 056e 9C       		.byte	0x9c
 1115 056f 63030000 		.4byte	0x363
 1116 0573 20       		.byte	0x20
 1117 0574 06       		.uleb128 0x6
 1118 0575 C5080000 		.4byte	.LASF87
 1119 0579 0B       		.byte	0xb
 1120 057a 9D       		.byte	0x9d
 1121 057b 63030000 		.4byte	0x363
 1122 057f 24       		.byte	0x24
 1123 0580 00       		.byte	0
 1124 0581 0D       		.uleb128 0xd
 1125 0582 E5040000 		.4byte	0x4e5
 1126 0586 03       		.uleb128 0x3
 1127 0587 2C0A0000 		.4byte	.LASF88
 1128 058b 0B       		.byte	0xb
 1129 058c 9E       		.byte	0x9e
 1130 058d 00050000 		.4byte	0x500
 1131 0591 03       		.uleb128 0x3
 1132 0592 CE030000 		.4byte	.LASF89
 1133 0596 0B       		.byte	0xb
 1134 0597 F0       		.byte	0xf0
 1135 0598 EB000000 		.4byte	0xeb
 1136 059c 03       		.uleb128 0x3
 1137 059d B1070000 		.4byte	.LASF90
 1138 05a1 0C       		.byte	0xc
 1139 05a2 E9       		.byte	0xe9
 1140 05a3 A7050000 		.4byte	0x5a7
ARM GAS  /tmp/ccy7WDFc.s 			page 21


 1141 05a7 14       		.uleb128 0x14
 1142 05a8 B1070000 		.4byte	.LASF90
 1143 05ac B001     		.2byte	0x1b0
 1144 05ae 0D       		.byte	0xd
 1145 05af 7701     		.2byte	0x177
 1146 05b1 D4060000 		.4byte	0x6d4
 1147 05b5 15       		.uleb128 0x15
 1148 05b6 BA000000 		.4byte	.LASF91
 1149 05ba 0D       		.byte	0xd
 1150 05bb 7B01     		.2byte	0x17b
 1151 05bd 0A070000 		.4byte	0x70a
 1152 05c1 00       		.byte	0
 1153 05c2 15       		.uleb128 0x15
 1154 05c3 48030000 		.4byte	.LASF92
 1155 05c7 0D       		.byte	0xd
 1156 05c8 7F01     		.2byte	0x17f
 1157 05ca 3F100000 		.4byte	0x103f
 1158 05ce 04       		.byte	0x4
 1159 05cf 15       		.uleb128 0x15
 1160 05d0 A7030000 		.4byte	.LASF93
 1161 05d4 0D       		.byte	0xd
 1162 05d5 8301     		.2byte	0x183
 1163 05d7 D5000000 		.4byte	0xd5
 1164 05db 08       		.byte	0x8
 1165 05dc 15       		.uleb128 0x15
 1166 05dd 1F030000 		.4byte	.LASF94
 1167 05e1 0D       		.byte	0xd
 1168 05e2 8701     		.2byte	0x187
 1169 05e4 D5000000 		.4byte	0xd5
 1170 05e8 0A       		.byte	0xa
 1171 05e9 0C       		.uleb128 0xc
 1172 05ea 65706300 		.ascii	"epc\000"
 1173 05ee 0D       		.byte	0xd
 1174 05ef 8B01     		.2byte	0x18b
 1175 05f1 4A100000 		.4byte	0x104a
 1176 05f5 0C       		.byte	0xc
 1177 05f6 15       		.uleb128 0x15
 1178 05f7 56090000 		.4byte	.LASF95
 1179 05fb 0D       		.byte	0xd
 1180 05fc 9201     		.2byte	0x192
 1181 05fe 65100000 		.4byte	0x1065
 1182 0602 1C       		.byte	0x1c
 1183 0603 15       		.uleb128 0x15
 1184 0604 F40A0000 		.4byte	.LASF96
 1185 0608 0D       		.byte	0xd
 1186 0609 9901     		.2byte	0x199
 1187 060b 65100000 		.4byte	0x1065
 1188 060f 28       		.byte	0x28
 1189 0610 15       		.uleb128 0x15
 1190 0611 B0020000 		.4byte	.LASF97
 1191 0615 0D       		.byte	0xd
 1192 0616 9D01     		.2byte	0x19d
 1193 0618 4D070000 		.4byte	0x74d
 1194 061c 34       		.byte	0x34
 1195 061d 15       		.uleb128 0x15
 1196 061e BD060000 		.4byte	.LASF98
 1197 0622 0D       		.byte	0xd
ARM GAS  /tmp/ccy7WDFc.s 			page 22


 1198 0623 A101     		.2byte	0x1a1
 1199 0625 98040000 		.4byte	0x498
 1200 0629 38       		.byte	0x38
 1201 062a 15       		.uleb128 0x15
 1202 062b 05030000 		.4byte	.LASF99
 1203 062f 0D       		.byte	0xd
 1204 0630 A501     		.2byte	0x1a5
 1205 0632 2C000000 		.4byte	0x2c
 1206 0636 3C       		.byte	0x3c
 1207 0637 15       		.uleb128 0x15
 1208 0638 DA040000 		.4byte	.LASF100
 1209 063c 0D       		.byte	0xd
 1210 063d A901     		.2byte	0x1a9
 1211 063f C7070000 		.4byte	0x7c7
 1212 0643 40       		.byte	0x40
 1213 0644 15       		.uleb128 0x15
 1214 0645 1B040000 		.4byte	.LASF101
 1215 0649 0D       		.byte	0xd
 1216 064a AD01     		.2byte	0x1ad
 1217 064c 75100000 		.4byte	0x1075
 1218 0650 44       		.byte	0x44
 1219 0651 15       		.uleb128 0x15
 1220 0652 CB040000 		.4byte	.LASF102
 1221 0656 0D       		.byte	0xd
 1222 0657 B101     		.2byte	0x1b1
 1223 0659 D5000000 		.4byte	0xd5
 1224 065d 4C       		.byte	0x4c
 1225 065e 15       		.uleb128 0x15
 1226 065f D2040000 		.4byte	.LASF103
 1227 0663 0D       		.byte	0xd
 1228 0664 B501     		.2byte	0x1b5
 1229 0666 CA000000 		.4byte	0xca
 1230 066a 4E       		.byte	0x4e
 1231 066b 15       		.uleb128 0x15
 1232 066c 6A040000 		.4byte	.LASF104
 1233 0670 0D       		.byte	0xd
 1234 0671 B901     		.2byte	0x1b9
 1235 0673 CA000000 		.4byte	0xca
 1236 0677 4F       		.byte	0x4f
 1237 0678 0C       		.uleb128 0xc
 1238 0679 6F746700 		.ascii	"otg\000"
 1239 067d 0D       		.byte	0xd
 1240 067e C101     		.2byte	0x1c1
 1241 0680 85100000 		.4byte	0x1085
 1242 0684 50       		.byte	0x50
 1243 0685 15       		.uleb128 0x15
 1244 0686 81070000 		.4byte	.LASF105
 1245 068a 0D       		.byte	0xd
 1246 068b C501     		.2byte	0x1c5
 1247 068d 8B100000 		.4byte	0x108b
 1248 0691 54       		.byte	0x54
 1249 0692 15       		.uleb128 0x15
 1250 0693 540B0000 		.4byte	.LASF106
 1251 0697 0D       		.byte	0xd
 1252 0698 C901     		.2byte	0x1c9
 1253 069a EB000000 		.4byte	0xeb
 1254 069e 58       		.byte	0x58
ARM GAS  /tmp/ccy7WDFc.s 			page 23


 1255 069f 15       		.uleb128 0x15
 1256 06a0 52070000 		.4byte	.LASF107
 1257 06a4 0D       		.byte	0xd
 1258 06a5 CD01     		.2byte	0x1cd
 1259 06a7 EB000000 		.4byte	0xeb
 1260 06ab 5C       		.byte	0x5c
 1261 06ac 15       		.uleb128 0x15
 1262 06ad 2F050000 		.4byte	.LASF108
 1263 06b1 0D       		.byte	0xd
 1264 06b2 D101     		.2byte	0x1d1
 1265 06b4 7D020000 		.4byte	0x27d
 1266 06b8 60       		.byte	0x60
 1267 06b9 15       		.uleb128 0x15
 1268 06ba C1010000 		.4byte	.LASF109
 1269 06be 0D       		.byte	0xd
 1270 06bf D501     		.2byte	0x1d5
 1271 06c1 7D020000 		.4byte	0x27d
 1272 06c5 64       		.byte	0x64
 1273 06c6 15       		.uleb128 0x15
 1274 06c7 4E090000 		.4byte	.LASF110
 1275 06cb 0D       		.byte	0xd
 1276 06cc D901     		.2byte	0x1d9
 1277 06ce 96100000 		.4byte	0x1096
 1278 06d2 68       		.byte	0x68
 1279 06d3 00       		.byte	0
 1280 06d4 03       		.uleb128 0x3
 1281 06d5 910A0000 		.4byte	.LASF111
 1282 06d9 0C       		.byte	0xc
 1283 06da EE       		.byte	0xee
 1284 06db CA000000 		.4byte	0xca
 1285 06df 16       		.uleb128 0x16
 1286 06e0 01       		.byte	0x1
 1287 06e1 69000000 		.4byte	0x69
 1288 06e5 0C       		.byte	0xc
 1289 06e6 F3       		.byte	0xf3
 1290 06e7 0A070000 		.4byte	0x70a
 1291 06eb 17       		.uleb128 0x17
 1292 06ec 15080000 		.4byte	.LASF112
 1293 06f0 00       		.byte	0
 1294 06f1 17       		.uleb128 0x17
 1295 06f2 C4070000 		.4byte	.LASF113
 1296 06f6 01       		.byte	0x1
 1297 06f7 17       		.uleb128 0x17
 1298 06f8 A2060000 		.4byte	.LASF114
 1299 06fc 02       		.byte	0x2
 1300 06fd 17       		.uleb128 0x17
 1301 06fe 5D040000 		.4byte	.LASF115
 1302 0702 03       		.byte	0x3
 1303 0703 17       		.uleb128 0x17
 1304 0704 D8000000 		.4byte	.LASF116
 1305 0708 04       		.byte	0x4
 1306 0709 00       		.byte	0
 1307 070a 03       		.uleb128 0x3
 1308 070b 3D050000 		.4byte	.LASF117
 1309 070f 0C       		.byte	0xc
 1310 0710 F9       		.byte	0xf9
 1311 0711 DF060000 		.4byte	0x6df
ARM GAS  /tmp/ccy7WDFc.s 			page 24


 1312 0715 18       		.uleb128 0x18
 1313 0716 01       		.byte	0x1
 1314 0717 69000000 		.4byte	0x69
 1315 071b 0C       		.byte	0xc
 1316 071c 0701     		.2byte	0x107
 1317 071e 4D070000 		.4byte	0x74d
 1318 0722 17       		.uleb128 0x17
 1319 0723 F3010000 		.4byte	.LASF118
 1320 0727 00       		.byte	0
 1321 0728 17       		.uleb128 0x17
 1322 0729 83000000 		.4byte	.LASF119
 1323 072d 01       		.byte	0x1
 1324 072e 17       		.uleb128 0x17
 1325 072f 01080000 		.4byte	.LASF120
 1326 0733 02       		.byte	0x2
 1327 0734 17       		.uleb128 0x17
 1328 0735 320B0000 		.4byte	.LASF121
 1329 0739 03       		.byte	0x3
 1330 073a 17       		.uleb128 0x17
 1331 073b 770B0000 		.4byte	.LASF122
 1332 073f 04       		.byte	0x4
 1333 0740 17       		.uleb128 0x17
 1334 0741 190B0000 		.4byte	.LASF123
 1335 0745 05       		.byte	0x5
 1336 0746 17       		.uleb128 0x17
 1337 0747 86020000 		.4byte	.LASF124
 1338 074b 06       		.byte	0x6
 1339 074c 00       		.byte	0
 1340 074d 19       		.uleb128 0x19
 1341 074e 1D010000 		.4byte	.LASF125
 1342 0752 0C       		.byte	0xc
 1343 0753 0F01     		.2byte	0x10f
 1344 0755 15070000 		.4byte	0x715
 1345 0759 18       		.uleb128 0x18
 1346 075a 01       		.byte	0x1
 1347 075b 69000000 		.4byte	0x69
 1348 075f 0C       		.byte	0xc
 1349 0760 1401     		.2byte	0x114
 1350 0762 8B070000 		.4byte	0x78b
 1351 0766 17       		.uleb128 0x17
 1352 0767 AB090000 		.4byte	.LASF126
 1353 076b 00       		.byte	0
 1354 076c 17       		.uleb128 0x17
 1355 076d 51010000 		.4byte	.LASF127
 1356 0771 01       		.byte	0x1
 1357 0772 17       		.uleb128 0x17
 1358 0773 08090000 		.4byte	.LASF128
 1359 0777 02       		.byte	0x2
 1360 0778 17       		.uleb128 0x17
 1361 0779 A60A0000 		.4byte	.LASF129
 1362 077d 03       		.byte	0x3
 1363 077e 17       		.uleb128 0x17
 1364 077f 87050000 		.4byte	.LASF130
 1365 0783 04       		.byte	0x4
 1366 0784 17       		.uleb128 0x17
 1367 0785 43020000 		.4byte	.LASF131
 1368 0789 05       		.byte	0x5
ARM GAS  /tmp/ccy7WDFc.s 			page 25


 1369 078a 00       		.byte	0
 1370 078b 19       		.uleb128 0x19
 1371 078c 3B040000 		.4byte	.LASF132
 1372 0790 0C       		.byte	0xc
 1373 0791 1B01     		.2byte	0x11b
 1374 0793 59070000 		.4byte	0x759
 1375 0797 1A       		.uleb128 0x1a
 1376 0798 08       		.byte	0x8
 1377 0799 0C       		.byte	0xc
 1378 079a 2001     		.2byte	0x120
 1379 079c BB070000 		.4byte	0x7bb
 1380 07a0 15       		.uleb128 0x15
 1381 07a1 4F040000 		.4byte	.LASF133
 1382 07a5 0C       		.byte	0xc
 1383 07a6 2401     		.2byte	0x124
 1384 07a8 2C000000 		.4byte	0x2c
 1385 07ac 00       		.byte	0
 1386 07ad 15       		.uleb128 0x15
 1387 07ae 58030000 		.4byte	.LASF134
 1388 07b2 0C       		.byte	0xc
 1389 07b3 2801     		.2byte	0x128
 1390 07b5 B4040000 		.4byte	0x4b4
 1391 07b9 04       		.byte	0x4
 1392 07ba 00       		.byte	0
 1393 07bb 19       		.uleb128 0x19
 1394 07bc FA030000 		.4byte	.LASF135
 1395 07c0 0C       		.byte	0xc
 1396 07c1 2901     		.2byte	0x129
 1397 07c3 97070000 		.4byte	0x797
 1398 07c7 19       		.uleb128 0x19
 1399 07c8 0F0A0000 		.4byte	.LASF136
 1400 07cc 0C       		.byte	0xc
 1401 07cd 3101     		.2byte	0x131
 1402 07cf D3070000 		.4byte	0x7d3
 1403 07d3 09       		.uleb128 0x9
 1404 07d4 04       		.byte	0x4
 1405 07d5 D9070000 		.4byte	0x7d9
 1406 07d9 11       		.uleb128 0x11
 1407 07da E4070000 		.4byte	0x7e4
 1408 07de 12       		.uleb128 0x12
 1409 07df E4070000 		.4byte	0x7e4
 1410 07e3 00       		.byte	0
 1411 07e4 09       		.uleb128 0x9
 1412 07e5 04       		.byte	0x4
 1413 07e6 9C050000 		.4byte	0x59c
 1414 07ea 19       		.uleb128 0x19
 1415 07eb CE060000 		.4byte	.LASF137
 1416 07ef 0C       		.byte	0xc
 1417 07f0 3A01     		.2byte	0x13a
 1418 07f2 F6070000 		.4byte	0x7f6
 1419 07f6 09       		.uleb128 0x9
 1420 07f7 04       		.byte	0x4
 1421 07f8 FC070000 		.4byte	0x7fc
 1422 07fc 11       		.uleb128 0x11
 1423 07fd 0C080000 		.4byte	0x80c
 1424 0801 12       		.uleb128 0x12
 1425 0802 E4070000 		.4byte	0x7e4
ARM GAS  /tmp/ccy7WDFc.s 			page 26


 1426 0806 12       		.uleb128 0x12
 1427 0807 D4060000 		.4byte	0x6d4
 1428 080b 00       		.byte	0
 1429 080c 19       		.uleb128 0x19
 1430 080d 85030000 		.4byte	.LASF138
 1431 0811 0C       		.byte	0xc
 1432 0812 4301     		.2byte	0x143
 1433 0814 18080000 		.4byte	0x818
 1434 0818 09       		.uleb128 0x9
 1435 0819 04       		.byte	0x4
 1436 081a 1E080000 		.4byte	0x81e
 1437 081e 11       		.uleb128 0x11
 1438 081f 2E080000 		.4byte	0x82e
 1439 0823 12       		.uleb128 0x12
 1440 0824 E4070000 		.4byte	0x7e4
 1441 0828 12       		.uleb128 0x12
 1442 0829 8B070000 		.4byte	0x78b
 1443 082d 00       		.byte	0
 1444 082e 19       		.uleb128 0x19
 1445 082f FA090000 		.4byte	.LASF139
 1446 0833 0C       		.byte	0xc
 1447 0834 4F01     		.2byte	0x14f
 1448 0836 3A080000 		.4byte	0x83a
 1449 083a 09       		.uleb128 0x9
 1450 083b 04       		.byte	0x4
 1451 083c 40080000 		.4byte	0x840
 1452 0840 1B       		.uleb128 0x1b
 1453 0841 01010000 		.4byte	0x101
 1454 0845 4F080000 		.4byte	0x84f
 1455 0849 12       		.uleb128 0x12
 1456 084a E4070000 		.4byte	0x7e4
 1457 084e 00       		.byte	0
 1458 084f 19       		.uleb128 0x19
 1459 0850 3B090000 		.4byte	.LASF140
 1460 0854 0C       		.byte	0xc
 1461 0855 5401     		.2byte	0x154
 1462 0857 5B080000 		.4byte	0x85b
 1463 085b 09       		.uleb128 0x9
 1464 085c 04       		.byte	0x4
 1465 085d 61080000 		.4byte	0x861
 1466 0861 1B       		.uleb128 0x1b
 1467 0862 7F080000 		.4byte	0x87f
 1468 0866 7F080000 		.4byte	0x87f
 1469 086a 12       		.uleb128 0x12
 1470 086b E4070000 		.4byte	0x7e4
 1471 086f 12       		.uleb128 0x12
 1472 0870 CA000000 		.4byte	0xca
 1473 0874 12       		.uleb128 0x12
 1474 0875 CA000000 		.4byte	0xca
 1475 0879 12       		.uleb128 0x12
 1476 087a D5000000 		.4byte	0xd5
 1477 087e 00       		.byte	0
 1478 087f 09       		.uleb128 0x9
 1479 0880 04       		.byte	0x4
 1480 0881 85080000 		.4byte	0x885
 1481 0885 10       		.uleb128 0x10
 1482 0886 BB070000 		.4byte	0x7bb
ARM GAS  /tmp/ccy7WDFc.s 			page 27


 1483 088a 08       		.uleb128 0x8
 1484 088b 20       		.byte	0x20
 1485 088c 0E       		.byte	0xe
 1486 088d 35       		.byte	0x35
 1487 088e F3080000 		.4byte	0x8f3
 1488 0892 06       		.uleb128 0x6
 1489 0893 DE020000 		.4byte	.LASF141
 1490 0897 0E       		.byte	0xe
 1491 0898 36       		.byte	0x36
 1492 0899 63030000 		.4byte	0x363
 1493 089d 00       		.byte	0
 1494 089e 06       		.uleb128 0x6
 1495 089f 64000000 		.4byte	.LASF142
 1496 08a3 0E       		.byte	0xe
 1497 08a4 38       		.byte	0x38
 1498 08a5 63030000 		.4byte	0x363
 1499 08a9 04       		.byte	0x4
 1500 08aa 06       		.uleb128 0x6
 1501 08ab 77080000 		.4byte	.LASF143
 1502 08af 0E       		.byte	0xe
 1503 08b0 39       		.byte	0x39
 1504 08b1 63030000 		.4byte	0x363
 1505 08b5 08       		.byte	0x8
 1506 08b6 06       		.uleb128 0x6
 1507 08b7 A1080000 		.4byte	.LASF144
 1508 08bb 0E       		.byte	0xe
 1509 08bc 3A       		.byte	0x3a
 1510 08bd 63030000 		.4byte	0x363
 1511 08c1 0C       		.byte	0xc
 1512 08c2 06       		.uleb128 0x6
 1513 08c3 B4030000 		.4byte	.LASF145
 1514 08c7 0E       		.byte	0xe
 1515 08c8 3C       		.byte	0x3c
 1516 08c9 63030000 		.4byte	0x363
 1517 08cd 10       		.byte	0x10
 1518 08ce 06       		.uleb128 0x6
 1519 08cf BB090000 		.4byte	.LASF146
 1520 08d3 0E       		.byte	0xe
 1521 08d4 3E       		.byte	0x3e
 1522 08d5 63030000 		.4byte	0x363
 1523 08d9 14       		.byte	0x14
 1524 08da 06       		.uleb128 0x6
 1525 08db C3090000 		.4byte	.LASF147
 1526 08df 0E       		.byte	0xe
 1527 08e0 3F       		.byte	0x3f
 1528 08e1 63030000 		.4byte	0x363
 1529 08e5 18       		.byte	0x18
 1530 08e6 06       		.uleb128 0x6
 1531 08e7 F2090000 		.4byte	.LASF148
 1532 08eb 0E       		.byte	0xe
 1533 08ec 40       		.byte	0x40
 1534 08ed 63030000 		.4byte	0x363
 1535 08f1 1C       		.byte	0x1c
 1536 08f2 00       		.byte	0
 1537 08f3 03       		.uleb128 0x3
 1538 08f4 92030000 		.4byte	.LASF149
 1539 08f8 0E       		.byte	0xe
ARM GAS  /tmp/ccy7WDFc.s 			page 28


 1540 08f9 41       		.byte	0x41
 1541 08fa 8A080000 		.4byte	0x88a
 1542 08fe 08       		.uleb128 0x8
 1543 08ff 20       		.byte	0x20
 1544 0900 0E       		.byte	0xe
 1545 0901 46       		.byte	0x46
 1546 0902 67090000 		.4byte	0x967
 1547 0906 06       		.uleb128 0x6
 1548 0907 FD020000 		.4byte	.LASF150
 1549 090b 0E       		.byte	0xe
 1550 090c 47       		.byte	0x47
 1551 090d 63030000 		.4byte	0x363
 1552 0911 00       		.byte	0
 1553 0912 06       		.uleb128 0x6
 1554 0913 5D000000 		.4byte	.LASF151
 1555 0917 0E       		.byte	0xe
 1556 0918 49       		.byte	0x49
 1557 0919 63030000 		.4byte	0x363
 1558 091d 04       		.byte	0x4
 1559 091e 06       		.uleb128 0x6
 1560 091f 390A0000 		.4byte	.LASF152
 1561 0923 0E       		.byte	0xe
 1562 0924 4A       		.byte	0x4a
 1563 0925 63030000 		.4byte	0x363
 1564 0929 08       		.byte	0x8
 1565 092a 06       		.uleb128 0x6
 1566 092b 6B000000 		.4byte	.LASF153
 1567 092f 0E       		.byte	0xe
 1568 0930 4C       		.byte	0x4c
 1569 0931 63030000 		.4byte	0x363
 1570 0935 0C       		.byte	0xc
 1571 0936 06       		.uleb128 0x6
 1572 0937 B9020000 		.4byte	.LASF154
 1573 093b 0E       		.byte	0xe
 1574 093c 4D       		.byte	0x4d
 1575 093d 63030000 		.4byte	0x363
 1576 0941 10       		.byte	0x10
 1577 0942 06       		.uleb128 0x6
 1578 0943 BB090000 		.4byte	.LASF146
 1579 0947 0E       		.byte	0xe
 1580 0948 4F       		.byte	0x4f
 1581 0949 63030000 		.4byte	0x363
 1582 094d 14       		.byte	0x14
 1583 094e 06       		.uleb128 0x6
 1584 094f CB090000 		.4byte	.LASF155
 1585 0953 0E       		.byte	0xe
 1586 0954 50       		.byte	0x50
 1587 0955 63030000 		.4byte	0x363
 1588 0959 18       		.byte	0x18
 1589 095a 06       		.uleb128 0x6
 1590 095b DB090000 		.4byte	.LASF156
 1591 095f 0E       		.byte	0xe
 1592 0960 52       		.byte	0x52
 1593 0961 63030000 		.4byte	0x363
 1594 0965 1C       		.byte	0x1c
 1595 0966 00       		.byte	0
 1596 0967 03       		.uleb128 0x3
ARM GAS  /tmp/ccy7WDFc.s 			page 29


 1597 0968 E9080000 		.4byte	.LASF157
 1598 096c 0E       		.byte	0xe
 1599 096d 53       		.byte	0x53
 1600 096e FE080000 		.4byte	0x8fe
 1601 0972 08       		.uleb128 0x8
 1602 0973 20       		.byte	0x20
 1603 0974 0E       		.byte	0xe
 1604 0975 58       		.byte	0x58
 1605 0976 DB090000 		.4byte	0x9db
 1606 097a 06       		.uleb128 0x6
 1607 097b 11020000 		.4byte	.LASF158
 1608 097f 0E       		.byte	0xe
 1609 0980 59       		.byte	0x59
 1610 0981 63030000 		.4byte	0x363
 1611 0985 00       		.byte	0
 1612 0986 06       		.uleb128 0x6
 1613 0987 5D000000 		.4byte	.LASF151
 1614 098b 0E       		.byte	0xe
 1615 098c 5B       		.byte	0x5b
 1616 098d 63030000 		.4byte	0x363
 1617 0991 04       		.byte	0x4
 1618 0992 06       		.uleb128 0x6
 1619 0993 55020000 		.4byte	.LASF159
 1620 0997 0E       		.byte	0xe
 1621 0998 5C       		.byte	0x5c
 1622 0999 63030000 		.4byte	0x363
 1623 099d 08       		.byte	0x8
 1624 099e 06       		.uleb128 0x6
 1625 099f 6B000000 		.4byte	.LASF153
 1626 09a3 0E       		.byte	0xe
 1627 09a4 5E       		.byte	0x5e
 1628 09a5 63030000 		.4byte	0x363
 1629 09a9 0C       		.byte	0xc
 1630 09aa 06       		.uleb128 0x6
 1631 09ab 2C070000 		.4byte	.LASF160
 1632 09af 0E       		.byte	0xe
 1633 09b0 5F       		.byte	0x5f
 1634 09b1 63030000 		.4byte	0x363
 1635 09b5 10       		.byte	0x10
 1636 09b6 06       		.uleb128 0x6
 1637 09b7 BB090000 		.4byte	.LASF146
 1638 09bb 0E       		.byte	0xe
 1639 09bc 61       		.byte	0x61
 1640 09bd 63030000 		.4byte	0x363
 1641 09c1 14       		.byte	0x14
 1642 09c2 06       		.uleb128 0x6
 1643 09c3 C3090000 		.4byte	.LASF147
 1644 09c7 0E       		.byte	0xe
 1645 09c8 62       		.byte	0x62
 1646 09c9 63030000 		.4byte	0x363
 1647 09cd 18       		.byte	0x18
 1648 09ce 06       		.uleb128 0x6
 1649 09cf DB090000 		.4byte	.LASF156
 1650 09d3 0E       		.byte	0xe
 1651 09d4 63       		.byte	0x63
 1652 09d5 63030000 		.4byte	0x363
 1653 09d9 1C       		.byte	0x1c
ARM GAS  /tmp/ccy7WDFc.s 			page 30


 1654 09da 00       		.byte	0
 1655 09db 03       		.uleb128 0x3
 1656 09dc E5020000 		.4byte	.LASF161
 1657 09e0 0E       		.byte	0xe
 1658 09e1 64       		.byte	0x64
 1659 09e2 72090000 		.4byte	0x972
 1660 09e6 1C       		.uleb128 0x1c
 1661 09e7 00100100 		.4byte	0x11000
 1662 09eb 0E       		.byte	0xe
 1663 09ec 69       		.byte	0x69
 1664 09ed C30C0000 		.4byte	0xcc3
 1665 09f1 06       		.uleb128 0x6
 1666 09f2 60050000 		.4byte	.LASF162
 1667 09f6 0E       		.byte	0xe
 1668 09f7 6A       		.byte	0x6a
 1669 09f8 63030000 		.4byte	0x363
 1670 09fc 00       		.byte	0
 1671 09fd 06       		.uleb128 0x6
 1672 09fe BD080000 		.4byte	.LASF163
 1673 0a02 0E       		.byte	0xe
 1674 0a03 6B       		.byte	0x6b
 1675 0a04 63030000 		.4byte	0x363
 1676 0a08 04       		.byte	0x4
 1677 0a09 06       		.uleb128 0x6
 1678 0a0a E3040000 		.4byte	.LASF164
 1679 0a0e 0E       		.byte	0xe
 1680 0a0f 6C       		.byte	0x6c
 1681 0a10 63030000 		.4byte	0x363
 1682 0a14 08       		.byte	0x8
 1683 0a15 06       		.uleb128 0x6
 1684 0a16 640B0000 		.4byte	.LASF165
 1685 0a1a 0E       		.byte	0xe
 1686 0a1b 6D       		.byte	0x6d
 1687 0a1c 63030000 		.4byte	0x363
 1688 0a20 0C       		.byte	0xc
 1689 0a21 06       		.uleb128 0x6
 1690 0a22 33040000 		.4byte	.LASF166
 1691 0a26 0E       		.byte	0xe
 1692 0a27 6E       		.byte	0x6e
 1693 0a28 63030000 		.4byte	0x363
 1694 0a2c 10       		.byte	0x10
 1695 0a2d 06       		.uleb128 0x6
 1696 0a2e 240A0000 		.4byte	.LASF167
 1697 0a32 0E       		.byte	0xe
 1698 0a33 6F       		.byte	0x6f
 1699 0a34 63030000 		.4byte	0x363
 1700 0a38 14       		.byte	0x14
 1701 0a39 06       		.uleb128 0x6
 1702 0a3a D8070000 		.4byte	.LASF168
 1703 0a3e 0E       		.byte	0xe
 1704 0a3f 70       		.byte	0x70
 1705 0a40 63030000 		.4byte	0x363
 1706 0a44 18       		.byte	0x18
 1707 0a45 06       		.uleb128 0x6
 1708 0a46 7F050000 		.4byte	.LASF169
 1709 0a4a 0E       		.byte	0xe
 1710 0a4b 71       		.byte	0x71
ARM GAS  /tmp/ccy7WDFc.s 			page 31


 1711 0a4c 63030000 		.4byte	0x363
 1712 0a50 1C       		.byte	0x1c
 1713 0a51 06       		.uleb128 0x6
 1714 0a52 6E050000 		.4byte	.LASF170
 1715 0a56 0E       		.byte	0xe
 1716 0a57 73       		.byte	0x73
 1717 0a58 63030000 		.4byte	0x363
 1718 0a5c 20       		.byte	0x20
 1719 0a5d 06       		.uleb128 0x6
 1720 0a5e 78040000 		.4byte	.LASF171
 1721 0a62 0E       		.byte	0xe
 1722 0a63 75       		.byte	0x75
 1723 0a64 63030000 		.4byte	0x363
 1724 0a68 24       		.byte	0x24
 1725 0a69 06       		.uleb128 0x6
 1726 0a6a 63010000 		.4byte	.LASF172
 1727 0a6e 0E       		.byte	0xe
 1728 0a6f 76       		.byte	0x76
 1729 0a70 63030000 		.4byte	0x363
 1730 0a74 28       		.byte	0x28
 1731 0a75 06       		.uleb128 0x6
 1732 0a76 410A0000 		.4byte	.LASF173
 1733 0a7a 0E       		.byte	0xe
 1734 0a7b 78       		.byte	0x78
 1735 0a7c 63030000 		.4byte	0x363
 1736 0a80 2C       		.byte	0x2c
 1737 0a81 06       		.uleb128 0x6
 1738 0a82 6F0A0000 		.4byte	.LASF174
 1739 0a86 0E       		.byte	0xe
 1740 0a87 7A       		.byte	0x7a
 1741 0a88 63030000 		.4byte	0x363
 1742 0a8c 30       		.byte	0x30
 1743 0a8d 06       		.uleb128 0x6
 1744 0a8e 800A0000 		.4byte	.LASF175
 1745 0a92 0E       		.byte	0xe
 1746 0a93 7B       		.byte	0x7b
 1747 0a94 63030000 		.4byte	0x363
 1748 0a98 34       		.byte	0x34
 1749 0a99 06       		.uleb128 0x6
 1750 0a9a AA020000 		.4byte	.LASF176
 1751 0a9e 0E       		.byte	0xe
 1752 0a9f 7C       		.byte	0x7c
 1753 0aa0 63030000 		.4byte	0x363
 1754 0aa4 38       		.byte	0x38
 1755 0aa5 07       		.uleb128 0x7
 1756 0aa6 43494400 		.ascii	"CID\000"
 1757 0aaa 0E       		.byte	0xe
 1758 0aab 7D       		.byte	0x7d
 1759 0aac 63030000 		.4byte	0x363
 1760 0ab0 3C       		.byte	0x3c
 1761 0ab1 06       		.uleb128 0x6
 1762 0ab2 110B0000 		.4byte	.LASF177
 1763 0ab6 0E       		.byte	0xe
 1764 0ab7 7E       		.byte	0x7e
 1765 0ab8 D30C0000 		.4byte	0xcd3
 1766 0abc 40       		.byte	0x40
 1767 0abd 1D       		.uleb128 0x1d
ARM GAS  /tmp/ccy7WDFc.s 			page 32


 1768 0abe 5D080000 		.4byte	.LASF178
 1769 0ac2 0E       		.byte	0xe
 1770 0ac3 7F       		.byte	0x7f
 1771 0ac4 63030000 		.4byte	0x363
 1772 0ac8 0001     		.2byte	0x100
 1773 0aca 1D       		.uleb128 0x1d
 1774 0acb 9E040000 		.4byte	.LASF179
 1775 0acf 0E       		.byte	0xe
 1776 0ad0 81       		.byte	0x81
 1777 0ad1 E80C0000 		.4byte	0xce8
 1778 0ad5 0401     		.2byte	0x104
 1779 0ad7 1D       		.uleb128 0x1d
 1780 0ad8 820B0000 		.4byte	.LASF180
 1781 0adc 0E       		.byte	0xe
 1782 0add 83       		.byte	0x83
 1783 0ade FD0C0000 		.4byte	0xcfd
 1784 0ae2 4001     		.2byte	0x140
 1785 0ae4 1D       		.uleb128 0x1d
 1786 0ae5 D9020000 		.4byte	.LASF181
 1787 0ae9 0E       		.byte	0xe
 1788 0aea 84       		.byte	0x84
 1789 0aeb 63030000 		.4byte	0x363
 1790 0aef 0004     		.2byte	0x400
 1791 0af1 1D       		.uleb128 0x1d
 1792 0af2 2D0B0000 		.4byte	.LASF182
 1793 0af6 0E       		.byte	0xe
 1794 0af7 85       		.byte	0x85
 1795 0af8 63030000 		.4byte	0x363
 1796 0afc 0404     		.2byte	0x404
 1797 0afe 1D       		.uleb128 0x1d
 1798 0aff 7F030000 		.4byte	.LASF183
 1799 0b03 0E       		.byte	0xe
 1800 0b04 86       		.byte	0x86
 1801 0b05 63030000 		.4byte	0x363
 1802 0b09 0804     		.2byte	0x408
 1803 0b0b 1D       		.uleb128 0x1d
 1804 0b0c 4F050000 		.4byte	.LASF184
 1805 0b10 0E       		.byte	0xe
 1806 0b11 88       		.byte	0x88
 1807 0b12 63030000 		.4byte	0x363
 1808 0b16 0C04     		.2byte	0x40c
 1809 0b18 1D       		.uleb128 0x1d
 1810 0b19 090B0000 		.4byte	.LASF185
 1811 0b1d 0E       		.byte	0xe
 1812 0b1e 89       		.byte	0x89
 1813 0b1f 63030000 		.4byte	0x363
 1814 0b23 1004     		.2byte	0x410
 1815 0b25 1D       		.uleb128 0x1d
 1816 0b26 35070000 		.4byte	.LASF186
 1817 0b2a 0E       		.byte	0xe
 1818 0b2b 8B       		.byte	0x8b
 1819 0b2c 63030000 		.4byte	0x363
 1820 0b30 1404     		.2byte	0x414
 1821 0b32 1D       		.uleb128 0x1d
 1822 0b33 BB070000 		.4byte	.LASF187
 1823 0b37 0E       		.byte	0xe
 1824 0b38 8D       		.byte	0x8d
ARM GAS  /tmp/ccy7WDFc.s 			page 33


 1825 0b39 63030000 		.4byte	0x363
 1826 0b3d 1804     		.2byte	0x418
 1827 0b3f 1D       		.uleb128 0x1d
 1828 0b40 B4060000 		.4byte	.LASF188
 1829 0b44 0E       		.byte	0xe
 1830 0b45 8F       		.byte	0x8f
 1831 0b46 120D0000 		.4byte	0xd12
 1832 0b4a 1C04     		.2byte	0x41c
 1833 0b4c 1D       		.uleb128 0x1d
 1834 0b4d 13030000 		.4byte	.LASF189
 1835 0b51 0E       		.byte	0xe
 1836 0b52 90       		.byte	0x90
 1837 0b53 63030000 		.4byte	0x363
 1838 0b57 4004     		.2byte	0x440
 1839 0b59 1D       		.uleb128 0x1d
 1840 0b5a A1070000 		.4byte	.LASF190
 1841 0b5e 0E       		.byte	0xe
 1842 0b5f 92       		.byte	0x92
 1843 0b60 270D0000 		.4byte	0xd27
 1844 0b64 4404     		.2byte	0x444
 1845 0b66 1E       		.uleb128 0x1e
 1846 0b67 686300   		.ascii	"hc\000"
 1847 0b6a 0E       		.byte	0xe
 1848 0b6b 93       		.byte	0x93
 1849 0b6c 2C0D0000 		.4byte	0xd2c
 1850 0b70 0005     		.2byte	0x500
 1851 0b72 1D       		.uleb128 0x1d
 1852 0b73 8E000000 		.4byte	.LASF191
 1853 0b77 0E       		.byte	0xe
 1854 0b78 94       		.byte	0x94
 1855 0b79 4C0D0000 		.4byte	0xd4c
 1856 0b7d 0007     		.2byte	0x700
 1857 0b7f 1D       		.uleb128 0x1d
 1858 0b80 A5020000 		.4byte	.LASF192
 1859 0b84 0E       		.byte	0xe
 1860 0b85 95       		.byte	0x95
 1861 0b86 63030000 		.4byte	0x363
 1862 0b8a 0008     		.2byte	0x800
 1863 0b8c 1D       		.uleb128 0x1d
 1864 0b8d 8A080000 		.4byte	.LASF193
 1865 0b91 0E       		.byte	0xe
 1866 0b92 96       		.byte	0x96
 1867 0b93 63030000 		.4byte	0x363
 1868 0b97 0408     		.2byte	0x804
 1869 0b99 1D       		.uleb128 0x1d
 1870 0b9a D20A0000 		.4byte	.LASF194
 1871 0b9e 0E       		.byte	0xe
 1872 0b9f 97       		.byte	0x97
 1873 0ba0 63030000 		.4byte	0x363
 1874 0ba4 0808     		.2byte	0x808
 1875 0ba6 1D       		.uleb128 0x1d
 1876 0ba7 0A030000 		.4byte	.LASF195
 1877 0bab 0E       		.byte	0xe
 1878 0bac 98       		.byte	0x98
 1879 0bad 63030000 		.4byte	0x363
 1880 0bb1 0C08     		.2byte	0x80c
 1881 0bb3 1D       		.uleb128 0x1d
ARM GAS  /tmp/ccy7WDFc.s 			page 34


 1882 0bb4 E3090000 		.4byte	.LASF196
 1883 0bb8 0E       		.byte	0xe
 1884 0bb9 99       		.byte	0x99
 1885 0bba 63030000 		.4byte	0x363
 1886 0bbe 1008     		.2byte	0x810
 1887 0bc0 1D       		.uleb128 0x1d
 1888 0bc1 09020000 		.4byte	.LASF197
 1889 0bc5 0E       		.byte	0xe
 1890 0bc6 9B       		.byte	0x9b
 1891 0bc7 63030000 		.4byte	0x363
 1892 0bcb 1408     		.2byte	0x814
 1893 0bcd 1D       		.uleb128 0x1d
 1894 0bce ED010000 		.4byte	.LASF198
 1895 0bd2 0E       		.byte	0xe
 1896 0bd3 9D       		.byte	0x9d
 1897 0bd4 63030000 		.4byte	0x363
 1898 0bd8 1808     		.2byte	0x818
 1899 0bda 1D       		.uleb128 0x1d
 1900 0bdb D7080000 		.4byte	.LASF199
 1901 0bdf 0E       		.byte	0xe
 1902 0be0 9F       		.byte	0x9f
 1903 0be1 63030000 		.4byte	0x363
 1904 0be5 1C08     		.2byte	0x81c
 1905 0be7 1D       		.uleb128 0x1d
 1906 0be8 21050000 		.4byte	.LASF200
 1907 0bec 0E       		.byte	0xe
 1908 0bed A1       		.byte	0xa1
 1909 0bee 63030000 		.4byte	0x363
 1910 0bf2 2008     		.2byte	0x820
 1911 0bf4 1D       		.uleb128 0x1d
 1912 0bf5 DB030000 		.4byte	.LASF201
 1913 0bf9 0E       		.byte	0xe
 1914 0bfa A2       		.byte	0xa2
 1915 0bfb 63030000 		.4byte	0x363
 1916 0bff 2408     		.2byte	0x824
 1917 0c01 1D       		.uleb128 0x1d
 1918 0c02 E0080000 		.4byte	.LASF202
 1919 0c06 0E       		.byte	0xe
 1920 0c07 A3       		.byte	0xa3
 1921 0c08 63030000 		.4byte	0x363
 1922 0c0c 2808     		.2byte	0x828
 1923 0c0e 1D       		.uleb128 0x1d
 1924 0c0f E4030000 		.4byte	.LASF203
 1925 0c13 0E       		.byte	0xe
 1926 0c14 A5       		.byte	0xa5
 1927 0c15 63030000 		.4byte	0x363
 1928 0c19 2C08     		.2byte	0x82c
 1929 0c1b 1D       		.uleb128 0x1d
 1930 0c1c C5060000 		.4byte	.LASF204
 1931 0c20 0E       		.byte	0xe
 1932 0c21 A7       		.byte	0xa7
 1933 0c22 63030000 		.4byte	0x363
 1934 0c26 3008     		.2byte	0x830
 1935 0c28 1D       		.uleb128 0x1d
 1936 0c29 EF030000 		.4byte	.LASF205
 1937 0c2d 0E       		.byte	0xe
 1938 0c2e A8       		.byte	0xa8
ARM GAS  /tmp/ccy7WDFc.s 			page 35


 1939 0c2f 63030000 		.4byte	0x363
 1940 0c33 3408     		.2byte	0x834
 1941 0c35 1D       		.uleb128 0x1d
 1942 0c36 46040000 		.4byte	.LASF206
 1943 0c3a 0E       		.byte	0xe
 1944 0c3b AA       		.byte	0xaa
 1945 0c3c 63030000 		.4byte	0x363
 1946 0c40 3808     		.2byte	0x838
 1947 0c42 1D       		.uleb128 0x1d
 1948 0c43 01070000 		.4byte	.LASF207
 1949 0c47 0E       		.byte	0xe
 1950 0c48 AB       		.byte	0xab
 1951 0c49 63030000 		.4byte	0x363
 1952 0c4d 3C08     		.2byte	0x83c
 1953 0c4f 1D       		.uleb128 0x1d
 1954 0c50 8A040000 		.4byte	.LASF208
 1955 0c54 0E       		.byte	0xe
 1956 0c55 AC       		.byte	0xac
 1957 0c56 610D0000 		.4byte	0xd61
 1958 0c5a 4008     		.2byte	0x840
 1959 0c5c 1D       		.uleb128 0x1d
 1960 0c5d DE060000 		.4byte	.LASF209
 1961 0c61 0E       		.byte	0xe
 1962 0c62 AD       		.byte	0xad
 1963 0c63 660D0000 		.4byte	0xd66
 1964 0c67 8008     		.2byte	0x880
 1965 0c69 1D       		.uleb128 0x1d
 1966 0c6a 770A0000 		.4byte	.LASF210
 1967 0c6e 0E       		.byte	0xe
 1968 0c6f AE       		.byte	0xae
 1969 0c70 6B0D0000 		.4byte	0xd6b
 1970 0c74 C008     		.2byte	0x8c0
 1971 0c76 1E       		.uleb128 0x1e
 1972 0c77 696500   		.ascii	"ie\000"
 1973 0c7a 0E       		.byte	0xe
 1974 0c7b AF       		.byte	0xaf
 1975 0c7c 700D0000 		.4byte	0xd70
 1976 0c80 0009     		.2byte	0x900
 1977 0c82 1E       		.uleb128 0x1e
 1978 0c83 6F6500   		.ascii	"oe\000"
 1979 0c86 0E       		.byte	0xe
 1980 0c87 B0       		.byte	0xb0
 1981 0c88 800D0000 		.4byte	0xd80
 1982 0c8c 000B     		.2byte	0xb00
 1983 0c8e 1D       		.uleb128 0x1d
 1984 0c8f 3D080000 		.4byte	.LASF211
 1985 0c93 0E       		.byte	0xe
 1986 0c94 B1       		.byte	0xb1
 1987 0c95 900D0000 		.4byte	0xd90
 1988 0c99 000D     		.2byte	0xd00
 1989 0c9b 1D       		.uleb128 0x1d
 1990 0c9c 98050000 		.4byte	.LASF212
 1991 0ca0 0E       		.byte	0xe
 1992 0ca1 B2       		.byte	0xb2
 1993 0ca2 63030000 		.4byte	0x363
 1994 0ca6 000E     		.2byte	0xe00
 1995 0ca8 1D       		.uleb128 0x1d
ARM GAS  /tmp/ccy7WDFc.s 			page 36


 1996 0ca9 660A0000 		.4byte	.LASF213
 1997 0cad 0E       		.byte	0xe
 1998 0cae B4       		.byte	0xb4
 1999 0caf A50D0000 		.4byte	0xda5
 2000 0cb3 040E     		.2byte	0xe04
 2001 0cb5 1D       		.uleb128 0x1d
 2002 0cb6 1D090000 		.4byte	.LASF214
 2003 0cba 0E       		.byte	0xe
 2004 0cbb B5       		.byte	0xb5
 2005 0cbc C10D0000 		.4byte	0xdc1
 2006 0cc0 0010     		.2byte	0x1000
 2007 0cc2 00       		.byte	0
 2008 0cc3 1F       		.uleb128 0x1f
 2009 0cc4 63030000 		.4byte	0x363
 2010 0cc8 D30C0000 		.4byte	0xcd3
 2011 0ccc 20       		.uleb128 0x20
 2012 0ccd 68030000 		.4byte	0x368
 2013 0cd1 2F       		.byte	0x2f
 2014 0cd2 00       		.byte	0
 2015 0cd3 0D       		.uleb128 0xd
 2016 0cd4 C30C0000 		.4byte	0xcc3
 2017 0cd8 1F       		.uleb128 0x1f
 2018 0cd9 63030000 		.4byte	0x363
 2019 0cdd E80C0000 		.4byte	0xce8
 2020 0ce1 20       		.uleb128 0x20
 2021 0ce2 68030000 		.4byte	0x368
 2022 0ce6 0E       		.byte	0xe
 2023 0ce7 00       		.byte	0
 2024 0ce8 0D       		.uleb128 0xd
 2025 0ce9 D80C0000 		.4byte	0xcd8
 2026 0ced 1F       		.uleb128 0x1f
 2027 0cee 63030000 		.4byte	0x363
 2028 0cf2 FD0C0000 		.4byte	0xcfd
 2029 0cf6 20       		.uleb128 0x20
 2030 0cf7 68030000 		.4byte	0x368
 2031 0cfb AF       		.byte	0xaf
 2032 0cfc 00       		.byte	0
 2033 0cfd 0D       		.uleb128 0xd
 2034 0cfe ED0C0000 		.4byte	0xced
 2035 0d02 1F       		.uleb128 0x1f
 2036 0d03 63030000 		.4byte	0x363
 2037 0d07 120D0000 		.4byte	0xd12
 2038 0d0b 20       		.uleb128 0x20
 2039 0d0c 68030000 		.4byte	0x368
 2040 0d10 08       		.byte	0x8
 2041 0d11 00       		.byte	0
 2042 0d12 0D       		.uleb128 0xd
 2043 0d13 020D0000 		.4byte	0xd02
 2044 0d17 1F       		.uleb128 0x1f
 2045 0d18 63030000 		.4byte	0x363
 2046 0d1c 270D0000 		.4byte	0xd27
 2047 0d20 20       		.uleb128 0x20
 2048 0d21 68030000 		.4byte	0x368
 2049 0d25 2E       		.byte	0x2e
 2050 0d26 00       		.byte	0
 2051 0d27 0D       		.uleb128 0xd
 2052 0d28 170D0000 		.4byte	0xd17
ARM GAS  /tmp/ccy7WDFc.s 			page 37


 2053 0d2c 1F       		.uleb128 0x1f
 2054 0d2d F3080000 		.4byte	0x8f3
 2055 0d31 3C0D0000 		.4byte	0xd3c
 2056 0d35 20       		.uleb128 0x20
 2057 0d36 68030000 		.4byte	0x368
 2058 0d3a 0F       		.byte	0xf
 2059 0d3b 00       		.byte	0
 2060 0d3c 1F       		.uleb128 0x1f
 2061 0d3d 63030000 		.4byte	0x363
 2062 0d41 4C0D0000 		.4byte	0xd4c
 2063 0d45 20       		.uleb128 0x20
 2064 0d46 68030000 		.4byte	0x368
 2065 0d4a 3F       		.byte	0x3f
 2066 0d4b 00       		.byte	0
 2067 0d4c 0D       		.uleb128 0xd
 2068 0d4d 3C0D0000 		.4byte	0xd3c
 2069 0d51 1F       		.uleb128 0x1f
 2070 0d52 63030000 		.4byte	0x363
 2071 0d56 610D0000 		.4byte	0xd61
 2072 0d5a 20       		.uleb128 0x20
 2073 0d5b 68030000 		.4byte	0x368
 2074 0d5f 0F       		.byte	0xf
 2075 0d60 00       		.byte	0
 2076 0d61 0D       		.uleb128 0xd
 2077 0d62 510D0000 		.4byte	0xd51
 2078 0d66 0D       		.uleb128 0xd
 2079 0d67 510D0000 		.4byte	0xd51
 2080 0d6b 0D       		.uleb128 0xd
 2081 0d6c 510D0000 		.4byte	0xd51
 2082 0d70 1F       		.uleb128 0x1f
 2083 0d71 67090000 		.4byte	0x967
 2084 0d75 800D0000 		.4byte	0xd80
 2085 0d79 20       		.uleb128 0x20
 2086 0d7a 68030000 		.4byte	0x368
 2087 0d7e 0F       		.byte	0xf
 2088 0d7f 00       		.byte	0
 2089 0d80 1F       		.uleb128 0x1f
 2090 0d81 DB090000 		.4byte	0x9db
 2091 0d85 900D0000 		.4byte	0xd90
 2092 0d89 20       		.uleb128 0x20
 2093 0d8a 68030000 		.4byte	0x368
 2094 0d8e 0F       		.byte	0xf
 2095 0d8f 00       		.byte	0
 2096 0d90 0D       		.uleb128 0xd
 2097 0d91 3C0D0000 		.4byte	0xd3c
 2098 0d95 1F       		.uleb128 0x1f
 2099 0d96 63030000 		.4byte	0x363
 2100 0d9a A50D0000 		.4byte	0xda5
 2101 0d9e 20       		.uleb128 0x20
 2102 0d9f 68030000 		.4byte	0x368
 2103 0da3 7E       		.byte	0x7e
 2104 0da4 00       		.byte	0
 2105 0da5 0D       		.uleb128 0xd
 2106 0da6 950D0000 		.4byte	0xd95
 2107 0daa 1F       		.uleb128 0x1f
 2108 0dab 63030000 		.4byte	0x363
 2109 0daf C10D0000 		.4byte	0xdc1
ARM GAS  /tmp/ccy7WDFc.s 			page 38


 2110 0db3 20       		.uleb128 0x20
 2111 0db4 68030000 		.4byte	0x368
 2112 0db8 0F       		.byte	0xf
 2113 0db9 21       		.uleb128 0x21
 2114 0dba 68030000 		.4byte	0x368
 2115 0dbe FF03     		.2byte	0x3ff
 2116 0dc0 00       		.byte	0
 2117 0dc1 0D       		.uleb128 0xd
 2118 0dc2 AA0D0000 		.4byte	0xdaa
 2119 0dc6 03       		.uleb128 0x3
 2120 0dc7 64070000 		.4byte	.LASF215
 2121 0dcb 0E       		.byte	0xe
 2122 0dcc B6       		.byte	0xb6
 2123 0dcd E6090000 		.4byte	0x9e6
 2124 0dd1 08       		.uleb128 0x8
 2125 0dd2 0C       		.byte	0xc
 2126 0dd3 0D       		.byte	0xd
 2127 0dd4 C6       		.byte	0xc6
 2128 0dd5 FE0D0000 		.4byte	0xdfe
 2129 0dd9 06       		.uleb128 0x6
 2130 0dda 48000000 		.4byte	.LASF216
 2131 0dde 0D       		.byte	0xd
 2132 0ddf C7       		.byte	0xc7
 2133 0de0 EB000000 		.4byte	0xeb
 2134 0de4 00       		.byte	0
 2135 0de5 06       		.uleb128 0x6
 2136 0de6 FB080000 		.4byte	.LASF217
 2137 0dea 0D       		.byte	0xd
 2138 0deb C8       		.byte	0xc8
 2139 0dec EB000000 		.4byte	0xeb
 2140 0df0 04       		.byte	0x4
 2141 0df1 06       		.uleb128 0x6
 2142 0df2 0B050000 		.4byte	.LASF218
 2143 0df6 0D       		.byte	0xd
 2144 0df7 C9       		.byte	0xc9
 2145 0df8 EB000000 		.4byte	0xeb
 2146 0dfc 08       		.byte	0x8
 2147 0dfd 00       		.byte	0
 2148 0dfe 03       		.uleb128 0x3
 2149 0dff 08040000 		.4byte	.LASF219
 2150 0e03 0D       		.byte	0xd
 2151 0e04 CA       		.byte	0xca
 2152 0e05 D10D0000 		.4byte	0xdd1
 2153 0e09 08       		.uleb128 0x8
 2154 0e0a 04       		.byte	0x4
 2155 0e0b 0D       		.byte	0xd
 2156 0e0c DD       		.byte	0xdd
 2157 0e0d 1E0E0000 		.4byte	0xe1e
 2158 0e11 06       		.uleb128 0x6
 2159 0e12 CA010000 		.4byte	.LASF220
 2160 0e16 0D       		.byte	0xd
 2161 0e17 E1       		.byte	0xe1
 2162 0e18 B4040000 		.4byte	0x4b4
 2163 0e1c 00       		.byte	0
 2164 0e1d 00       		.byte	0
 2165 0e1e 08       		.uleb128 0x8
 2166 0e1f 04       		.byte	0x4
ARM GAS  /tmp/ccy7WDFc.s 			page 39


 2167 0e20 0D       		.byte	0xd
 2168 0e21 E3       		.byte	0xe3
 2169 0e22 330E0000 		.4byte	0xe33
 2170 0e26 06       		.uleb128 0x6
 2171 0e27 D3090000 		.4byte	.LASF221
 2172 0e2b 0D       		.byte	0xd
 2173 0e2c E7       		.byte	0xe7
 2174 0e2d 330E0000 		.4byte	0xe33
 2175 0e31 00       		.byte	0
 2176 0e32 00       		.byte	0
 2177 0e33 09       		.uleb128 0x9
 2178 0e34 04       		.byte	0x4
 2179 0e35 A9040000 		.4byte	0x4a9
 2180 0e39 0E       		.uleb128 0xe
 2181 0e3a 04       		.byte	0x4
 2182 0e3b 0D       		.byte	0xd
 2183 0e3c DC       		.byte	0xdc
 2184 0e3d 580E0000 		.4byte	0xe58
 2185 0e41 0F       		.uleb128 0xf
 2186 0e42 7D080000 		.4byte	.LASF222
 2187 0e46 0D       		.byte	0xd
 2188 0e47 E2       		.byte	0xe2
 2189 0e48 090E0000 		.4byte	0xe09
 2190 0e4c 0F       		.uleb128 0xf
 2191 0e4d 07000000 		.4byte	.LASF223
 2192 0e51 0D       		.byte	0xd
 2193 0e52 E8       		.byte	0xe8
 2194 0e53 1E0E0000 		.4byte	0xe1e
 2195 0e57 00       		.byte	0
 2196 0e58 08       		.uleb128 0x8
 2197 0e59 14       		.byte	0x14
 2198 0e5a 0D       		.byte	0xd
 2199 0e5b CF       		.byte	0xcf
 2200 0e5c 9D0E0000 		.4byte	0xe9d
 2201 0e60 06       		.uleb128 0x6
 2202 0e61 5B0B0000 		.4byte	.LASF224
 2203 0e65 0D       		.byte	0xd
 2204 0e66 D3       		.byte	0xd3
 2205 0e67 01010000 		.4byte	0x101
 2206 0e6b 00       		.byte	0
 2207 0e6c 06       		.uleb128 0x6
 2208 0e6d 48050000 		.4byte	.LASF225
 2209 0e71 0D       		.byte	0xd
 2210 0e72 D7       		.byte	0xd7
 2211 0e73 2C000000 		.4byte	0x2c
 2212 0e77 04       		.byte	0x4
 2213 0e78 06       		.uleb128 0x6
 2214 0e79 95010000 		.4byte	.LASF226
 2215 0e7d 0D       		.byte	0xd
 2216 0e7e DB       		.byte	0xdb
 2217 0e7f 2C000000 		.4byte	0x2c
 2218 0e83 08       		.byte	0x8
 2219 0e84 06       		.uleb128 0x6
 2220 0e85 99090000 		.4byte	.LASF227
 2221 0e89 0D       		.byte	0xd
 2222 0e8a E9       		.byte	0xe9
 2223 0e8b 390E0000 		.4byte	0xe39
ARM GAS  /tmp/ccy7WDFc.s 			page 40


 2224 0e8f 0C       		.byte	0xc
 2225 0e90 06       		.uleb128 0x6
 2226 0e91 88090000 		.4byte	.LASF228
 2227 0e95 0D       		.byte	0xd
 2228 0e96 ED       		.byte	0xed
 2229 0e97 2C000000 		.4byte	0x2c
 2230 0e9b 10       		.byte	0x10
 2231 0e9c 00       		.byte	0
 2232 0e9d 03       		.uleb128 0x3
 2233 0e9e BB030000 		.4byte	.LASF229
 2234 0ea2 0D       		.byte	0xd
 2235 0ea3 EE       		.byte	0xee
 2236 0ea4 580E0000 		.4byte	0xe58
 2237 0ea8 1A       		.uleb128 0x1a
 2238 0ea9 04       		.byte	0x4
 2239 0eaa 0D       		.byte	0xd
 2240 0eab 0101     		.2byte	0x101
 2241 0ead BF0E0000 		.4byte	0xebf
 2242 0eb1 15       		.uleb128 0x15
 2243 0eb2 68050000 		.4byte	.LASF230
 2244 0eb6 0D       		.byte	0xd
 2245 0eb7 0501     		.2byte	0x105
 2246 0eb9 98040000 		.4byte	0x498
 2247 0ebd 00       		.byte	0
 2248 0ebe 00       		.byte	0
 2249 0ebf 1A       		.uleb128 0x1a
 2250 0ec0 04       		.byte	0x4
 2251 0ec1 0D       		.byte	0xd
 2252 0ec2 0701     		.2byte	0x107
 2253 0ec4 D60E0000 		.4byte	0xed6
 2254 0ec8 15       		.uleb128 0x15
 2255 0ec9 CF080000 		.4byte	.LASF231
 2256 0ecd 0D       		.byte	0xd
 2257 0ece 0B01     		.2byte	0x10b
 2258 0ed0 D60E0000 		.4byte	0xed6
 2259 0ed4 00       		.byte	0
 2260 0ed5 00       		.byte	0
 2261 0ed6 09       		.uleb128 0x9
 2262 0ed7 04       		.byte	0x4
 2263 0ed8 9E040000 		.4byte	0x49e
 2264 0edc 22       		.uleb128 0x22
 2265 0edd 04       		.byte	0x4
 2266 0ede 0D       		.byte	0xd
 2267 0edf 0001     		.2byte	0x100
 2268 0ee1 FE0E0000 		.4byte	0xefe
 2269 0ee5 23       		.uleb128 0x23
 2270 0ee6 7D080000 		.4byte	.LASF222
 2271 0eea 0D       		.byte	0xd
 2272 0eeb 0601     		.2byte	0x106
 2273 0eed A80E0000 		.4byte	0xea8
 2274 0ef1 23       		.uleb128 0x23
 2275 0ef2 07000000 		.4byte	.LASF223
 2276 0ef6 0D       		.byte	0xd
 2277 0ef7 0C01     		.2byte	0x10c
 2278 0ef9 BF0E0000 		.4byte	0xebf
 2279 0efd 00       		.byte	0
 2280 0efe 08       		.uleb128 0x8
ARM GAS  /tmp/ccy7WDFc.s 			page 41


 2281 0eff 14       		.byte	0x14
 2282 0f00 0D       		.byte	0xd
 2283 0f01 F3       		.byte	0xf3
 2284 0f02 450F0000 		.4byte	0xf45
 2285 0f06 06       		.uleb128 0x6
 2286 0f07 AA080000 		.4byte	.LASF232
 2287 0f0b 0D       		.byte	0xd
 2288 0f0c F7       		.byte	0xf7
 2289 0f0d 01010000 		.4byte	0x101
 2290 0f11 00       		.byte	0
 2291 0f12 06       		.uleb128 0x6
 2292 0f13 71020000 		.4byte	.LASF233
 2293 0f17 0D       		.byte	0xd
 2294 0f18 FB       		.byte	0xfb
 2295 0f19 2C000000 		.4byte	0x2c
 2296 0f1d 04       		.byte	0x4
 2297 0f1e 06       		.uleb128 0x6
 2298 0f1f 37050000 		.4byte	.LASF234
 2299 0f23 0D       		.byte	0xd
 2300 0f24 FF       		.byte	0xff
 2301 0f25 2C000000 		.4byte	0x2c
 2302 0f29 08       		.byte	0x8
 2303 0f2a 15       		.uleb128 0x15
 2304 0f2b 99090000 		.4byte	.LASF227
 2305 0f2f 0D       		.byte	0xd
 2306 0f30 0D01     		.2byte	0x10d
 2307 0f32 DC0E0000 		.4byte	0xedc
 2308 0f36 0C       		.byte	0xc
 2309 0f37 15       		.uleb128 0x15
 2310 0f38 88090000 		.4byte	.LASF228
 2311 0f3c 0D       		.byte	0xd
 2312 0f3d 1101     		.2byte	0x111
 2313 0f3f 2C000000 		.4byte	0x2c
 2314 0f43 10       		.byte	0x10
 2315 0f44 00       		.byte	0
 2316 0f45 19       		.uleb128 0x19
 2317 0f46 20080000 		.4byte	.LASF235
 2318 0f4a 0D       		.byte	0xd
 2319 0f4b 1201     		.2byte	0x112
 2320 0f4d FE0E0000 		.4byte	0xefe
 2321 0f51 1A       		.uleb128 0x1a
 2322 0f52 24       		.byte	0x24
 2323 0f53 0D       		.byte	0xd
 2324 0f54 1801     		.2byte	0x118
 2325 0f56 DD0F0000 		.4byte	0xfdd
 2326 0f5a 15       		.uleb128 0x15
 2327 0f5b C0000000 		.4byte	.LASF236
 2328 0f5f 0D       		.byte	0xd
 2329 0f60 1C01     		.2byte	0x11c
 2330 0f62 EB000000 		.4byte	0xeb
 2331 0f66 00       		.byte	0
 2332 0f67 15       		.uleb128 0x15
 2333 0f68 4F030000 		.4byte	.LASF237
 2334 0f6c 0D       		.byte	0xd
 2335 0f6d 2701     		.2byte	0x127
 2336 0f6f EA070000 		.4byte	0x7ea
 2337 0f73 04       		.byte	0x4
ARM GAS  /tmp/ccy7WDFc.s 			page 42


 2338 0f74 15       		.uleb128 0x15
 2339 0f75 62030000 		.4byte	.LASF238
 2340 0f79 0D       		.byte	0xd
 2341 0f7a 2D01     		.2byte	0x12d
 2342 0f7c EA070000 		.4byte	0x7ea
 2343 0f80 08       		.byte	0x8
 2344 0f81 15       		.uleb128 0x15
 2345 0f82 AA070000 		.4byte	.LASF239
 2346 0f86 0D       		.byte	0xd
 2347 0f87 3301     		.2byte	0x133
 2348 0f89 EA070000 		.4byte	0x7ea
 2349 0f8d 0C       		.byte	0xc
 2350 0f8e 15       		.uleb128 0x15
 2351 0f8f CD070000 		.4byte	.LASF240
 2352 0f93 0D       		.byte	0xd
 2353 0f94 3901     		.2byte	0x139
 2354 0f96 D5000000 		.4byte	0xd5
 2355 0f9a 10       		.byte	0x10
 2356 0f9b 15       		.uleb128 0x15
 2357 0f9c AB010000 		.4byte	.LASF241
 2358 0fa0 0D       		.byte	0xd
 2359 0fa1 3F01     		.2byte	0x13f
 2360 0fa3 D5000000 		.4byte	0xd5
 2361 0fa7 12       		.byte	0x12
 2362 0fa8 15       		.uleb128 0x15
 2363 0fa9 76050000 		.4byte	.LASF242
 2364 0fad 0D       		.byte	0xd
 2365 0fae 4401     		.2byte	0x144
 2366 0fb0 DD0F0000 		.4byte	0xfdd
 2367 0fb4 14       		.byte	0x14
 2368 0fb5 15       		.uleb128 0x15
 2369 0fb6 E0070000 		.4byte	.LASF243
 2370 0fba 0D       		.byte	0xd
 2371 0fbb 4901     		.2byte	0x149
 2372 0fbd E30F0000 		.4byte	0xfe3
 2373 0fc1 18       		.byte	0x18
 2374 0fc2 15       		.uleb128 0x15
 2375 0fc3 EB040000 		.4byte	.LASF244
 2376 0fc7 0D       		.byte	0xd
 2377 0fc8 5001     		.2byte	0x150
 2378 0fca D5000000 		.4byte	0xd5
 2379 0fce 1C       		.byte	0x1c
 2380 0fcf 15       		.uleb128 0x15
 2381 0fd0 77070000 		.4byte	.LASF245
 2382 0fd4 0D       		.byte	0xd
 2383 0fd5 5601     		.2byte	0x156
 2384 0fd7 98040000 		.4byte	0x498
 2385 0fdb 20       		.byte	0x20
 2386 0fdc 00       		.byte	0
 2387 0fdd 09       		.uleb128 0x9
 2388 0fde 04       		.byte	0x4
 2389 0fdf 9D0E0000 		.4byte	0xe9d
 2390 0fe3 09       		.uleb128 0x9
 2391 0fe4 04       		.byte	0x4
 2392 0fe5 450F0000 		.4byte	0xf45
 2393 0fe9 19       		.uleb128 0x19
 2394 0fea 8F080000 		.4byte	.LASF246
ARM GAS  /tmp/ccy7WDFc.s 			page 43


 2395 0fee 0D       		.byte	0xd
 2396 0fef 5701     		.2byte	0x157
 2397 0ff1 510F0000 		.4byte	0xf51
 2398 0ff5 1A       		.uleb128 0x1a
 2399 0ff6 10       		.byte	0x10
 2400 0ff7 0D       		.byte	0xd
 2401 0ff8 5C01     		.2byte	0x15c
 2402 0ffa 33100000 		.4byte	0x1033
 2403 0ffe 15       		.uleb128 0x15
 2404 0fff 85060000 		.4byte	.LASF247
 2405 1003 0D       		.byte	0xd
 2406 1004 6101     		.2byte	0x161
 2407 1006 0C080000 		.4byte	0x80c
 2408 100a 00       		.byte	0
 2409 100b 15       		.uleb128 0x15
 2410 100c D70A0000 		.4byte	.LASF248
 2411 1010 0D       		.byte	0xd
 2412 1011 6601     		.2byte	0x166
 2413 1013 4F080000 		.4byte	0x84f
 2414 1017 04       		.byte	0x4
 2415 1018 15       		.uleb128 0x15
 2416 1019 C2020000 		.4byte	.LASF249
 2417 101d 0D       		.byte	0xd
 2418 101e 6C01     		.2byte	0x16c
 2419 1020 2E080000 		.4byte	0x82e
 2420 1024 08       		.byte	0x8
 2421 1025 15       		.uleb128 0x15
 2422 1026 5F0A0000 		.4byte	.LASF250
 2423 102a 0D       		.byte	0xd
 2424 102b 7001     		.2byte	0x170
 2425 102d C7070000 		.4byte	0x7c7
 2426 1031 0C       		.byte	0xc
 2427 1032 00       		.byte	0
 2428 1033 19       		.uleb128 0x19
 2429 1034 48070000 		.4byte	.LASF251
 2430 1038 0D       		.byte	0xd
 2431 1039 7201     		.2byte	0x172
 2432 103b F50F0000 		.4byte	0xff5
 2433 103f 09       		.uleb128 0x9
 2434 1040 04       		.byte	0x4
 2435 1041 45100000 		.4byte	0x1045
 2436 1045 10       		.uleb128 0x10
 2437 1046 33100000 		.4byte	0x1033
 2438 104a 1F       		.uleb128 0x1f
 2439 104b 5A100000 		.4byte	0x105a
 2440 104f 5A100000 		.4byte	0x105a
 2441 1053 20       		.uleb128 0x20
 2442 1054 68030000 		.4byte	0x368
 2443 1058 03       		.byte	0x3
 2444 1059 00       		.byte	0
 2445 105a 09       		.uleb128 0x9
 2446 105b 04       		.byte	0x4
 2447 105c 60100000 		.4byte	0x1060
 2448 1060 10       		.uleb128 0x10
 2449 1061 E90F0000 		.4byte	0xfe9
 2450 1065 1F       		.uleb128 0x1f
 2451 1066 B9020000 		.4byte	0x2b9
ARM GAS  /tmp/ccy7WDFc.s 			page 44


 2452 106a 75100000 		.4byte	0x1075
 2453 106e 20       		.uleb128 0x20
 2454 106f 68030000 		.4byte	0x368
 2455 1073 02       		.byte	0x2
 2456 1074 00       		.byte	0
 2457 1075 1F       		.uleb128 0x1f
 2458 1076 CA000000 		.4byte	0xca
 2459 107a 85100000 		.4byte	0x1085
 2460 107e 20       		.uleb128 0x20
 2461 107f 68030000 		.4byte	0x368
 2462 1083 07       		.byte	0x7
 2463 1084 00       		.byte	0
 2464 1085 09       		.uleb128 0x9
 2465 1086 04       		.byte	0x4
 2466 1087 C60D0000 		.4byte	0xdc6
 2467 108b 09       		.uleb128 0x9
 2468 108c 04       		.byte	0x4
 2469 108d 91100000 		.4byte	0x1091
 2470 1091 10       		.uleb128 0x10
 2471 1092 FE0D0000 		.4byte	0xdfe
 2472 1096 1F       		.uleb128 0x1f
 2473 1097 BB020000 		.4byte	0x2bb
 2474 109b A6100000 		.4byte	0x10a6
 2475 109f 20       		.uleb128 0x20
 2476 10a0 68030000 		.4byte	0x368
 2477 10a4 28       		.byte	0x28
 2478 10a5 00       		.byte	0
 2479 10a6 08       		.uleb128 0x8
 2480 10a7 14       		.byte	0x14
 2481 10a8 0F       		.byte	0xf
 2482 10a9 AA       		.byte	0xaa
 2483 10aa 65110000 		.4byte	0x1165
 2484 10ae 07       		.uleb128 0x7
 2485 10af 613000   		.ascii	"a0\000"
 2486 10b2 0F       		.byte	0xf
 2487 10b3 AB       		.byte	0xab
 2488 10b4 BF000000 		.4byte	0xbf
 2489 10b8 00       		.byte	0
 2490 10b9 07       		.uleb128 0x7
 2491 10ba 613100   		.ascii	"a1\000"
 2492 10bd 0F       		.byte	0xf
 2493 10be AC       		.byte	0xac
 2494 10bf BF000000 		.4byte	0xbf
 2495 10c3 01       		.byte	0x1
 2496 10c4 07       		.uleb128 0x7
 2497 10c5 613200   		.ascii	"a2\000"
 2498 10c8 0F       		.byte	0xf
 2499 10c9 AD       		.byte	0xad
 2500 10ca BF000000 		.4byte	0xbf
 2501 10ce 02       		.byte	0x2
 2502 10cf 07       		.uleb128 0x7
 2503 10d0 613300   		.ascii	"a3\000"
 2504 10d3 0F       		.byte	0xf
 2505 10d4 AE       		.byte	0xae
 2506 10d5 BF000000 		.4byte	0xbf
 2507 10d9 03       		.byte	0x3
 2508 10da 07       		.uleb128 0x7
ARM GAS  /tmp/ccy7WDFc.s 			page 45


 2509 10db 613400   		.ascii	"a4\000"
 2510 10de 0F       		.byte	0xf
 2511 10df AF       		.byte	0xaf
 2512 10e0 BF000000 		.4byte	0xbf
 2513 10e4 04       		.byte	0x4
 2514 10e5 07       		.uleb128 0x7
 2515 10e6 613500   		.ascii	"a5\000"
 2516 10e9 0F       		.byte	0xf
 2517 10ea B0       		.byte	0xb0
 2518 10eb BF000000 		.4byte	0xbf
 2519 10ef 05       		.byte	0x5
 2520 10f0 07       		.uleb128 0x7
 2521 10f1 613600   		.ascii	"a6\000"
 2522 10f4 0F       		.byte	0xf
 2523 10f5 B1       		.byte	0xb1
 2524 10f6 D5000000 		.4byte	0xd5
 2525 10fa 06       		.byte	0x6
 2526 10fb 07       		.uleb128 0x7
 2527 10fc 613700   		.ascii	"a7\000"
 2528 10ff 0F       		.byte	0xf
 2529 1100 B2       		.byte	0xb2
 2530 1101 D5000000 		.4byte	0xd5
 2531 1105 08       		.byte	0x8
 2532 1106 07       		.uleb128 0x7
 2533 1107 613800   		.ascii	"a8\000"
 2534 110a 0F       		.byte	0xf
 2535 110b B3       		.byte	0xb3
 2536 110c D5000000 		.4byte	0xd5
 2537 1110 0A       		.byte	0xa
 2538 1111 07       		.uleb128 0x7
 2539 1112 613900   		.ascii	"a9\000"
 2540 1115 0F       		.byte	0xf
 2541 1116 B4       		.byte	0xb4
 2542 1117 D5000000 		.4byte	0xd5
 2543 111b 0C       		.byte	0xc
 2544 111c 07       		.uleb128 0x7
 2545 111d 61313000 		.ascii	"a10\000"
 2546 1121 0F       		.byte	0xf
 2547 1122 B5       		.byte	0xb5
 2548 1123 BF000000 		.4byte	0xbf
 2549 1127 0E       		.byte	0xe
 2550 1128 07       		.uleb128 0x7
 2551 1129 61313100 		.ascii	"a11\000"
 2552 112d 0F       		.byte	0xf
 2553 112e B6       		.byte	0xb6
 2554 112f BF000000 		.4byte	0xbf
 2555 1133 0F       		.byte	0xf
 2556 1134 07       		.uleb128 0x7
 2557 1135 61313200 		.ascii	"a12\000"
 2558 1139 0F       		.byte	0xf
 2559 113a B7       		.byte	0xb7
 2560 113b BF000000 		.4byte	0xbf
 2561 113f 10       		.byte	0x10
 2562 1140 07       		.uleb128 0x7
 2563 1141 61313300 		.ascii	"a13\000"
 2564 1145 0F       		.byte	0xf
 2565 1146 B8       		.byte	0xb8
ARM GAS  /tmp/ccy7WDFc.s 			page 46


 2566 1147 BF000000 		.4byte	0xbf
 2567 114b 11       		.byte	0x11
 2568 114c 07       		.uleb128 0x7
 2569 114d 61313400 		.ascii	"a14\000"
 2570 1151 0F       		.byte	0xf
 2571 1152 B9       		.byte	0xb9
 2572 1153 BF000000 		.4byte	0xbf
 2573 1157 12       		.byte	0x12
 2574 1158 07       		.uleb128 0x7
 2575 1159 61313500 		.ascii	"a15\000"
 2576 115d 0F       		.byte	0xf
 2577 115e BA       		.byte	0xba
 2578 115f BF000000 		.4byte	0xbf
 2579 1163 13       		.byte	0x13
 2580 1164 00       		.byte	0
 2581 1165 03       		.uleb128 0x3
 2582 1166 60090000 		.4byte	.LASF252
 2583 116a 0F       		.byte	0xf
 2584 116b BF       		.byte	0xbf
 2585 116c A6100000 		.4byte	0x10a6
 2586 1170 08       		.uleb128 0x8
 2587 1171 01       		.byte	0x1
 2588 1172 0F       		.byte	0xf
 2589 1173 C1       		.byte	0xc1
 2590 1174 85110000 		.4byte	0x1185
 2591 1178 06       		.uleb128 0x6
 2592 1179 9B020000 		.4byte	.LASF253
 2593 117d 0F       		.byte	0xf
 2594 117e C3       		.byte	0xc3
 2595 117f CA000000 		.4byte	0xca
 2596 1183 00       		.byte	0
 2597 1184 00       		.byte	0
 2598 1185 03       		.uleb128 0x3
 2599 1186 520A0000 		.4byte	.LASF254
 2600 118a 0F       		.byte	0xf
 2601 118b C4       		.byte	0xc4
 2602 118c 70110000 		.4byte	0x1170
 2603 1190 24       		.uleb128 0x24
 2604 1191 6C0B0000 		.4byte	.LASF255
 2605 1195 01       		.byte	0x1
 2606 1196 26       		.byte	0x26
 2607 1197 00000000 		.4byte	.LFB118
 2608 119b 28000000 		.4byte	.LFE118-.LFB118
 2609 119f 01       		.uleb128 0x1
 2610 11a0 9C       		.byte	0x9c
 2611 11a1 27120000 		.4byte	0x1227
 2612 11a5 25       		.uleb128 0x25
 2613 11a6 06050000 		.4byte	.LASF257
 2614 11aa 01       		.byte	0x1
 2615 11ab 26       		.byte	0x26
 2616 11ac E4070000 		.4byte	0x7e4
 2617 11b0 00000000 		.4byte	.LLST0
 2618 11b4 26       		.uleb128 0x26
 2619 11b5 0E000000 		.4byte	.LBB2
 2620 11b9 06000000 		.4byte	.LBE2-.LBB2
 2621 11bd CF110000 		.4byte	0x11cf
 2622 11c1 27       		.uleb128 0x27
ARM GAS  /tmp/ccy7WDFc.s 			page 47


 2623 11c2 746D7000 		.ascii	"tmp\000"
 2624 11c6 01       		.byte	0x1
 2625 11c7 28       		.byte	0x28
 2626 11c8 EB000000 		.4byte	0xeb
 2627 11cc 01       		.uleb128 0x1
 2628 11cd 53       		.byte	0x53
 2629 11ce 00       		.byte	0
 2630 11cf 26       		.uleb128 0x26
 2631 11d0 1C000000 		.4byte	.LBB3
 2632 11d4 0C000000 		.4byte	.LBE3-.LBB3
 2633 11d8 EA110000 		.4byte	0x11ea
 2634 11dc 27       		.uleb128 0x27
 2635 11dd 746D7000 		.ascii	"tmp\000"
 2636 11e1 01       		.byte	0x1
 2637 11e2 2A       		.byte	0x2a
 2638 11e3 EB000000 		.4byte	0xeb
 2639 11e7 01       		.uleb128 0x1
 2640 11e8 53       		.byte	0x53
 2641 11e9 00       		.byte	0
 2642 11ea 28       		.uleb128 0x28
 2643 11eb 0E000000 		.4byte	.LVL1
 2644 11ef 01140000 		.4byte	0x1401
 2645 11f3 11120000 		.4byte	0x1211
 2646 11f7 29       		.uleb128 0x29
 2647 11f8 01       		.uleb128 0x1
 2648 11f9 50       		.byte	0x50
 2649 11fa 02       		.uleb128 0x2
 2650 11fb 74       		.byte	0x74
 2651 11fc 00       		.sleb128 0
 2652 11fd 29       		.uleb128 0x29
 2653 11fe 01       		.uleb128 0x1
 2654 11ff 51       		.byte	0x51
 2655 1200 01       		.uleb128 0x1
 2656 1201 32       		.byte	0x32
 2657 1202 29       		.uleb128 0x29
 2658 1203 01       		.uleb128 0x1
 2659 1204 52       		.byte	0x52
 2660 1205 05       		.uleb128 0x5
 2661 1206 03       		.byte	0x3
 2662 1207 00000000 		.4byte	.LANCHOR0
 2663 120b 29       		.uleb128 0x29
 2664 120c 01       		.uleb128 0x1
 2665 120d 53       		.byte	0x53
 2666 120e 01       		.uleb128 0x1
 2667 120f 31       		.byte	0x31
 2668 1210 00       		.byte	0
 2669 1211 2A       		.uleb128 0x2a
 2670 1212 1C000000 		.4byte	.LVL2
 2671 1216 0D140000 		.4byte	0x140d
 2672 121a 29       		.uleb128 0x29
 2673 121b 01       		.uleb128 0x1
 2674 121c 50       		.byte	0x50
 2675 121d 02       		.uleb128 0x2
 2676 121e 74       		.byte	0x74
 2677 121f 00       		.sleb128 0
 2678 1220 29       		.uleb128 0x29
 2679 1221 01       		.uleb128 0x1
ARM GAS  /tmp/ccy7WDFc.s 			page 48


 2680 1222 51       		.byte	0x51
 2681 1223 01       		.uleb128 0x1
 2682 1224 32       		.byte	0x32
 2683 1225 00       		.byte	0
 2684 1226 00       		.byte	0
 2685 1227 24       		.uleb128 0x24
 2686 1228 E7060000 		.4byte	.LASF256
 2687 122c 01       		.byte	0x1
 2688 122d 2D       		.byte	0x2d
 2689 122e 00000000 		.4byte	.LFB119
 2690 1232 40000000 		.4byte	.LFE119-.LFB119
 2691 1236 01       		.uleb128 0x1
 2692 1237 9C       		.byte	0x9c
 2693 1238 DE120000 		.4byte	0x12de
 2694 123c 25       		.uleb128 0x25
 2695 123d 06050000 		.4byte	.LASF257
 2696 1241 01       		.byte	0x1
 2697 1242 2D       		.byte	0x2d
 2698 1243 E4070000 		.4byte	0x7e4
 2699 1247 2C000000 		.4byte	.LLST1
 2700 124b 26       		.uleb128 0x26
 2701 124c 0E000000 		.4byte	.LBB4
 2702 1250 06000000 		.4byte	.LBE4-.LBB4
 2703 1254 66120000 		.4byte	0x1266
 2704 1258 27       		.uleb128 0x27
 2705 1259 746D7000 		.ascii	"tmp\000"
 2706 125d 01       		.byte	0x1
 2707 125e 2F       		.byte	0x2f
 2708 125f EB000000 		.4byte	0xeb
 2709 1263 01       		.uleb128 0x1
 2710 1264 53       		.byte	0x53
 2711 1265 00       		.byte	0
 2712 1266 26       		.uleb128 0x26
 2713 1267 30000000 		.4byte	.LBB5
 2714 126b 10000000 		.4byte	.LBE5-.LBB5
 2715 126f 81120000 		.4byte	0x1281
 2716 1273 27       		.uleb128 0x27
 2717 1274 746D7000 		.ascii	"tmp\000"
 2718 1278 01       		.byte	0x1
 2719 1279 33       		.byte	0x33
 2720 127a EB000000 		.4byte	0xeb
 2721 127e 01       		.uleb128 0x1
 2722 127f 53       		.byte	0x53
 2723 1280 00       		.byte	0
 2724 1281 28       		.uleb128 0x28
 2725 1282 0E000000 		.4byte	.LVL5
 2726 1286 19140000 		.4byte	0x1419
 2727 128a A8120000 		.4byte	0x12a8
 2728 128e 29       		.uleb128 0x29
 2729 128f 01       		.uleb128 0x1
 2730 1290 50       		.byte	0x50
 2731 1291 02       		.uleb128 0x2
 2732 1292 75       		.byte	0x75
 2733 1293 00       		.sleb128 0
 2734 1294 29       		.uleb128 0x29
 2735 1295 01       		.uleb128 0x1
 2736 1296 51       		.byte	0x51
ARM GAS  /tmp/ccy7WDFc.s 			page 49


 2737 1297 01       		.uleb128 0x1
 2738 1298 31       		.byte	0x31
 2739 1299 29       		.uleb128 0x29
 2740 129a 01       		.uleb128 0x1
 2741 129b 52       		.byte	0x52
 2742 129c 05       		.uleb128 0x5
 2743 129d 03       		.byte	0x3
 2744 129e 00000000 		.4byte	.LANCHOR1
 2745 12a2 29       		.uleb128 0x29
 2746 12a3 01       		.uleb128 0x1
 2747 12a4 53       		.byte	0x53
 2748 12a5 01       		.uleb128 0x1
 2749 12a6 44       		.byte	0x44
 2750 12a7 00       		.byte	0
 2751 12a8 28       		.uleb128 0x28
 2752 12a9 1E000000 		.4byte	.LVL6
 2753 12ad 25140000 		.4byte	0x1425
 2754 12b1 C1120000 		.4byte	0x12c1
 2755 12b5 29       		.uleb128 0x29
 2756 12b6 01       		.uleb128 0x1
 2757 12b7 50       		.byte	0x50
 2758 12b8 02       		.uleb128 0x2
 2759 12b9 75       		.byte	0x75
 2760 12ba 00       		.sleb128 0
 2761 12bb 29       		.uleb128 0x29
 2762 12bc 01       		.uleb128 0x1
 2763 12bd 51       		.byte	0x51
 2764 12be 01       		.uleb128 0x1
 2765 12bf 31       		.byte	0x31
 2766 12c0 00       		.byte	0
 2767 12c1 2A       		.uleb128 0x2a
 2768 12c2 2A000000 		.4byte	.LVL7
 2769 12c6 31140000 		.4byte	0x1431
 2770 12ca 29       		.uleb128 0x29
 2771 12cb 01       		.uleb128 0x1
 2772 12cc 50       		.byte	0x50
 2773 12cd 02       		.uleb128 0x2
 2774 12ce 74       		.byte	0x74
 2775 12cf 00       		.sleb128 0
 2776 12d0 29       		.uleb128 0x29
 2777 12d1 01       		.uleb128 0x1
 2778 12d2 51       		.byte	0x51
 2779 12d3 03       		.uleb128 0x3
 2780 12d4 0A       		.byte	0xa
 2781 12d5 0040     		.2byte	0x4000
 2782 12d7 29       		.uleb128 0x29
 2783 12d8 01       		.uleb128 0x1
 2784 12d9 52       		.byte	0x52
 2785 12da 01       		.uleb128 0x1
 2786 12db 31       		.byte	0x31
 2787 12dc 00       		.byte	0
 2788 12dd 00       		.byte	0
 2789 12de 2B       		.uleb128 0x2b
 2790 12df D0010000 		.4byte	.LASF272
 2791 12e3 01       		.byte	0x1
 2792 12e4 38       		.byte	0x38
 2793 12e5 01010000 		.4byte	0x101
ARM GAS  /tmp/ccy7WDFc.s 			page 50


 2794 12e9 00000000 		.4byte	.LFB120
 2795 12ed B8000000 		.4byte	.LFE120-.LFB120
 2796 12f1 01       		.uleb128 0x1
 2797 12f2 9C       		.byte	0x9c
 2798 12f3 24130000 		.4byte	0x1324
 2799 12f7 25       		.uleb128 0x25
 2800 12f8 06050000 		.4byte	.LASF257
 2801 12fc 01       		.byte	0x1
 2802 12fd 38       		.byte	0x38
 2803 12fe E4070000 		.4byte	0x7e4
 2804 1302 58000000 		.4byte	.LLST2
 2805 1306 2C       		.uleb128 0x2c
 2806 1307 647000   		.ascii	"dp\000"
 2807 130a 01       		.byte	0x1
 2808 130b 3A       		.byte	0x3a
 2809 130c 7F080000 		.4byte	0x87f
 2810 1310 DF000000 		.4byte	.LLST3
 2811 1314 2D       		.uleb128 0x2d
 2812 1315 78000000 		.4byte	.LVL12
 2813 1319 02       		.uleb128 0x2
 2814 131a 76       		.byte	0x76
 2815 131b 00       		.sleb128 0
 2816 131c 29       		.uleb128 0x29
 2817 131d 01       		.uleb128 0x1
 2818 131e 50       		.byte	0x50
 2819 131f 02       		.uleb128 0x2
 2820 1320 75       		.byte	0x75
 2821 1321 00       		.sleb128 0
 2822 1322 00       		.byte	0
 2823 1323 00       		.byte	0
 2824 1324 24       		.uleb128 0x24
 2825 1325 E3000000 		.4byte	.LASF258
 2826 1329 01       		.byte	0x1
 2827 132a 6F       		.byte	0x6f
 2828 132b 00000000 		.4byte	.LFB121
 2829 132f 1C000000 		.4byte	.LFE121-.LFB121
 2830 1333 01       		.uleb128 0x1
 2831 1334 9C       		.byte	0x9c
 2832 1335 73130000 		.4byte	0x1373
 2833 1339 25       		.uleb128 0x25
 2834 133a 06050000 		.4byte	.LASF257
 2835 133e 01       		.byte	0x1
 2836 133f 6F       		.byte	0x6f
 2837 1340 E4070000 		.4byte	0x7e4
 2838 1344 F2000000 		.4byte	.LLST4
 2839 1348 2E       		.uleb128 0x2e
 2840 1349 657000   		.ascii	"ep\000"
 2841 134c 01       		.byte	0x1
 2842 134d 6F       		.byte	0x6f
 2843 134e D4060000 		.4byte	0x6d4
 2844 1352 13010000 		.4byte	.LLST5
 2845 1356 2A       		.uleb128 0x2a
 2846 1357 10000000 		.4byte	.LVL24
 2847 135b 31140000 		.4byte	0x1431
 2848 135f 29       		.uleb128 0x29
 2849 1360 01       		.uleb128 0x1
 2850 1361 50       		.byte	0x50
ARM GAS  /tmp/ccy7WDFc.s 			page 51


 2851 1362 02       		.uleb128 0x2
 2852 1363 74       		.byte	0x74
 2853 1364 00       		.sleb128 0
 2854 1365 29       		.uleb128 0x29
 2855 1366 01       		.uleb128 0x1
 2856 1367 51       		.byte	0x51
 2857 1368 03       		.uleb128 0x3
 2858 1369 0A       		.byte	0xa
 2859 136a 0040     		.2byte	0x4000
 2860 136c 29       		.uleb128 0x29
 2861 136d 01       		.uleb128 0x1
 2862 136e 52       		.byte	0x52
 2863 136f 01       		.uleb128 0x1
 2864 1370 31       		.byte	0x31
 2865 1371 00       		.byte	0
 2866 1372 00       		.byte	0
 2867 1373 24       		.uleb128 0x24
 2868 1374 C8000000 		.4byte	.LASF259
 2869 1378 01       		.byte	0x1
 2870 1379 79       		.byte	0x79
 2871 137a 00000000 		.4byte	.LFB122
 2872 137e 1C000000 		.4byte	.LFE122-.LFB122
 2873 1382 01       		.uleb128 0x1
 2874 1383 9C       		.byte	0x9c
 2875 1384 C2130000 		.4byte	0x13c2
 2876 1388 25       		.uleb128 0x25
 2877 1389 06050000 		.4byte	.LASF257
 2878 138d 01       		.byte	0x1
 2879 138e 79       		.byte	0x79
 2880 138f E4070000 		.4byte	0x7e4
 2881 1393 34010000 		.4byte	.LLST6
 2882 1397 2E       		.uleb128 0x2e
 2883 1398 657000   		.ascii	"ep\000"
 2884 139b 01       		.byte	0x1
 2885 139c 79       		.byte	0x79
 2886 139d D4060000 		.4byte	0x6d4
 2887 13a1 55010000 		.4byte	.LLST7
 2888 13a5 2A       		.uleb128 0x2a
 2889 13a6 10000000 		.4byte	.LVL28
 2890 13aa 31140000 		.4byte	0x1431
 2891 13ae 29       		.uleb128 0x29
 2892 13af 01       		.uleb128 0x1
 2893 13b0 50       		.byte	0x50
 2894 13b1 02       		.uleb128 0x2
 2895 13b2 74       		.byte	0x74
 2896 13b3 00       		.sleb128 0
 2897 13b4 29       		.uleb128 0x29
 2898 13b5 01       		.uleb128 0x1
 2899 13b6 51       		.byte	0x51
 2900 13b7 03       		.uleb128 0x3
 2901 13b8 0A       		.byte	0xa
 2902 13b9 0080     		.2byte	0x8000
 2903 13bb 29       		.uleb128 0x29
 2904 13bc 01       		.uleb128 0x1
 2905 13bd 52       		.byte	0x52
 2906 13be 01       		.uleb128 0x1
 2907 13bf 31       		.byte	0x31
ARM GAS  /tmp/ccy7WDFc.s 			page 52


 2908 13c0 00       		.byte	0
 2909 13c1 00       		.byte	0
 2910 13c2 2F       		.uleb128 0x2f
 2911 13c3 F4060000 		.4byte	.LASF260
 2912 13c7 10       		.byte	0x10
 2913 13c8 9806     		.2byte	0x698
 2914 13ca BF040000 		.4byte	0x4bf
 2915 13ce 30       		.uleb128 0x30
 2916 13cf F9040000 		.4byte	.LASF261
 2917 13d3 01       		.byte	0x1
 2918 13d4 22       		.byte	0x22
 2919 13d5 CA000000 		.4byte	0xca
 2920 13d9 05       		.uleb128 0x5
 2921 13da 03       		.byte	0x3
 2922 13db 00000000 		.4byte	usbInitState
 2923 13df 30       		.uleb128 0x30
 2924 13e0 19020000 		.4byte	.LASF262
 2925 13e4 01       		.byte	0x1
 2926 13e5 1E       		.byte	0x1e
 2927 13e6 65110000 		.4byte	0x1165
 2928 13ea 05       		.uleb128 0x5
 2929 13eb 03       		.byte	0x3
 2930 13ec 00000000 		.4byte	hid_in_data
 2931 13f0 30       		.uleb128 0x30
 2932 13f1 9E090000 		.4byte	.LASF263
 2933 13f5 01       		.byte	0x1
 2934 13f6 1F       		.byte	0x1f
 2935 13f7 85110000 		.4byte	0x1185
 2936 13fb 05       		.uleb128 0x5
 2937 13fc 03       		.byte	0x3
 2938 13fd 00000000 		.4byte	hid_out_data
 2939 1401 31       		.uleb128 0x31
 2940 1402 6C090000 		.4byte	.LASF264
 2941 1406 6C090000 		.4byte	.LASF264
 2942 140a 0C       		.byte	0xc
 2943 140b 3102     		.2byte	0x231
 2944 140d 31       		.uleb128 0x31
 2945 140e 72000000 		.4byte	.LASF265
 2946 1412 72000000 		.4byte	.LASF265
 2947 1416 0C       		.byte	0xc
 2948 1417 3902     		.2byte	0x239
 2949 1419 31       		.uleb128 0x31
 2950 141a B8040000 		.4byte	.LASF266
 2951 141e B8040000 		.4byte	.LASF266
 2952 1422 0C       		.byte	0xc
 2953 1423 3302     		.2byte	0x233
 2954 1425 31       		.uleb128 0x31
 2955 1426 1D000000 		.4byte	.LASF267
 2956 142a 1D000000 		.4byte	.LASF267
 2957 142e 0C       		.byte	0xc
 2958 142f 3A02     		.2byte	0x23a
 2959 1431 31       		.uleb128 0x31
 2960 1432 F6000000 		.4byte	.LASF268
 2961 1436 F6000000 		.4byte	.LASF268
 2962 143a 0B       		.byte	0xb
 2963 143b C201     		.2byte	0x1c2
 2964 143d 00       		.byte	0
ARM GAS  /tmp/ccy7WDFc.s 			page 53


 2965              		.section	.debug_abbrev,"",%progbits
 2966              	.Ldebug_abbrev0:
 2967 0000 01       		.uleb128 0x1
 2968 0001 11       		.uleb128 0x11
 2969 0002 01       		.byte	0x1
 2970 0003 25       		.uleb128 0x25
 2971 0004 0E       		.uleb128 0xe
 2972 0005 13       		.uleb128 0x13
 2973 0006 0B       		.uleb128 0xb
 2974 0007 03       		.uleb128 0x3
 2975 0008 0E       		.uleb128 0xe
 2976 0009 1B       		.uleb128 0x1b
 2977 000a 0E       		.uleb128 0xe
 2978 000b 55       		.uleb128 0x55
 2979 000c 17       		.uleb128 0x17
 2980 000d 11       		.uleb128 0x11
 2981 000e 01       		.uleb128 0x1
 2982 000f 10       		.uleb128 0x10
 2983 0010 17       		.uleb128 0x17
 2984 0011 00       		.byte	0
 2985 0012 00       		.byte	0
 2986 0013 02       		.uleb128 0x2
 2987 0014 24       		.uleb128 0x24
 2988 0015 00       		.byte	0
 2989 0016 0B       		.uleb128 0xb
 2990 0017 0B       		.uleb128 0xb
 2991 0018 3E       		.uleb128 0x3e
 2992 0019 0B       		.uleb128 0xb
 2993 001a 03       		.uleb128 0x3
 2994 001b 08       		.uleb128 0x8
 2995 001c 00       		.byte	0
 2996 001d 00       		.byte	0
 2997 001e 03       		.uleb128 0x3
 2998 001f 16       		.uleb128 0x16
 2999 0020 00       		.byte	0
 3000 0021 03       		.uleb128 0x3
 3001 0022 0E       		.uleb128 0xe
 3002 0023 3A       		.uleb128 0x3a
 3003 0024 0B       		.uleb128 0xb
 3004 0025 3B       		.uleb128 0x3b
 3005 0026 0B       		.uleb128 0xb
 3006 0027 49       		.uleb128 0x49
 3007 0028 13       		.uleb128 0x13
 3008 0029 00       		.byte	0
 3009 002a 00       		.byte	0
 3010 002b 04       		.uleb128 0x4
 3011 002c 24       		.uleb128 0x24
 3012 002d 00       		.byte	0
 3013 002e 0B       		.uleb128 0xb
 3014 002f 0B       		.uleb128 0xb
 3015 0030 3E       		.uleb128 0x3e
 3016 0031 0B       		.uleb128 0xb
 3017 0032 03       		.uleb128 0x3
 3018 0033 0E       		.uleb128 0xe
 3019 0034 00       		.byte	0
 3020 0035 00       		.byte	0
 3021 0036 05       		.uleb128 0x5
ARM GAS  /tmp/ccy7WDFc.s 			page 54


 3022 0037 13       		.uleb128 0x13
 3023 0038 01       		.byte	0x1
 3024 0039 03       		.uleb128 0x3
 3025 003a 0E       		.uleb128 0xe
 3026 003b 0B       		.uleb128 0xb
 3027 003c 0B       		.uleb128 0xb
 3028 003d 3A       		.uleb128 0x3a
 3029 003e 0B       		.uleb128 0xb
 3030 003f 3B       		.uleb128 0x3b
 3031 0040 0B       		.uleb128 0xb
 3032 0041 01       		.uleb128 0x1
 3033 0042 13       		.uleb128 0x13
 3034 0043 00       		.byte	0
 3035 0044 00       		.byte	0
 3036 0045 06       		.uleb128 0x6
 3037 0046 0D       		.uleb128 0xd
 3038 0047 00       		.byte	0
 3039 0048 03       		.uleb128 0x3
 3040 0049 0E       		.uleb128 0xe
 3041 004a 3A       		.uleb128 0x3a
 3042 004b 0B       		.uleb128 0xb
 3043 004c 3B       		.uleb128 0x3b
 3044 004d 0B       		.uleb128 0xb
 3045 004e 49       		.uleb128 0x49
 3046 004f 13       		.uleb128 0x13
 3047 0050 38       		.uleb128 0x38
 3048 0051 0B       		.uleb128 0xb
 3049 0052 00       		.byte	0
 3050 0053 00       		.byte	0
 3051 0054 07       		.uleb128 0x7
 3052 0055 0D       		.uleb128 0xd
 3053 0056 00       		.byte	0
 3054 0057 03       		.uleb128 0x3
 3055 0058 08       		.uleb128 0x8
 3056 0059 3A       		.uleb128 0x3a
 3057 005a 0B       		.uleb128 0xb
 3058 005b 3B       		.uleb128 0x3b
 3059 005c 0B       		.uleb128 0xb
 3060 005d 49       		.uleb128 0x49
 3061 005e 13       		.uleb128 0x13
 3062 005f 38       		.uleb128 0x38
 3063 0060 0B       		.uleb128 0xb
 3064 0061 00       		.byte	0
 3065 0062 00       		.byte	0
 3066 0063 08       		.uleb128 0x8
 3067 0064 13       		.uleb128 0x13
 3068 0065 01       		.byte	0x1
 3069 0066 0B       		.uleb128 0xb
 3070 0067 0B       		.uleb128 0xb
 3071 0068 3A       		.uleb128 0x3a
 3072 0069 0B       		.uleb128 0xb
 3073 006a 3B       		.uleb128 0x3b
 3074 006b 0B       		.uleb128 0xb
 3075 006c 01       		.uleb128 0x1
 3076 006d 13       		.uleb128 0x13
 3077 006e 00       		.byte	0
 3078 006f 00       		.byte	0
ARM GAS  /tmp/ccy7WDFc.s 			page 55


 3079 0070 09       		.uleb128 0x9
 3080 0071 0F       		.uleb128 0xf
 3081 0072 00       		.byte	0
 3082 0073 0B       		.uleb128 0xb
 3083 0074 0B       		.uleb128 0xb
 3084 0075 49       		.uleb128 0x49
 3085 0076 13       		.uleb128 0x13
 3086 0077 00       		.byte	0
 3087 0078 00       		.byte	0
 3088 0079 0A       		.uleb128 0xa
 3089 007a 0F       		.uleb128 0xf
 3090 007b 00       		.byte	0
 3091 007c 0B       		.uleb128 0xb
 3092 007d 0B       		.uleb128 0xb
 3093 007e 00       		.byte	0
 3094 007f 00       		.byte	0
 3095 0080 0B       		.uleb128 0xb
 3096 0081 13       		.uleb128 0x13
 3097 0082 01       		.byte	0x1
 3098 0083 03       		.uleb128 0x3
 3099 0084 0E       		.uleb128 0xe
 3100 0085 0B       		.uleb128 0xb
 3101 0086 0B       		.uleb128 0xb
 3102 0087 3A       		.uleb128 0x3a
 3103 0088 0B       		.uleb128 0xb
 3104 0089 3B       		.uleb128 0x3b
 3105 008a 05       		.uleb128 0x5
 3106 008b 01       		.uleb128 0x1
 3107 008c 13       		.uleb128 0x13
 3108 008d 00       		.byte	0
 3109 008e 00       		.byte	0
 3110 008f 0C       		.uleb128 0xc
 3111 0090 0D       		.uleb128 0xd
 3112 0091 00       		.byte	0
 3113 0092 03       		.uleb128 0x3
 3114 0093 08       		.uleb128 0x8
 3115 0094 3A       		.uleb128 0x3a
 3116 0095 0B       		.uleb128 0xb
 3117 0096 3B       		.uleb128 0x3b
 3118 0097 05       		.uleb128 0x5
 3119 0098 49       		.uleb128 0x49
 3120 0099 13       		.uleb128 0x13
 3121 009a 38       		.uleb128 0x38
 3122 009b 0B       		.uleb128 0xb
 3123 009c 00       		.byte	0
 3124 009d 00       		.byte	0
 3125 009e 0D       		.uleb128 0xd
 3126 009f 35       		.uleb128 0x35
 3127 00a0 00       		.byte	0
 3128 00a1 49       		.uleb128 0x49
 3129 00a2 13       		.uleb128 0x13
 3130 00a3 00       		.byte	0
 3131 00a4 00       		.byte	0
 3132 00a5 0E       		.uleb128 0xe
 3133 00a6 17       		.uleb128 0x17
 3134 00a7 01       		.byte	0x1
 3135 00a8 0B       		.uleb128 0xb
ARM GAS  /tmp/ccy7WDFc.s 			page 56


 3136 00a9 0B       		.uleb128 0xb
 3137 00aa 3A       		.uleb128 0x3a
 3138 00ab 0B       		.uleb128 0xb
 3139 00ac 3B       		.uleb128 0x3b
 3140 00ad 0B       		.uleb128 0xb
 3141 00ae 01       		.uleb128 0x1
 3142 00af 13       		.uleb128 0x13
 3143 00b0 00       		.byte	0
 3144 00b1 00       		.byte	0
 3145 00b2 0F       		.uleb128 0xf
 3146 00b3 0D       		.uleb128 0xd
 3147 00b4 00       		.byte	0
 3148 00b5 03       		.uleb128 0x3
 3149 00b6 0E       		.uleb128 0xe
 3150 00b7 3A       		.uleb128 0x3a
 3151 00b8 0B       		.uleb128 0xb
 3152 00b9 3B       		.uleb128 0x3b
 3153 00ba 0B       		.uleb128 0xb
 3154 00bb 49       		.uleb128 0x49
 3155 00bc 13       		.uleb128 0x13
 3156 00bd 00       		.byte	0
 3157 00be 00       		.byte	0
 3158 00bf 10       		.uleb128 0x10
 3159 00c0 26       		.uleb128 0x26
 3160 00c1 00       		.byte	0
 3161 00c2 49       		.uleb128 0x49
 3162 00c3 13       		.uleb128 0x13
 3163 00c4 00       		.byte	0
 3164 00c5 00       		.byte	0
 3165 00c6 11       		.uleb128 0x11
 3166 00c7 15       		.uleb128 0x15
 3167 00c8 01       		.byte	0x1
 3168 00c9 27       		.uleb128 0x27
 3169 00ca 19       		.uleb128 0x19
 3170 00cb 01       		.uleb128 0x1
 3171 00cc 13       		.uleb128 0x13
 3172 00cd 00       		.byte	0
 3173 00ce 00       		.byte	0
 3174 00cf 12       		.uleb128 0x12
 3175 00d0 05       		.uleb128 0x5
 3176 00d1 00       		.byte	0
 3177 00d2 49       		.uleb128 0x49
 3178 00d3 13       		.uleb128 0x13
 3179 00d4 00       		.byte	0
 3180 00d5 00       		.byte	0
 3181 00d6 13       		.uleb128 0x13
 3182 00d7 0D       		.uleb128 0xd
 3183 00d8 00       		.byte	0
 3184 00d9 03       		.uleb128 0x3
 3185 00da 08       		.uleb128 0x8
 3186 00db 3A       		.uleb128 0x3a
 3187 00dc 0B       		.uleb128 0xb
 3188 00dd 3B       		.uleb128 0x3b
 3189 00de 0B       		.uleb128 0xb
 3190 00df 49       		.uleb128 0x49
 3191 00e0 13       		.uleb128 0x13
 3192 00e1 00       		.byte	0
ARM GAS  /tmp/ccy7WDFc.s 			page 57


 3193 00e2 00       		.byte	0
 3194 00e3 14       		.uleb128 0x14
 3195 00e4 13       		.uleb128 0x13
 3196 00e5 01       		.byte	0x1
 3197 00e6 03       		.uleb128 0x3
 3198 00e7 0E       		.uleb128 0xe
 3199 00e8 0B       		.uleb128 0xb
 3200 00e9 05       		.uleb128 0x5
 3201 00ea 3A       		.uleb128 0x3a
 3202 00eb 0B       		.uleb128 0xb
 3203 00ec 3B       		.uleb128 0x3b
 3204 00ed 05       		.uleb128 0x5
 3205 00ee 01       		.uleb128 0x1
 3206 00ef 13       		.uleb128 0x13
 3207 00f0 00       		.byte	0
 3208 00f1 00       		.byte	0
 3209 00f2 15       		.uleb128 0x15
 3210 00f3 0D       		.uleb128 0xd
 3211 00f4 00       		.byte	0
 3212 00f5 03       		.uleb128 0x3
 3213 00f6 0E       		.uleb128 0xe
 3214 00f7 3A       		.uleb128 0x3a
 3215 00f8 0B       		.uleb128 0xb
 3216 00f9 3B       		.uleb128 0x3b
 3217 00fa 05       		.uleb128 0x5
 3218 00fb 49       		.uleb128 0x49
 3219 00fc 13       		.uleb128 0x13
 3220 00fd 38       		.uleb128 0x38
 3221 00fe 0B       		.uleb128 0xb
 3222 00ff 00       		.byte	0
 3223 0100 00       		.byte	0
 3224 0101 16       		.uleb128 0x16
 3225 0102 04       		.uleb128 0x4
 3226 0103 01       		.byte	0x1
 3227 0104 0B       		.uleb128 0xb
 3228 0105 0B       		.uleb128 0xb
 3229 0106 49       		.uleb128 0x49
 3230 0107 13       		.uleb128 0x13
 3231 0108 3A       		.uleb128 0x3a
 3232 0109 0B       		.uleb128 0xb
 3233 010a 3B       		.uleb128 0x3b
 3234 010b 0B       		.uleb128 0xb
 3235 010c 01       		.uleb128 0x1
 3236 010d 13       		.uleb128 0x13
 3237 010e 00       		.byte	0
 3238 010f 00       		.byte	0
 3239 0110 17       		.uleb128 0x17
 3240 0111 28       		.uleb128 0x28
 3241 0112 00       		.byte	0
 3242 0113 03       		.uleb128 0x3
 3243 0114 0E       		.uleb128 0xe
 3244 0115 1C       		.uleb128 0x1c
 3245 0116 0B       		.uleb128 0xb
 3246 0117 00       		.byte	0
 3247 0118 00       		.byte	0
 3248 0119 18       		.uleb128 0x18
 3249 011a 04       		.uleb128 0x4
ARM GAS  /tmp/ccy7WDFc.s 			page 58


 3250 011b 01       		.byte	0x1
 3251 011c 0B       		.uleb128 0xb
 3252 011d 0B       		.uleb128 0xb
 3253 011e 49       		.uleb128 0x49
 3254 011f 13       		.uleb128 0x13
 3255 0120 3A       		.uleb128 0x3a
 3256 0121 0B       		.uleb128 0xb
 3257 0122 3B       		.uleb128 0x3b
 3258 0123 05       		.uleb128 0x5
 3259 0124 01       		.uleb128 0x1
 3260 0125 13       		.uleb128 0x13
 3261 0126 00       		.byte	0
 3262 0127 00       		.byte	0
 3263 0128 19       		.uleb128 0x19
 3264 0129 16       		.uleb128 0x16
 3265 012a 00       		.byte	0
 3266 012b 03       		.uleb128 0x3
 3267 012c 0E       		.uleb128 0xe
 3268 012d 3A       		.uleb128 0x3a
 3269 012e 0B       		.uleb128 0xb
 3270 012f 3B       		.uleb128 0x3b
 3271 0130 05       		.uleb128 0x5
 3272 0131 49       		.uleb128 0x49
 3273 0132 13       		.uleb128 0x13
 3274 0133 00       		.byte	0
 3275 0134 00       		.byte	0
 3276 0135 1A       		.uleb128 0x1a
 3277 0136 13       		.uleb128 0x13
 3278 0137 01       		.byte	0x1
 3279 0138 0B       		.uleb128 0xb
 3280 0139 0B       		.uleb128 0xb
 3281 013a 3A       		.uleb128 0x3a
 3282 013b 0B       		.uleb128 0xb
 3283 013c 3B       		.uleb128 0x3b
 3284 013d 05       		.uleb128 0x5
 3285 013e 01       		.uleb128 0x1
 3286 013f 13       		.uleb128 0x13
 3287 0140 00       		.byte	0
 3288 0141 00       		.byte	0
 3289 0142 1B       		.uleb128 0x1b
 3290 0143 15       		.uleb128 0x15
 3291 0144 01       		.byte	0x1
 3292 0145 27       		.uleb128 0x27
 3293 0146 19       		.uleb128 0x19
 3294 0147 49       		.uleb128 0x49
 3295 0148 13       		.uleb128 0x13
 3296 0149 01       		.uleb128 0x1
 3297 014a 13       		.uleb128 0x13
 3298 014b 00       		.byte	0
 3299 014c 00       		.byte	0
 3300 014d 1C       		.uleb128 0x1c
 3301 014e 13       		.uleb128 0x13
 3302 014f 01       		.byte	0x1
 3303 0150 0B       		.uleb128 0xb
 3304 0151 06       		.uleb128 0x6
 3305 0152 3A       		.uleb128 0x3a
 3306 0153 0B       		.uleb128 0xb
ARM GAS  /tmp/ccy7WDFc.s 			page 59


 3307 0154 3B       		.uleb128 0x3b
 3308 0155 0B       		.uleb128 0xb
 3309 0156 01       		.uleb128 0x1
 3310 0157 13       		.uleb128 0x13
 3311 0158 00       		.byte	0
 3312 0159 00       		.byte	0
 3313 015a 1D       		.uleb128 0x1d
 3314 015b 0D       		.uleb128 0xd
 3315 015c 00       		.byte	0
 3316 015d 03       		.uleb128 0x3
 3317 015e 0E       		.uleb128 0xe
 3318 015f 3A       		.uleb128 0x3a
 3319 0160 0B       		.uleb128 0xb
 3320 0161 3B       		.uleb128 0x3b
 3321 0162 0B       		.uleb128 0xb
 3322 0163 49       		.uleb128 0x49
 3323 0164 13       		.uleb128 0x13
 3324 0165 38       		.uleb128 0x38
 3325 0166 05       		.uleb128 0x5
 3326 0167 00       		.byte	0
 3327 0168 00       		.byte	0
 3328 0169 1E       		.uleb128 0x1e
 3329 016a 0D       		.uleb128 0xd
 3330 016b 00       		.byte	0
 3331 016c 03       		.uleb128 0x3
 3332 016d 08       		.uleb128 0x8
 3333 016e 3A       		.uleb128 0x3a
 3334 016f 0B       		.uleb128 0xb
 3335 0170 3B       		.uleb128 0x3b
 3336 0171 0B       		.uleb128 0xb
 3337 0172 49       		.uleb128 0x49
 3338 0173 13       		.uleb128 0x13
 3339 0174 38       		.uleb128 0x38
 3340 0175 05       		.uleb128 0x5
 3341 0176 00       		.byte	0
 3342 0177 00       		.byte	0
 3343 0178 1F       		.uleb128 0x1f
 3344 0179 01       		.uleb128 0x1
 3345 017a 01       		.byte	0x1
 3346 017b 49       		.uleb128 0x49
 3347 017c 13       		.uleb128 0x13
 3348 017d 01       		.uleb128 0x1
 3349 017e 13       		.uleb128 0x13
 3350 017f 00       		.byte	0
 3351 0180 00       		.byte	0
 3352 0181 20       		.uleb128 0x20
 3353 0182 21       		.uleb128 0x21
 3354 0183 00       		.byte	0
 3355 0184 49       		.uleb128 0x49
 3356 0185 13       		.uleb128 0x13
 3357 0186 2F       		.uleb128 0x2f
 3358 0187 0B       		.uleb128 0xb
 3359 0188 00       		.byte	0
 3360 0189 00       		.byte	0
 3361 018a 21       		.uleb128 0x21
 3362 018b 21       		.uleb128 0x21
 3363 018c 00       		.byte	0
ARM GAS  /tmp/ccy7WDFc.s 			page 60


 3364 018d 49       		.uleb128 0x49
 3365 018e 13       		.uleb128 0x13
 3366 018f 2F       		.uleb128 0x2f
 3367 0190 05       		.uleb128 0x5
 3368 0191 00       		.byte	0
 3369 0192 00       		.byte	0
 3370 0193 22       		.uleb128 0x22
 3371 0194 17       		.uleb128 0x17
 3372 0195 01       		.byte	0x1
 3373 0196 0B       		.uleb128 0xb
 3374 0197 0B       		.uleb128 0xb
 3375 0198 3A       		.uleb128 0x3a
 3376 0199 0B       		.uleb128 0xb
 3377 019a 3B       		.uleb128 0x3b
 3378 019b 05       		.uleb128 0x5
 3379 019c 01       		.uleb128 0x1
 3380 019d 13       		.uleb128 0x13
 3381 019e 00       		.byte	0
 3382 019f 00       		.byte	0
 3383 01a0 23       		.uleb128 0x23
 3384 01a1 0D       		.uleb128 0xd
 3385 01a2 00       		.byte	0
 3386 01a3 03       		.uleb128 0x3
 3387 01a4 0E       		.uleb128 0xe
 3388 01a5 3A       		.uleb128 0x3a
 3389 01a6 0B       		.uleb128 0xb
 3390 01a7 3B       		.uleb128 0x3b
 3391 01a8 05       		.uleb128 0x5
 3392 01a9 49       		.uleb128 0x49
 3393 01aa 13       		.uleb128 0x13
 3394 01ab 00       		.byte	0
 3395 01ac 00       		.byte	0
 3396 01ad 24       		.uleb128 0x24
 3397 01ae 2E       		.uleb128 0x2e
 3398 01af 01       		.byte	0x1
 3399 01b0 3F       		.uleb128 0x3f
 3400 01b1 19       		.uleb128 0x19
 3401 01b2 03       		.uleb128 0x3
 3402 01b3 0E       		.uleb128 0xe
 3403 01b4 3A       		.uleb128 0x3a
 3404 01b5 0B       		.uleb128 0xb
 3405 01b6 3B       		.uleb128 0x3b
 3406 01b7 0B       		.uleb128 0xb
 3407 01b8 27       		.uleb128 0x27
 3408 01b9 19       		.uleb128 0x19
 3409 01ba 11       		.uleb128 0x11
 3410 01bb 01       		.uleb128 0x1
 3411 01bc 12       		.uleb128 0x12
 3412 01bd 06       		.uleb128 0x6
 3413 01be 40       		.uleb128 0x40
 3414 01bf 18       		.uleb128 0x18
 3415 01c0 9742     		.uleb128 0x2117
 3416 01c2 19       		.uleb128 0x19
 3417 01c3 01       		.uleb128 0x1
 3418 01c4 13       		.uleb128 0x13
 3419 01c5 00       		.byte	0
 3420 01c6 00       		.byte	0
ARM GAS  /tmp/ccy7WDFc.s 			page 61


 3421 01c7 25       		.uleb128 0x25
 3422 01c8 05       		.uleb128 0x5
 3423 01c9 00       		.byte	0
 3424 01ca 03       		.uleb128 0x3
 3425 01cb 0E       		.uleb128 0xe
 3426 01cc 3A       		.uleb128 0x3a
 3427 01cd 0B       		.uleb128 0xb
 3428 01ce 3B       		.uleb128 0x3b
 3429 01cf 0B       		.uleb128 0xb
 3430 01d0 49       		.uleb128 0x49
 3431 01d1 13       		.uleb128 0x13
 3432 01d2 02       		.uleb128 0x2
 3433 01d3 17       		.uleb128 0x17
 3434 01d4 00       		.byte	0
 3435 01d5 00       		.byte	0
 3436 01d6 26       		.uleb128 0x26
 3437 01d7 0B       		.uleb128 0xb
 3438 01d8 01       		.byte	0x1
 3439 01d9 11       		.uleb128 0x11
 3440 01da 01       		.uleb128 0x1
 3441 01db 12       		.uleb128 0x12
 3442 01dc 06       		.uleb128 0x6
 3443 01dd 01       		.uleb128 0x1
 3444 01de 13       		.uleb128 0x13
 3445 01df 00       		.byte	0
 3446 01e0 00       		.byte	0
 3447 01e1 27       		.uleb128 0x27
 3448 01e2 34       		.uleb128 0x34
 3449 01e3 00       		.byte	0
 3450 01e4 03       		.uleb128 0x3
 3451 01e5 08       		.uleb128 0x8
 3452 01e6 3A       		.uleb128 0x3a
 3453 01e7 0B       		.uleb128 0xb
 3454 01e8 3B       		.uleb128 0x3b
 3455 01e9 0B       		.uleb128 0xb
 3456 01ea 49       		.uleb128 0x49
 3457 01eb 13       		.uleb128 0x13
 3458 01ec 02       		.uleb128 0x2
 3459 01ed 18       		.uleb128 0x18
 3460 01ee 00       		.byte	0
 3461 01ef 00       		.byte	0
 3462 01f0 28       		.uleb128 0x28
 3463 01f1 898201   		.uleb128 0x4109
 3464 01f4 01       		.byte	0x1
 3465 01f5 11       		.uleb128 0x11
 3466 01f6 01       		.uleb128 0x1
 3467 01f7 31       		.uleb128 0x31
 3468 01f8 13       		.uleb128 0x13
 3469 01f9 01       		.uleb128 0x1
 3470 01fa 13       		.uleb128 0x13
 3471 01fb 00       		.byte	0
 3472 01fc 00       		.byte	0
 3473 01fd 29       		.uleb128 0x29
 3474 01fe 8A8201   		.uleb128 0x410a
 3475 0201 00       		.byte	0
 3476 0202 02       		.uleb128 0x2
 3477 0203 18       		.uleb128 0x18
ARM GAS  /tmp/ccy7WDFc.s 			page 62


 3478 0204 9142     		.uleb128 0x2111
 3479 0206 18       		.uleb128 0x18
 3480 0207 00       		.byte	0
 3481 0208 00       		.byte	0
 3482 0209 2A       		.uleb128 0x2a
 3483 020a 898201   		.uleb128 0x4109
 3484 020d 01       		.byte	0x1
 3485 020e 11       		.uleb128 0x11
 3486 020f 01       		.uleb128 0x1
 3487 0210 31       		.uleb128 0x31
 3488 0211 13       		.uleb128 0x13
 3489 0212 00       		.byte	0
 3490 0213 00       		.byte	0
 3491 0214 2B       		.uleb128 0x2b
 3492 0215 2E       		.uleb128 0x2e
 3493 0216 01       		.byte	0x1
 3494 0217 3F       		.uleb128 0x3f
 3495 0218 19       		.uleb128 0x19
 3496 0219 03       		.uleb128 0x3
 3497 021a 0E       		.uleb128 0xe
 3498 021b 3A       		.uleb128 0x3a
 3499 021c 0B       		.uleb128 0xb
 3500 021d 3B       		.uleb128 0x3b
 3501 021e 0B       		.uleb128 0xb
 3502 021f 27       		.uleb128 0x27
 3503 0220 19       		.uleb128 0x19
 3504 0221 49       		.uleb128 0x49
 3505 0222 13       		.uleb128 0x13
 3506 0223 11       		.uleb128 0x11
 3507 0224 01       		.uleb128 0x1
 3508 0225 12       		.uleb128 0x12
 3509 0226 06       		.uleb128 0x6
 3510 0227 40       		.uleb128 0x40
 3511 0228 18       		.uleb128 0x18
 3512 0229 9742     		.uleb128 0x2117
 3513 022b 19       		.uleb128 0x19
 3514 022c 01       		.uleb128 0x1
 3515 022d 13       		.uleb128 0x13
 3516 022e 00       		.byte	0
 3517 022f 00       		.byte	0
 3518 0230 2C       		.uleb128 0x2c
 3519 0231 34       		.uleb128 0x34
 3520 0232 00       		.byte	0
 3521 0233 03       		.uleb128 0x3
 3522 0234 08       		.uleb128 0x8
 3523 0235 3A       		.uleb128 0x3a
 3524 0236 0B       		.uleb128 0xb
 3525 0237 3B       		.uleb128 0x3b
 3526 0238 0B       		.uleb128 0xb
 3527 0239 49       		.uleb128 0x49
 3528 023a 13       		.uleb128 0x13
 3529 023b 02       		.uleb128 0x2
 3530 023c 17       		.uleb128 0x17
 3531 023d 00       		.byte	0
 3532 023e 00       		.byte	0
 3533 023f 2D       		.uleb128 0x2d
 3534 0240 898201   		.uleb128 0x4109
ARM GAS  /tmp/ccy7WDFc.s 			page 63


 3535 0243 01       		.byte	0x1
 3536 0244 11       		.uleb128 0x11
 3537 0245 01       		.uleb128 0x1
 3538 0246 9342     		.uleb128 0x2113
 3539 0248 18       		.uleb128 0x18
 3540 0249 00       		.byte	0
 3541 024a 00       		.byte	0
 3542 024b 2E       		.uleb128 0x2e
 3543 024c 05       		.uleb128 0x5
 3544 024d 00       		.byte	0
 3545 024e 03       		.uleb128 0x3
 3546 024f 08       		.uleb128 0x8
 3547 0250 3A       		.uleb128 0x3a
 3548 0251 0B       		.uleb128 0xb
 3549 0252 3B       		.uleb128 0x3b
 3550 0253 0B       		.uleb128 0xb
 3551 0254 49       		.uleb128 0x49
 3552 0255 13       		.uleb128 0x13
 3553 0256 02       		.uleb128 0x2
 3554 0257 17       		.uleb128 0x17
 3555 0258 00       		.byte	0
 3556 0259 00       		.byte	0
 3557 025a 2F       		.uleb128 0x2f
 3558 025b 34       		.uleb128 0x34
 3559 025c 00       		.byte	0
 3560 025d 03       		.uleb128 0x3
 3561 025e 0E       		.uleb128 0xe
 3562 025f 3A       		.uleb128 0x3a
 3563 0260 0B       		.uleb128 0xb
 3564 0261 3B       		.uleb128 0x3b
 3565 0262 05       		.uleb128 0x5
 3566 0263 49       		.uleb128 0x49
 3567 0264 13       		.uleb128 0x13
 3568 0265 3F       		.uleb128 0x3f
 3569 0266 19       		.uleb128 0x19
 3570 0267 3C       		.uleb128 0x3c
 3571 0268 19       		.uleb128 0x19
 3572 0269 00       		.byte	0
 3573 026a 00       		.byte	0
 3574 026b 30       		.uleb128 0x30
 3575 026c 34       		.uleb128 0x34
 3576 026d 00       		.byte	0
 3577 026e 03       		.uleb128 0x3
 3578 026f 0E       		.uleb128 0xe
 3579 0270 3A       		.uleb128 0x3a
 3580 0271 0B       		.uleb128 0xb
 3581 0272 3B       		.uleb128 0x3b
 3582 0273 0B       		.uleb128 0xb
 3583 0274 49       		.uleb128 0x49
 3584 0275 13       		.uleb128 0x13
 3585 0276 3F       		.uleb128 0x3f
 3586 0277 19       		.uleb128 0x19
 3587 0278 02       		.uleb128 0x2
 3588 0279 18       		.uleb128 0x18
 3589 027a 00       		.byte	0
 3590 027b 00       		.byte	0
 3591 027c 31       		.uleb128 0x31
ARM GAS  /tmp/ccy7WDFc.s 			page 64


 3592 027d 2E       		.uleb128 0x2e
 3593 027e 00       		.byte	0
 3594 027f 3F       		.uleb128 0x3f
 3595 0280 19       		.uleb128 0x19
 3596 0281 3C       		.uleb128 0x3c
 3597 0282 19       		.uleb128 0x19
 3598 0283 6E       		.uleb128 0x6e
 3599 0284 0E       		.uleb128 0xe
 3600 0285 03       		.uleb128 0x3
 3601 0286 0E       		.uleb128 0xe
 3602 0287 3A       		.uleb128 0x3a
 3603 0288 0B       		.uleb128 0xb
 3604 0289 3B       		.uleb128 0x3b
 3605 028a 05       		.uleb128 0x5
 3606 028b 00       		.byte	0
 3607 028c 00       		.byte	0
 3608 028d 00       		.byte	0
 3609              		.section	.debug_loc,"",%progbits
 3610              	.Ldebug_loc0:
 3611              	.LLST0:
 3612 0000 00000000 		.4byte	.LVL0
 3613 0004 0D000000 		.4byte	.LVL1-1
 3614 0008 0100     		.2byte	0x1
 3615 000a 50       		.byte	0x50
 3616 000b 0D000000 		.4byte	.LVL1-1
 3617 000f 24000000 		.4byte	.LVL3
 3618 0013 0100     		.2byte	0x1
 3619 0015 54       		.byte	0x54
 3620 0016 24000000 		.4byte	.LVL3
 3621 001a 28000000 		.4byte	.LFE118
 3622 001e 0400     		.2byte	0x4
 3623 0020 F3       		.byte	0xf3
 3624 0021 01       		.uleb128 0x1
 3625 0022 50       		.byte	0x50
 3626 0023 9F       		.byte	0x9f
 3627 0024 00000000 		.4byte	0
 3628 0028 00000000 		.4byte	0
 3629              	.LLST1:
 3630 002c 00000000 		.4byte	.LVL4
 3631 0030 0D000000 		.4byte	.LVL5-1
 3632 0034 0100     		.2byte	0x1
 3633 0036 50       		.byte	0x50
 3634 0037 0D000000 		.4byte	.LVL5-1
 3635 003b 38000000 		.4byte	.LVL8
 3636 003f 0100     		.2byte	0x1
 3637 0041 55       		.byte	0x55
 3638 0042 38000000 		.4byte	.LVL8
 3639 0046 40000000 		.4byte	.LFE119
 3640 004a 0400     		.2byte	0x4
 3641 004c F3       		.byte	0xf3
 3642 004d 01       		.uleb128 0x1
 3643 004e 50       		.byte	0x50
 3644 004f 9F       		.byte	0x9f
 3645 0050 00000000 		.4byte	0
 3646 0054 00000000 		.4byte	0
 3647              	.LLST2:
 3648 0058 00000000 		.4byte	.LVL9
ARM GAS  /tmp/ccy7WDFc.s 			page 65


 3649 005c 14000000 		.4byte	.LVL10
 3650 0060 0100     		.2byte	0x1
 3651 0062 50       		.byte	0x50
 3652 0063 14000000 		.4byte	.LVL10
 3653 0067 18000000 		.4byte	.LVL11
 3654 006b 0400     		.2byte	0x4
 3655 006d F3       		.byte	0xf3
 3656 006e 01       		.uleb128 0x1
 3657 006f 50       		.byte	0x50
 3658 0070 9F       		.byte	0x9f
 3659 0071 18000000 		.4byte	.LVL11
 3660 0075 77000000 		.4byte	.LVL12-1
 3661 0079 0100     		.2byte	0x1
 3662 007b 50       		.byte	0x50
 3663 007c 77000000 		.4byte	.LVL12-1
 3664 0080 8C000000 		.4byte	.LVL14
 3665 0084 0100     		.2byte	0x1
 3666 0086 55       		.byte	0x55
 3667 0087 8C000000 		.4byte	.LVL14
 3668 008b 96000000 		.4byte	.LVL15
 3669 008f 0100     		.2byte	0x1
 3670 0091 50       		.byte	0x50
 3671 0092 96000000 		.4byte	.LVL15
 3672 0096 98000000 		.4byte	.LVL16
 3673 009a 0100     		.2byte	0x1
 3674 009c 53       		.byte	0x53
 3675 009d 98000000 		.4byte	.LVL16
 3676 00a1 9A000000 		.4byte	.LVL17
 3677 00a5 0100     		.2byte	0x1
 3678 00a7 50       		.byte	0x50
 3679 00a8 9A000000 		.4byte	.LVL17
 3680 00ac 9C000000 		.4byte	.LVL18
 3681 00b0 0100     		.2byte	0x1
 3682 00b2 53       		.byte	0x53
 3683 00b3 9C000000 		.4byte	.LVL18
 3684 00b7 A4000000 		.4byte	.LVL19
 3685 00bb 0100     		.2byte	0x1
 3686 00bd 50       		.byte	0x50
 3687 00be A4000000 		.4byte	.LVL19
 3688 00c2 B0000000 		.4byte	.LVL20
 3689 00c6 0100     		.2byte	0x1
 3690 00c8 53       		.byte	0x53
 3691 00c9 B0000000 		.4byte	.LVL20
 3692 00cd B8000000 		.4byte	.LFE120
 3693 00d1 0400     		.2byte	0x4
 3694 00d3 F3       		.byte	0xf3
 3695 00d4 01       		.uleb128 0x1
 3696 00d5 50       		.byte	0x50
 3697 00d6 9F       		.byte	0x9f
 3698 00d7 00000000 		.4byte	0
 3699 00db 00000000 		.4byte	0
 3700              	.LLST3:
 3701 00df 78000000 		.4byte	.LVL12
 3702 00e3 86000000 		.4byte	.LVL13
 3703 00e7 0100     		.2byte	0x1
 3704 00e9 50       		.byte	0x50
 3705 00ea 00000000 		.4byte	0
ARM GAS  /tmp/ccy7WDFc.s 			page 66


 3706 00ee 00000000 		.4byte	0
 3707              	.LLST4:
 3708 00f2 00000000 		.4byte	.LVL21
 3709 00f6 08000000 		.4byte	.LVL22
 3710 00fa 0100     		.2byte	0x1
 3711 00fc 50       		.byte	0x50
 3712 00fd 08000000 		.4byte	.LVL22
 3713 0101 1C000000 		.4byte	.LFE121
 3714 0105 0400     		.2byte	0x4
 3715 0107 F3       		.byte	0xf3
 3716 0108 01       		.uleb128 0x1
 3717 0109 50       		.byte	0x50
 3718 010a 9F       		.byte	0x9f
 3719 010b 00000000 		.4byte	0
 3720 010f 00000000 		.4byte	0
 3721              	.LLST5:
 3722 0113 00000000 		.4byte	.LVL21
 3723 0117 0C000000 		.4byte	.LVL23
 3724 011b 0100     		.2byte	0x1
 3725 011d 51       		.byte	0x51
 3726 011e 0C000000 		.4byte	.LVL23
 3727 0122 1C000000 		.4byte	.LFE121
 3728 0126 0400     		.2byte	0x4
 3729 0128 F3       		.byte	0xf3
 3730 0129 01       		.uleb128 0x1
 3731 012a 51       		.byte	0x51
 3732 012b 9F       		.byte	0x9f
 3733 012c 00000000 		.4byte	0
 3734 0130 00000000 		.4byte	0
 3735              	.LLST6:
 3736 0134 00000000 		.4byte	.LVL25
 3737 0138 08000000 		.4byte	.LVL26
 3738 013c 0100     		.2byte	0x1
 3739 013e 50       		.byte	0x50
 3740 013f 08000000 		.4byte	.LVL26
 3741 0143 1C000000 		.4byte	.LFE122
 3742 0147 0400     		.2byte	0x4
 3743 0149 F3       		.byte	0xf3
 3744 014a 01       		.uleb128 0x1
 3745 014b 50       		.byte	0x50
 3746 014c 9F       		.byte	0x9f
 3747 014d 00000000 		.4byte	0
 3748 0151 00000000 		.4byte	0
 3749              	.LLST7:
 3750 0155 00000000 		.4byte	.LVL25
 3751 0159 0C000000 		.4byte	.LVL27
 3752 015d 0100     		.2byte	0x1
 3753 015f 51       		.byte	0x51
 3754 0160 0C000000 		.4byte	.LVL27
 3755 0164 1C000000 		.4byte	.LFE122
 3756 0168 0400     		.2byte	0x4
 3757 016a F3       		.byte	0xf3
 3758 016b 01       		.uleb128 0x1
 3759 016c 51       		.byte	0x51
 3760 016d 9F       		.byte	0x9f
 3761 016e 00000000 		.4byte	0
 3762 0172 00000000 		.4byte	0
ARM GAS  /tmp/ccy7WDFc.s 			page 67


 3763              		.section	.debug_aranges,"",%progbits
 3764 0000 3C000000 		.4byte	0x3c
 3765 0004 0200     		.2byte	0x2
 3766 0006 00000000 		.4byte	.Ldebug_info0
 3767 000a 04       		.byte	0x4
 3768 000b 00       		.byte	0
 3769 000c 0000     		.2byte	0
 3770 000e 0000     		.2byte	0
 3771 0010 00000000 		.4byte	.LFB118
 3772 0014 28000000 		.4byte	.LFE118-.LFB118
 3773 0018 00000000 		.4byte	.LFB119
 3774 001c 40000000 		.4byte	.LFE119-.LFB119
 3775 0020 00000000 		.4byte	.LFB120
 3776 0024 B8000000 		.4byte	.LFE120-.LFB120
 3777 0028 00000000 		.4byte	.LFB121
 3778 002c 1C000000 		.4byte	.LFE121-.LFB121
 3779 0030 00000000 		.4byte	.LFB122
 3780 0034 1C000000 		.4byte	.LFE122-.LFB122
 3781 0038 00000000 		.4byte	0
 3782 003c 00000000 		.4byte	0
 3783              		.section	.debug_ranges,"",%progbits
 3784              	.Ldebug_ranges0:
 3785 0000 00000000 		.4byte	.LFB118
 3786 0004 28000000 		.4byte	.LFE118
 3787 0008 00000000 		.4byte	.LFB119
 3788 000c 40000000 		.4byte	.LFE119
 3789 0010 00000000 		.4byte	.LFB120
 3790 0014 B8000000 		.4byte	.LFE120
 3791 0018 00000000 		.4byte	.LFB121
 3792 001c 1C000000 		.4byte	.LFE121
 3793 0020 00000000 		.4byte	.LFB122
 3794 0024 1C000000 		.4byte	.LFE122
 3795 0028 00000000 		.4byte	0
 3796 002c 00000000 		.4byte	0
 3797              		.section	.debug_line,"",%progbits
 3798              	.Ldebug_line0:
 3799 0000 46030000 		.section	.debug_str,"MS",%progbits,1
 3799      0200BB02 
 3799      00000201 
 3799      FB0E0D00 
 3799      01010101 
 3800              	.LASF17:
 3801 0000 696E7438 		.ascii	"int8_t\000"
 3801      5F7400
 3802              	.LASF223:
 3803 0007 71756575 		.ascii	"queue\000"
 3803      6500
 3804              	.LASF3:
 3805 000d 73697A65 		.ascii	"size_t\000"
 3805      5F7400
 3806              	.LASF57:
 3807 0014 73697A65 		.ascii	"sizetype\000"
 3807      74797065 
 3807      00
 3808              	.LASF267:
 3809 001d 75736253 		.ascii	"usbStartTransmitI\000"
 3809      74617274 
ARM GAS  /tmp/ccy7WDFc.s 			page 68


 3809      5472616E 
 3809      736D6974 
 3809      4900
 3810              	.LASF36:
 3811 002f 705F6374 		.ascii	"p_ctx\000"
 3811      7800
 3812              	.LASF29:
 3813 0035 74707269 		.ascii	"tprio_t\000"
 3813      6F5F7400 
 3814              	.LASF45:
 3815 003d 705F6D73 		.ascii	"p_msgqueue\000"
 3815      67717565 
 3815      756500
 3816              	.LASF216:
 3817 0048 72785F66 		.ascii	"rx_fifo_size\000"
 3817      69666F5F 
 3817      73697A65 
 3817      00
 3818              	.LASF20:
 3819 0055 696E7433 		.ascii	"int32_t\000"
 3819      325F7400 
 3820              	.LASF151:
 3821 005d 72657376 		.ascii	"resvd4\000"
 3821      643400
 3822              	.LASF142:
 3823 0064 72657376 		.ascii	"resvd8\000"
 3823      643800
 3824              	.LASF153:
 3825 006b 72657376 		.ascii	"resvdC\000"
 3825      644300
 3826              	.LASF265:
 3827 0072 75736253 		.ascii	"usbStartReceiveI\000"
 3827      74617274 
 3827      52656365 
 3827      69766549 
 3827      00
 3828              	.LASF119:
 3829 0083 5553425F 		.ascii	"USB_EP0_TX\000"
 3829      4550305F 
 3829      545800
 3830              	.LASF191:
 3831 008e 72657376 		.ascii	"resvd700\000"
 3831      64373030 
 3831      00
 3832              	.LASF271:
 3833 0097 2F686F6D 		.ascii	"/home/mark/repos/pc_gamecontroller\000"
 3833      652F6D61 
 3833      726B2F72 
 3833      65706F73 
 3833      2F70635F 
 3834              	.LASF91:
 3835 00ba 73746174 		.ascii	"state\000"
 3835      6500
 3836              	.LASF236:
 3837 00c0 65705F6D 		.ascii	"ep_mode\000"
 3837      6F646500 
 3838              	.LASF259:
ARM GAS  /tmp/ccy7WDFc.s 			page 69


 3839 00c8 68696444 		.ascii	"hidDataReceived\000"
 3839      61746152 
 3839      65636569 
 3839      76656400 
 3840              	.LASF116:
 3841 00d8 5553425F 		.ascii	"USB_ACTIVE\000"
 3841      41435449 
 3841      564500
 3842              	.LASF258:
 3843 00e3 68696444 		.ascii	"hidDataTransmitted\000"
 3843      61746154 
 3843      72616E73 
 3843      6D697474 
 3843      656400
 3844              	.LASF268:
 3845 00f6 5F70616C 		.ascii	"_pal_lld_setgroupmode\000"
 3845      5F6C6C64 
 3845      5F736574 
 3845      67726F75 
 3845      706D6F64 
 3846              	.LASF60:
 3847 010c 6D5F6F77 		.ascii	"m_owner\000"
 3847      6E657200 
 3848              	.LASF63:
 3849 0114 65786974 		.ascii	"exitcode\000"
 3849      636F6465 
 3849      00
 3850              	.LASF125:
 3851 011d 75736265 		.ascii	"usbep0state_t\000"
 3851      70307374 
 3851      6174655F 
 3851      7400
 3852              	.LASF6:
 3853 012b 5F5F7569 		.ascii	"__uint8_t\000"
 3853      6E74385F 
 3853      7400
 3854              	.LASF71:
 3855 0135 715F746F 		.ascii	"q_top\000"
 3855      7000
 3856              	.LASF65:
 3857 013b 65776D61 		.ascii	"ewmask\000"
 3857      736B00
 3858              	.LASF83:
 3859 0142 50555044 		.ascii	"PUPDR\000"
 3859      5200
 3860              	.LASF70:
 3861 0148 715F6275 		.ascii	"q_buffer\000"
 3861      66666572 
 3861      00
 3862              	.LASF127:
 3863 0151 5553425F 		.ascii	"USB_EVENT_ADDRESS\000"
 3863      4556454E 
 3863      545F4144 
 3863      44524553 
 3863      5300
 3864              	.LASF172:
 3865 0163 44494550 		.ascii	"DIEPTXF0\000"
ARM GAS  /tmp/ccy7WDFc.s 			page 70


 3865      54584630 
 3865      00
 3866              	.LASF74:
 3867 016c 715F6E6F 		.ascii	"q_notify\000"
 3867      74696679 
 3867      00
 3868              	.LASF37:
 3869 0175 705F6E65 		.ascii	"p_newer\000"
 3869      77657200 
 3870              	.LASF12:
 3871 017d 6C6F6E67 		.ascii	"long int\000"
 3871      20696E74 
 3871      00
 3872              	.LASF33:
 3873 0186 705F6E65 		.ascii	"p_next\000"
 3873      787400
 3874              	.LASF73:
 3875 018d 715F7264 		.ascii	"q_rdptr\000"
 3875      70747200 
 3876              	.LASF226:
 3877 0195 7478636E 		.ascii	"txcnt\000"
 3877      7400
 3878              	.LASF34:
 3879 019b 705F7072 		.ascii	"p_prev\000"
 3879      657600
 3880              	.LASF26:
 3881 01a2 74737461 		.ascii	"tstate_t\000"
 3881      74655F74 
 3881      00
 3882              	.LASF241:
 3883 01ab 6F75745F 		.ascii	"out_maxsize\000"
 3883      6D617873 
 3883      697A6500 
 3884              	.LASF48:
 3885 01b7 705F6D74 		.ascii	"p_mtxlist\000"
 3885      786C6973 
 3885      7400
 3886              	.LASF109:
 3887 01c1 7468645F 		.ascii	"thd_wait\000"
 3887      77616974 
 3887      00
 3888              	.LASF220:
 3889 01ca 74786275 		.ascii	"txbuf\000"
 3889      6600
 3890              	.LASF272:
 3891 01d0 7573625F 		.ascii	"usb_request_hook_cb\000"
 3891      72657175 
 3891      6573745F 
 3891      686F6F6B 
 3891      5F636200 
 3892              	.LASF53:
 3893 01e4 72656761 		.ascii	"regarm_t\000"
 3893      726D5F74 
 3893      00
 3894              	.LASF198:
 3895 01ed 4441494E 		.ascii	"DAINT\000"
 3895      5400
ARM GAS  /tmp/ccy7WDFc.s 			page 71


 3896              	.LASF118:
 3897 01f3 5553425F 		.ascii	"USB_EP0_WAITING_SETUP\000"
 3897      4550305F 
 3897      57414954 
 3897      494E475F 
 3897      53455455 
 3898              	.LASF197:
 3899 0209 444F4550 		.ascii	"DOEPMSK\000"
 3899      4D534B00 
 3900              	.LASF158:
 3901 0211 444F4550 		.ascii	"DOEPCTL\000"
 3901      43544C00 
 3902              	.LASF262:
 3903 0219 6869645F 		.ascii	"hid_in_data\000"
 3903      696E5F64 
 3903      61746100 
 3904              	.LASF5:
 3905 0225 7369676E 		.ascii	"signed char\000"
 3905      65642063 
 3905      68617200 
 3906              	.LASF43:
 3907 0231 705F7072 		.ascii	"p_preempt\000"
 3907      65656D70 
 3907      7400
 3908              	.LASF18:
 3909 023b 75696E74 		.ascii	"uint8_t\000"
 3909      385F7400 
 3910              	.LASF131:
 3911 0243 5553425F 		.ascii	"USB_EVENT_STALLED\000"
 3911      4556454E 
 3911      545F5354 
 3911      414C4C45 
 3911      4400
 3912              	.LASF159:
 3913 0255 444F4550 		.ascii	"DOEPINT\000"
 3913      494E5400 
 3914              	.LASF31:
 3915 025d 6576656E 		.ascii	"eventmask_t\000"
 3915      746D6173 
 3915      6B5F7400 
 3916              	.LASF56:
 3917 0269 636F6E74 		.ascii	"context\000"
 3917      65787400 
 3918              	.LASF233:
 3919 0271 72787369 		.ascii	"rxsize\000"
 3919      7A6500
 3920              	.LASF7:
 3921 0278 756E7369 		.ascii	"unsigned char\000"
 3921      676E6564 
 3921      20636861 
 3921      7200
 3922              	.LASF124:
 3923 0286 5553425F 		.ascii	"USB_EP0_ERROR\000"
 3923      4550305F 
 3923      4552524F 
 3923      5200
 3924              	.LASF75:
ARM GAS  /tmp/ccy7WDFc.s 			page 72


 3925 0294 715F6C69 		.ascii	"q_link\000"
 3925      6E6B00
 3926              	.LASF253:
 3927 029b 736F6D65 		.ascii	"something\000"
 3927      7468696E 
 3927      6700
 3928              	.LASF192:
 3929 02a5 44434647 		.ascii	"DCFG\000"
 3929      00
 3930              	.LASF176:
 3931 02aa 47434346 		.ascii	"GCCFG\000"
 3931      4700
 3932              	.LASF97:
 3933 02b0 65703073 		.ascii	"ep0state\000"
 3933      74617465 
 3933      00
 3934              	.LASF154:
 3935 02b9 44494550 		.ascii	"DIEPTSIZ\000"
 3935      5453495A 
 3935      00
 3936              	.LASF249:
 3937 02c2 72657175 		.ascii	"requests_hook_cb\000"
 3937      65737473 
 3937      5F686F6F 
 3937      6B5F6362 
 3937      00
 3938              	.LASF24:
 3939 02d3 5F426F6F 		.ascii	"_Bool\000"
 3939      6C00
 3940              	.LASF181:
 3941 02d9 48434647 		.ascii	"HCFG\000"
 3941      00
 3942              	.LASF141:
 3943 02de 48434348 		.ascii	"HCCHAR\000"
 3943      415200
 3944              	.LASF161:
 3945 02e5 73746D33 		.ascii	"stm32_otg_out_ep_t\000"
 3945      325F6F74 
 3945      675F6F75 
 3945      745F6570 
 3945      5F7400
 3946              	.LASF66:
 3947 02f8 63686172 		.ascii	"char\000"
 3947      00
 3948              	.LASF150:
 3949 02fd 44494550 		.ascii	"DIEPCTL\000"
 3949      43544C00 
 3950              	.LASF99:
 3951 0305 6570306E 		.ascii	"ep0n\000"
 3951      00
 3952              	.LASF195:
 3953 030a 72657376 		.ascii	"resvd80C\000"
 3953      64383043 
 3953      00
 3954              	.LASF189:
 3955 0313 48505254 		.ascii	"HPRT\000"
 3955      00
ARM GAS  /tmp/ccy7WDFc.s 			page 73


 3956              	.LASF35:
 3957 0318 705F7072 		.ascii	"p_prio\000"
 3957      696F00
 3958              	.LASF94:
 3959 031f 72656365 		.ascii	"receiving\000"
 3959      6976696E 
 3959      6700
 3960              	.LASF9:
 3961 0329 5F5F7569 		.ascii	"__uint16_t\000"
 3961      6E743136 
 3961      5F7400
 3962              	.LASF67:
 3963 0334 47656E65 		.ascii	"GenericQueue\000"
 3963      72696351 
 3963      75657565 
 3963      00
 3964              	.LASF64:
 3965 0341 77746F62 		.ascii	"wtobjp\000"
 3965      6A7000
 3966              	.LASF92:
 3967 0348 636F6E66 		.ascii	"config\000"
 3967      696700
 3968              	.LASF237:
 3969 034f 73657475 		.ascii	"setup_cb\000"
 3969      705F6362 
 3969      00
 3970              	.LASF134:
 3971 0358 75645F73 		.ascii	"ud_string\000"
 3971      7472696E 
 3971      6700
 3972              	.LASF238:
 3973 0362 696E5F63 		.ascii	"in_cb\000"
 3973      6200
 3974              	.LASF54:
 3975 0368 73746B61 		.ascii	"stkalign_t\000"
 3975      6C69676E 
 3975      5F7400
 3976              	.LASF78:
 3977 0373 4F757470 		.ascii	"OutputQueue\000"
 3977      75745175 
 3977      65756500 
 3978              	.LASF183:
 3979 037f 48464E55 		.ascii	"HFNUM\000"
 3979      4D00
 3980              	.LASF138:
 3981 0385 75736265 		.ascii	"usbeventcb_t\000"
 3981      76656E74 
 3981      63625F74 
 3981      00
 3982              	.LASF149:
 3983 0392 73746D33 		.ascii	"stm32_otg_host_chn_t\000"
 3983      325F6F74 
 3983      675F686F 
 3983      73745F63 
 3983      686E5F74 
 3984              	.LASF93:
 3985 03a7 7472616E 		.ascii	"transmitting\000"
ARM GAS  /tmp/ccy7WDFc.s 			page 74


 3985      736D6974 
 3985      74696E67 
 3985      00
 3986              	.LASF145:
 3987 03b4 48435453 		.ascii	"HCTSIZ\000"
 3987      495A00
 3988              	.LASF229:
 3989 03bb 55534249 		.ascii	"USBInEndpointState\000"
 3989      6E456E64 
 3989      706F696E 
 3989      74537461 
 3989      746500
 3990              	.LASF89:
 3991 03ce 696F706F 		.ascii	"ioportmask_t\000"
 3991      72746D61 
 3991      736B5F74 
 3991      00
 3992              	.LASF201:
 3993 03db 72657376 		.ascii	"resvd824\000"
 3993      64383234 
 3993      00
 3994              	.LASF203:
 3995 03e4 44564255 		.ascii	"DVBUSPULSE\000"
 3995      5350554C 
 3995      534500
 3996              	.LASF205:
 3997 03ef 44494550 		.ascii	"DIEPEMPMSK\000"
 3997      454D504D 
 3997      534B00
 3998              	.LASF135:
 3999 03fa 55534244 		.ascii	"USBDescriptor\000"
 3999      65736372 
 3999      6970746F 
 3999      7200
 4000              	.LASF219:
 4001 0408 73746D33 		.ascii	"stm32_otg_params_t\000"
 4001      325F6F74 
 4001      675F7061 
 4001      72616D73 
 4001      5F7400
 4002              	.LASF101:
 4003 041b 73657475 		.ascii	"setup\000"
 4003      7000
 4004              	.LASF55:
 4005 0421 696E7463 		.ascii	"intctx\000"
 4005      747800
 4006              	.LASF47:
 4007 0428 705F6570 		.ascii	"p_epending\000"
 4007      656E6469 
 4007      6E6700
 4008              	.LASF166:
 4009 0433 47525354 		.ascii	"GRSTCTL\000"
 4009      43544C00 
 4010              	.LASF132:
 4011 043b 75736265 		.ascii	"usbevent_t\000"
 4011      76656E74 
 4011      5F7400
ARM GAS  /tmp/ccy7WDFc.s 			page 75


 4012              	.LASF206:
 4013 0446 72657376 		.ascii	"resvd838\000"
 4013      64383338 
 4013      00
 4014              	.LASF133:
 4015 044f 75645F73 		.ascii	"ud_size\000"
 4015      697A6500 
 4016              	.LASF79:
 4017 0457 636C6561 		.ascii	"clear\000"
 4017      7200
 4018              	.LASF115:
 4019 045d 5553425F 		.ascii	"USB_SELECTED\000"
 4019      53454C45 
 4019      43544544 
 4019      00
 4020              	.LASF104:
 4021 046a 636F6E66 		.ascii	"configuration\000"
 4021      69677572 
 4021      6174696F 
 4021      6E00
 4022              	.LASF171:
 4023 0478 47525846 		.ascii	"GRXFSIZ\000"
 4023      53495A00 
 4024              	.LASF69:
 4025 0480 715F636F 		.ascii	"q_counter\000"
 4025      756E7465 
 4025      7200
 4026              	.LASF208:
 4027 048a 72657376 		.ascii	"resvd840\000"
 4027      64383430 
 4027      00
 4028              	.LASF15:
 4029 0493 5F5F7569 		.ascii	"__uint64_t\000"
 4029      6E743634 
 4029      5F7400
 4030              	.LASF179:
 4031 049e 44494550 		.ascii	"DIEPTXF\000"
 4031      54584600 
 4032              	.LASF14:
 4033 04a6 6C6F6E67 		.ascii	"long unsigned int\000"
 4033      20756E73 
 4033      69676E65 
 4033      6420696E 
 4033      7400
 4034              	.LASF266:
 4035 04b8 75736250 		.ascii	"usbPrepareTransmit\000"
 4035      72657061 
 4035      72655472 
 4035      616E736D 
 4035      697400
 4036              	.LASF102:
 4037 04cb 73746174 		.ascii	"status\000"
 4037      757300
 4038              	.LASF103:
 4039 04d2 61646472 		.ascii	"address\000"
 4039      65737300 
 4040              	.LASF100:
ARM GAS  /tmp/ccy7WDFc.s 			page 76


 4041 04da 65703065 		.ascii	"ep0endcb\000"
 4041      6E646362 
 4041      00
 4042              	.LASF164:
 4043 04e3 47414842 		.ascii	"GAHBCFG\000"
 4043      43464700 
 4044              	.LASF244:
 4045 04eb 696E5F6D 		.ascii	"in_multiplier\000"
 4045      756C7469 
 4045      706C6965 
 4045      7200
 4046              	.LASF261:
 4047 04f9 75736249 		.ascii	"usbInitState\000"
 4047      6E697453 
 4047      74617465 
 4047      00
 4048              	.LASF257:
 4049 0506 75736270 		.ascii	"usbp\000"
 4049      00
 4050              	.LASF218:
 4051 050b 6E756D5F 		.ascii	"num_endpoints\000"
 4051      656E6470 
 4051      6F696E74 
 4051      7300
 4052              	.LASF72:
 4053 0519 715F7772 		.ascii	"q_wrptr\000"
 4053      70747200 
 4054              	.LASF200:
 4055 0521 72657376 		.ascii	"resvd820\000"
 4055      64383230 
 4055      00
 4056              	.LASF85:
 4057 052a 4C434B52 		.ascii	"LCKR\000"
 4057      00
 4058              	.LASF108:
 4059 052f 7468645F 		.ascii	"thd_ptr\000"
 4059      70747200 
 4060              	.LASF234:
 4061 0537 7278636E 		.ascii	"rxcnt\000"
 4061      7400
 4062              	.LASF117:
 4063 053d 75736273 		.ascii	"usbstate_t\000"
 4063      74617465 
 4063      5F7400
 4064              	.LASF225:
 4065 0548 74787369 		.ascii	"txsize\000"
 4065      7A6500
 4066              	.LASF184:
 4067 054f 72657376 		.ascii	"resvd40C\000"
 4067      64343043 
 4067      00
 4068              	.LASF82:
 4069 0558 4F535045 		.ascii	"OSPEEDR\000"
 4069      45445200 
 4070              	.LASF162:
 4071 0560 474F5447 		.ascii	"GOTGCTL\000"
 4071      43544C00 
ARM GAS  /tmp/ccy7WDFc.s 			page 77


 4072              	.LASF230:
 4073 0568 72786275 		.ascii	"rxbuf\000"
 4073      6600
 4074              	.LASF170:
 4075 056e 47525853 		.ascii	"GRXSTSP\000"
 4075      54535000 
 4076              	.LASF242:
 4077 0576 696E5F73 		.ascii	"in_state\000"
 4077      74617465 
 4077      00
 4078              	.LASF169:
 4079 057f 47525853 		.ascii	"GRXSTSR\000"
 4079      54535200 
 4080              	.LASF130:
 4081 0587 5553425F 		.ascii	"USB_EVENT_WAKEUP\000"
 4081      4556454E 
 4081      545F5741 
 4081      4B455550 
 4081      00
 4082              	.LASF212:
 4083 0598 50434743 		.ascii	"PCGCCTL\000"
 4083      43544C00 
 4084              	.LASF269:
 4085 05a0 474E5520 		.ascii	"GNU C11 5.4.1 20160919 (release) [ARM/embedded-5-br"
 4085      43313120 
 4085      352E342E 
 4085      31203230 
 4085      31363039 
 4086 05d3 616E6368 		.ascii	"anch revision 240496] -mcpu=cortex-m4 -mno-thumb-in"
 4086      20726576 
 4086      6973696F 
 4086      6E203234 
 4086      30343936 
 4087 0606 74657277 		.ascii	"terwork -mthumb -ggdb -O2 -fomit-frame-pointer -fal"
 4087      6F726B20 
 4087      2D6D7468 
 4087      756D6220 
 4087      2D676764 
 4088 0639 69676E2D 		.ascii	"ign-functions=16 -ffunction-sections -fdata-section"
 4088      66756E63 
 4088      74696F6E 
 4088      733D3136 
 4088      202D6666 
 4089 066c 73202D66 		.ascii	"s -fno-common\000"
 4089      6E6F2D63 
 4089      6F6D6D6F 
 4089      6E00
 4090              	.LASF13:
 4091 067a 5F5F7569 		.ascii	"__uint32_t\000"
 4091      6E743332 
 4091      5F7400
 4092              	.LASF247:
 4093 0685 6576656E 		.ascii	"event_cb\000"
 4093      745F6362 
 4093      00
 4094              	.LASF58:
 4095 068e 4D757465 		.ascii	"Mutex\000"
ARM GAS  /tmp/ccy7WDFc.s 			page 78


 4095      7800
 4096              	.LASF1:
 4097 0694 6C6F6E67 		.ascii	"long long int\000"
 4097      206C6F6E 
 4097      6720696E 
 4097      7400
 4098              	.LASF114:
 4099 06a2 5553425F 		.ascii	"USB_READY\000"
 4099      52454144 
 4099      5900
 4100              	.LASF59:
 4101 06ac 6D5F7175 		.ascii	"m_queue\000"
 4101      65756500 
 4102              	.LASF188:
 4103 06b4 72657376 		.ascii	"resvd41C\000"
 4103      64343143 
 4103      00
 4104              	.LASF98:
 4105 06bd 6570306E 		.ascii	"ep0next\000"
 4105      65787400 
 4106              	.LASF204:
 4107 06c5 72657376 		.ascii	"resvd830\000"
 4107      64383330 
 4107      00
 4108              	.LASF137:
 4109 06ce 75736265 		.ascii	"usbepcallback_t\000"
 4109      7063616C 
 4109      6C626163 
 4109      6B5F7400 
 4110              	.LASF209:
 4111 06de 72657376 		.ascii	"resvd880\000"
 4111      64383830 
 4111      00
 4112              	.LASF256:
 4113 06e7 6869645F 		.ascii	"hid_transmit\000"
 4113      7472616E 
 4113      736D6974 
 4113      00
 4114              	.LASF260:
 4115 06f4 49544D5F 		.ascii	"ITM_RxBuffer\000"
 4115      52784275 
 4115      66666572 
 4115      00
 4116              	.LASF207:
 4117 0701 72657376 		.ascii	"resvd83C\000"
 4117      64383343 
 4117      00
 4118              	.LASF76:
 4119 070a 716E6F74 		.ascii	"qnotify_t\000"
 4119      6966795F 
 4119      7400
 4120              	.LASF44:
 4121 0714 705F7761 		.ascii	"p_waiting\000"
 4121      6974696E 
 4121      6700
 4122              	.LASF80:
 4123 071e 4D4F4445 		.ascii	"MODER\000"
ARM GAS  /tmp/ccy7WDFc.s 			page 79


 4123      5200
 4124              	.LASF41:
 4125 0724 705F666C 		.ascii	"p_flags\000"
 4125      61677300 
 4126              	.LASF160:
 4127 072c 444F4550 		.ascii	"DOEPTSIZ\000"
 4127      5453495A 
 4127      00
 4128              	.LASF186:
 4129 0735 4841494E 		.ascii	"HAINT\000"
 4129      5400
 4130              	.LASF0:
 4131 073b 756E7369 		.ascii	"unsigned int\000"
 4131      676E6564 
 4131      20696E74 
 4131      00
 4132              	.LASF251:
 4133 0748 55534243 		.ascii	"USBConfig\000"
 4133      6F6E6669 
 4133      6700
 4134              	.LASF107:
 4135 0752 74787065 		.ascii	"txpending\000"
 4135      6E64696E 
 4135      6700
 4136              	.LASF50:
 4137 075c 705F6D70 		.ascii	"p_mpool\000"
 4137      6F6F6C00 
 4138              	.LASF215:
 4139 0764 73746D33 		.ascii	"stm32_otg_t\000"
 4139      325F6F74 
 4139      675F7400 
 4140              	.LASF42:
 4141 0770 705F7265 		.ascii	"p_refs\000"
 4141      667300
 4142              	.LASF245:
 4143 0777 73657475 		.ascii	"setup_buf\000"
 4143      705F6275 
 4143      6600
 4144              	.LASF105:
 4145 0781 6F746770 		.ascii	"otgparams\000"
 4145      6172616D 
 4145      7300
 4146              	.LASF270:
 4147 078b 7573625F 		.ascii	"usb_hid.c\000"
 4147      6869642E 
 4147      6300
 4148              	.LASF52:
 4149 0795 54687265 		.ascii	"ThreadsList\000"
 4149      6164734C 
 4149      69737400 
 4150              	.LASF190:
 4151 07a1 72657376 		.ascii	"resvd444\000"
 4151      64343434 
 4151      00
 4152              	.LASF239:
 4153 07aa 6F75745F 		.ascii	"out_cb\000"
 4153      636200
ARM GAS  /tmp/ccy7WDFc.s 			page 80


 4154              	.LASF90:
 4155 07b1 55534244 		.ascii	"USBDriver\000"
 4155      72697665 
 4155      7200
 4156              	.LASF187:
 4157 07bb 4841494E 		.ascii	"HAINTMSK\000"
 4157      544D534B 
 4157      00
 4158              	.LASF113:
 4159 07c4 5553425F 		.ascii	"USB_STOP\000"
 4159      53544F50 
 4159      00
 4160              	.LASF240:
 4161 07cd 696E5F6D 		.ascii	"in_maxsize\000"
 4161      61787369 
 4161      7A6500
 4162              	.LASF168:
 4163 07d8 47494E54 		.ascii	"GINTMSK\000"
 4163      4D534B00 
 4164              	.LASF243:
 4165 07e0 6F75745F 		.ascii	"out_state\000"
 4165      73746174 
 4165      6500
 4166              	.LASF2:
 4167 07ea 6C6F6E67 		.ascii	"long double\000"
 4167      20646F75 
 4167      626C6500 
 4168              	.LASF49:
 4169 07f6 705F7265 		.ascii	"p_realprio\000"
 4169      616C7072 
 4169      696F00
 4170              	.LASF120:
 4171 0801 5553425F 		.ascii	"USB_EP0_WAITING_TX0\000"
 4171      4550305F 
 4171      57414954 
 4171      494E475F 
 4171      54583000 
 4172              	.LASF112:
 4173 0815 5553425F 		.ascii	"USB_UNINIT\000"
 4173      554E494E 
 4173      495400
 4174              	.LASF235:
 4175 0820 5553424F 		.ascii	"USBOutEndpointState\000"
 4175      7574456E 
 4175      64706F69 
 4175      6E745374 
 4175      61746500 
 4176              	.LASF4:
 4177 0834 5F5F696E 		.ascii	"__int8_t\000"
 4177      74385F74 
 4177      00
 4178              	.LASF211:
 4179 083d 72657376 		.ascii	"resvdD00\000"
 4179      64443030 
 4179      00
 4180              	.LASF16:
 4181 0846 6C6F6E67 		.ascii	"long long unsigned int\000"
ARM GAS  /tmp/ccy7WDFc.s 			page 81


 4181      206C6F6E 
 4181      6720756E 
 4181      7369676E 
 4181      65642069 
 4182              	.LASF178:
 4183 085d 48505458 		.ascii	"HPTXFSIZ\000"
 4183      4653495A 
 4183      00
 4184              	.LASF38:
 4185 0866 705F6F6C 		.ascii	"p_older\000"
 4185      64657200 
 4186              	.LASF19:
 4187 086e 75696E74 		.ascii	"uint16_t\000"
 4187      31365F74 
 4187      00
 4188              	.LASF143:
 4189 0877 4843494E 		.ascii	"HCINT\000"
 4189      5400
 4190              	.LASF222:
 4191 087d 6C696E65 		.ascii	"linear\000"
 4191      617200
 4192              	.LASF30:
 4193 0884 6D73675F 		.ascii	"msg_t\000"
 4193      7400
 4194              	.LASF193:
 4195 088a 4443544C 		.ascii	"DCTL\000"
 4195      00
 4196              	.LASF246:
 4197 088f 55534245 		.ascii	"USBEndpointConfig\000"
 4197      6E64706F 
 4197      696E7443 
 4197      6F6E6669 
 4197      6700
 4198              	.LASF144:
 4199 08a1 4843494E 		.ascii	"HCINTMSK\000"
 4199      544D534B 
 4199      00
 4200              	.LASF232:
 4201 08aa 72787175 		.ascii	"rxqueued\000"
 4201      65756564 
 4201      00
 4202              	.LASF28:
 4203 08b3 74736C69 		.ascii	"tslices_t\000"
 4203      6365735F 
 4203      7400
 4204              	.LASF163:
 4205 08bd 474F5447 		.ascii	"GOTGINT\000"
 4205      494E5400 
 4206              	.LASF87:
 4207 08c5 41465248 		.ascii	"AFRH\000"
 4207      00
 4208              	.LASF86:
 4209 08ca 4146524C 		.ascii	"AFRL\000"
 4209      00
 4210              	.LASF231:
 4211 08cf 72787175 		.ascii	"rxqueue\000"
 4211      65756500 
ARM GAS  /tmp/ccy7WDFc.s 			page 82


 4212              	.LASF199:
 4213 08d7 4441494E 		.ascii	"DAINTMSK\000"
 4213      544D534B 
 4213      00
 4214              	.LASF202:
 4215 08e0 44564255 		.ascii	"DVBUSDIS\000"
 4215      53444953 
 4215      00
 4216              	.LASF157:
 4217 08e9 73746D33 		.ascii	"stm32_otg_in_ep_t\000"
 4217      325F6F74 
 4217      675F696E 
 4217      5F65705F 
 4217      7400
 4218              	.LASF217:
 4219 08fb 6F74675F 		.ascii	"otg_ram_size\000"
 4219      72616D5F 
 4219      73697A65 
 4219      00
 4220              	.LASF128:
 4221 0908 5553425F 		.ascii	"USB_EVENT_CONFIGURED\000"
 4221      4556454E 
 4221      545F434F 
 4221      4E464947 
 4221      55524544 
 4222              	.LASF214:
 4223 091d 4649464F 		.ascii	"FIFO\000"
 4223      00
 4224              	.LASF81:
 4225 0922 4F545950 		.ascii	"OTYPER\000"
 4225      455200
 4226              	.LASF68:
 4227 0929 715F7761 		.ascii	"q_waiting\000"
 4227      6974696E 
 4227      6700
 4228              	.LASF25:
 4229 0933 746D6F64 		.ascii	"tmode_t\000"
 4229      655F7400 
 4230              	.LASF140:
 4231 093b 75736267 		.ascii	"usbgetdescriptor_t\000"
 4231      65746465 
 4231      73637269 
 4231      70746F72 
 4231      5F7400
 4232              	.LASF110:
 4233 094e 77615F70 		.ascii	"wa_pump\000"
 4233      756D7000 
 4234              	.LASF95:
 4235 0956 696E5F70 		.ascii	"in_params\000"
 4235      6172616D 
 4235      7300
 4236              	.LASF252:
 4237 0960 6869645F 		.ascii	"hid_data_in\000"
 4237      64617461 
 4237      5F696E00 
 4238              	.LASF264:
 4239 096c 75736250 		.ascii	"usbPrepareReceive\000"
ARM GAS  /tmp/ccy7WDFc.s 			page 83


 4239      72657061 
 4239      72655265 
 4239      63656976 
 4239      6500
 4240              	.LASF8:
 4241 097e 73686F72 		.ascii	"short int\000"
 4241      7420696E 
 4241      7400
 4242              	.LASF228:
 4243 0988 746F7473 		.ascii	"totsize\000"
 4243      697A6500 
 4244              	.LASF22:
 4245 0990 75696E74 		.ascii	"uint64_t\000"
 4245      36345F74 
 4245      00
 4246              	.LASF227:
 4247 0999 6D6F6465 		.ascii	"mode\000"
 4247      00
 4248              	.LASF263:
 4249 099e 6869645F 		.ascii	"hid_out_data\000"
 4249      6F75745F 
 4249      64617461 
 4249      00
 4250              	.LASF126:
 4251 09ab 5553425F 		.ascii	"USB_EVENT_RESET\000"
 4251      4556454E 
 4251      545F5245 
 4251      53455400 
 4252              	.LASF146:
 4253 09bb 72657376 		.ascii	"resvd14\000"
 4253      64313400 
 4254              	.LASF147:
 4255 09c3 72657376 		.ascii	"resvd18\000"
 4255      64313800 
 4256              	.LASF155:
 4257 09cb 44545846 		.ascii	"DTXFSTS\000"
 4257      53545300 
 4258              	.LASF221:
 4259 09d3 74787175 		.ascii	"txqueue\000"
 4259      65756500 
 4260              	.LASF156:
 4261 09db 72657376 		.ascii	"resvd1C\000"
 4261      64314300 
 4262              	.LASF196:
 4263 09e3 44494550 		.ascii	"DIEPMSK\000"
 4263      4D534B00 
 4264              	.LASF23:
 4265 09eb 626F6F6C 		.ascii	"bool_t\000"
 4265      5F7400
 4266              	.LASF148:
 4267 09f2 72657376 		.ascii	"resvd1c\000"
 4267      64316300 
 4268              	.LASF139:
 4269 09fa 75736272 		.ascii	"usbreqhandler_t\000"
 4269      65716861 
 4269      6E646C65 
 4269      725F7400 
ARM GAS  /tmp/ccy7WDFc.s 			page 84


 4270              	.LASF84:
 4271 0a0a 42535252 		.ascii	"BSRR\000"
 4271      00
 4272              	.LASF136:
 4273 0a0f 75736263 		.ascii	"usbcallback_t\000"
 4273      616C6C62 
 4273      61636B5F 
 4273      7400
 4274              	.LASF32:
 4275 0a1d 54687265 		.ascii	"Thread\000"
 4275      616400
 4276              	.LASF167:
 4277 0a24 47494E54 		.ascii	"GINTSTS\000"
 4277      53545300 
 4278              	.LASF88:
 4279 0a2c 4750494F 		.ascii	"GPIO_TypeDef\000"
 4279      5F547970 
 4279      65446566 
 4279      00
 4280              	.LASF152:
 4281 0a39 44494550 		.ascii	"DIEPINT\000"
 4281      494E5400 
 4282              	.LASF173:
 4283 0a41 484E5054 		.ascii	"HNPTXSTS\000"
 4283      58535453 
 4283      00
 4284              	.LASF27:
 4285 0a4a 74726566 		.ascii	"trefs_t\000"
 4285      735F7400 
 4286              	.LASF254:
 4287 0a52 6869645F 		.ascii	"hid_data_out\000"
 4287      64617461 
 4287      5F6F7574 
 4287      00
 4288              	.LASF250:
 4289 0a5f 736F665F 		.ascii	"sof_cb\000"
 4289      636200
 4290              	.LASF213:
 4291 0a66 72657376 		.ascii	"resvdE04\000"
 4291      64453034 
 4291      00
 4292              	.LASF174:
 4293 0a6f 72657376 		.ascii	"resvd30\000"
 4293      64333000 
 4294              	.LASF210:
 4295 0a77 72657376 		.ascii	"resvd8C0\000"
 4295      64384330 
 4295      00
 4296              	.LASF175:
 4297 0a80 72657376 		.ascii	"resvd34\000"
 4297      64333400 
 4298              	.LASF21:
 4299 0a88 75696E74 		.ascii	"uint32_t\000"
 4299      33325F74 
 4299      00
 4300              	.LASF111:
 4301 0a91 75736265 		.ascii	"usbep_t\000"
ARM GAS  /tmp/ccy7WDFc.s 			page 85


 4301      705F7400 
 4302              	.LASF51:
 4303 0a99 54687265 		.ascii	"ThreadsQueue\000"
 4303      61647351 
 4303      75657565 
 4303      00
 4304              	.LASF129:
 4305 0aa6 5553425F 		.ascii	"USB_EVENT_SUSPEND\000"
 4305      4556454E 
 4305      545F5355 
 4305      5350454E 
 4305      4400
 4306              	.LASF62:
 4307 0ab8 7264796D 		.ascii	"rdymsg\000"
 4307      736700
 4308              	.LASF10:
 4309 0abf 73686F72 		.ascii	"short unsigned int\000"
 4309      7420756E 
 4309      7369676E 
 4309      65642069 
 4309      6E7400
 4310              	.LASF194:
 4311 0ad2 44535453 		.ascii	"DSTS\000"
 4311      00
 4312              	.LASF248:
 4313 0ad7 6765745F 		.ascii	"get_descriptor_cb\000"
 4313      64657363 
 4313      72697074 
 4313      6F725F63 
 4313      6200
 4314              	.LASF77:
 4315 0ae9 496E7075 		.ascii	"InputQueue\000"
 4315      74517565 
 4315      756500
 4316              	.LASF96:
 4317 0af4 6F75745F 		.ascii	"out_params\000"
 4317      70617261 
 4317      6D7300
 4318              	.LASF11:
 4319 0aff 5F5F696E 		.ascii	"__int32_t\000"
 4319      7433325F 
 4319      7400
 4320              	.LASF185:
 4321 0b09 48505458 		.ascii	"HPTXSTS\000"
 4321      53545300 
 4322              	.LASF177:
 4323 0b11 72657376 		.ascii	"resvd58\000"
 4323      64353800 
 4324              	.LASF123:
 4325 0b19 5553425F 		.ascii	"USB_EP0_SENDING_STS\000"
 4325      4550305F 
 4325      53454E44 
 4325      494E475F 
 4325      53545300 
 4326              	.LASF182:
 4327 0b2d 48464952 		.ascii	"HFIR\000"
 4327      00
ARM GAS  /tmp/ccy7WDFc.s 			page 86


 4328              	.LASF121:
 4329 0b32 5553425F 		.ascii	"USB_EP0_WAITING_STS\000"
 4329      4550305F 
 4329      57414954 
 4329      494E475F 
 4329      53545300 
 4330              	.LASF39:
 4331 0b46 705F6E61 		.ascii	"p_name\000"
 4331      6D6500
 4332              	.LASF61:
 4333 0b4d 6D5F6E65 		.ascii	"m_next\000"
 4333      787400
 4334              	.LASF106:
 4335 0b54 706D6E65 		.ascii	"pmnext\000"
 4335      787400
 4336              	.LASF224:
 4337 0b5b 74787175 		.ascii	"txqueued\000"
 4337      65756564 
 4337      00
 4338              	.LASF165:
 4339 0b64 47555342 		.ascii	"GUSBCFG\000"
 4339      43464700 
 4340              	.LASF255:
 4341 0b6c 6869645F 		.ascii	"hid_recive\000"
 4341      72656369 
 4341      766500
 4342              	.LASF122:
 4343 0b77 5553425F 		.ascii	"USB_EP0_RX\000"
 4343      4550305F 
 4343      525800
 4344              	.LASF180:
 4345 0b82 72657376 		.ascii	"resvd140\000"
 4345      64313430 
 4345      00
 4346              	.LASF46:
 4347 0b8b 705F6D73 		.ascii	"p_msg\000"
 4347      6700
 4348              	.LASF40:
 4349 0b91 705F7374 		.ascii	"p_state\000"
 4349      61746500 
 4350              		.ident	"GCC: (GNU Tools for ARM Embedded Processors) 5.4.1 20160919 (release) [ARM/embedded-5-bran
ARM GAS  /tmp/ccy7WDFc.s 			page 87


DEFINED SYMBOLS
                            *ABS*:00000000 usb_hid.c
     /tmp/ccy7WDFc.s:20     .text.hid_recive:00000000 $t
     /tmp/ccy7WDFc.s:26     .text.hid_recive:00000000 hid_recive
     /tmp/ccy7WDFc.s:76     .text.hid_recive:00000024 $d
     /tmp/ccy7WDFc.s:82     .text.hid_transmit:00000000 $t
     /tmp/ccy7WDFc.s:88     .text.hid_transmit:00000000 hid_transmit
     /tmp/ccy7WDFc.s:150    .text.hid_transmit:00000038 $d
     /tmp/ccy7WDFc.s:157    .text.usb_request_hook_cb:00000000 $t
     /tmp/ccy7WDFc.s:163    .text.usb_request_hook_cb:00000000 usb_request_hook_cb
     /tmp/ccy7WDFc.s:205    .text.usb_request_hook_cb:00000028 $d
     /tmp/ccy7WDFc.s:216    .text.usb_request_hook_cb:00000054 $t
     /tmp/ccy7WDFc.s:290    .text.usb_request_hook_cb:000000b0 $d
     /tmp/ccy7WDFc.s:296    .text.hidDataTransmitted:00000000 $t
     /tmp/ccy7WDFc.s:302    .text.hidDataTransmitted:00000000 hidDataTransmitted
     /tmp/ccy7WDFc.s:329    .text.hidDataTransmitted:00000018 $d
     /tmp/ccy7WDFc.s:334    .text.hidDataReceived:00000000 $t
     /tmp/ccy7WDFc.s:340    .text.hidDataReceived:00000000 hidDataReceived
     /tmp/ccy7WDFc.s:367    .text.hidDataReceived:00000018 $d
     /tmp/ccy7WDFc.s:378    .bss.usbInitState:00000000 usbInitState
     /tmp/ccy7WDFc.s:385    .bss.hid_out_data:00000000 hid_out_data
     /tmp/ccy7WDFc.s:392    .data.hid_in_data:00000000 hid_in_data
     /tmp/ccy7WDFc.s:379    .bss.usbInitState:00000000 $d
     /tmp/ccy7WDFc.s:381    .bss.hid_out_data:00000000 $d
     /tmp/ccy7WDFc.s:388    .data.hid_in_data:00000000 $d
                     .debug_frame:00000010 $d

UNDEFINED SYMBOLS
usbPrepareReceive
usbStartReceiveI
usbPrepareTransmit
usbStartTransmitI
_pal_lld_setgroupmode
