ARM GAS  /tmp/ccy7WDFc.s 			page 1


   1              		.syntax unified
   2              		.cpu cortex-m4
   3              		.fpu softvfp
   4              		.eabi_attribute 20, 1
   5              		.eabi_attribute 21, 1
   6              		.eabi_attribute 23, 3
   7              		.eabi_attribute 24, 1
   8              		.eabi_attribute 25, 1
   9              		.eabi_attribute 26, 1
  10              		.eabi_attribute 30, 2
  11              		.eabi_attribute 34, 1
  12              		.eabi_attribute 18, 4
  13              		.thumb
  14              		.syntax unified
  15              		.file	"usb_hid.c"
  16              		.text
  17              	.Ltext0:
  18              		.cfi_sections	.debug_frame
  19              		.section	.text.hid_recive,"ax",%progbits
  20              		.align	2
  21              		.p2align 4,,15
  22              		.global	hid_recive
  23              		.thumb
  24              		.thumb_func
  25              		.type	hid_recive, %function
  26              	hid_recive:
  27              	.LFB118:
  28              		.file 1 "usb_hid.c"
  29              		.loc 1 38 0
  30              		.cfi_startproc
  31              		@ args = 0, pretend = 0, frame = 0
  32              		@ frame_needed = 0, uses_anonymous_args = 0
  33              	.LVL0:
  34 0000 10B5     		push	{r4, lr}
  35              		.cfi_def_cfa_offset 8
  36              		.cfi_offset 4, -8
  37              		.cfi_offset 14, -4
  38              		.loc 1 39 0
  39 0002 0123     		movs	r3, #1
  40 0004 074A     		ldr	r2, .L3
  41 0006 0221     		movs	r1, #2
  42              		.loc 1 38 0
  43 0008 0446     		mov	r4, r0
  44              		.loc 1 39 0
  45 000a FFF7FEFF 		bl	usbPrepareReceive
  46              	.LVL1:
  47              	.LBB2:
  48              		.loc 1 40 0
  49 000e 2023     		movs	r3, #32
  50              		.syntax unified
  51              	@ 40 "usb_hid.c" 1
  52 0010 83F31188 		msr     BASEPRI, r3
  53              	@ 0 "" 2
  54              		.thumb
  55              		.syntax unified
  56              	.LBE2:
  57              		.loc 1 41 0
ARM GAS  /tmp/ccy7WDFc.s 			page 2


  58 0014 0221     		movs	r1, #2
  59 0016 2046     		mov	r0, r4
  60 0018 FFF7FEFF 		bl	usbStartReceiveI
  61              	.LVL2:
  62              	.LBB3:
  63              		.loc 1 42 0
  64 001c 0023     		movs	r3, #0
  65              		.syntax unified
  66              	@ 42 "usb_hid.c" 1
  67 001e 83F31188 		msr     BASEPRI, r3
  68              	@ 0 "" 2
  69              		.thumb
  70              		.syntax unified
  71 0022 10BD     		pop	{r4, pc}
  72              	.LVL3:
  73              	.L4:
  74              		.align	2
  75              	.L3:
  76 0024 00000000 		.word	.LANCHOR0
  77              	.LBE3:
  78              		.cfi_endproc
  79              	.LFE118:
  80              		.size	hid_recive, .-hid_recive
  81              		.section	.text.hid_transmit,"ax",%progbits
  82              		.align	2
  83              		.p2align 4,,15
  84              		.global	hid_transmit
  85              		.thumb
  86              		.thumb_func
  87              		.type	hid_transmit, %function
  88              	hid_transmit:
  89              	.LFB119:
  90              		.loc 1 45 0
  91              		.cfi_startproc
  92              		@ args = 0, pretend = 0, frame = 0
  93              		@ frame_needed = 0, uses_anonymous_args = 0
  94              	.LVL4:
  95 0000 38B5     		push	{r3, r4, r5, lr}
  96              		.cfi_def_cfa_offset 16
  97              		.cfi_offset 3, -16
  98              		.cfi_offset 4, -12
  99              		.cfi_offset 5, -8
 100              		.cfi_offset 14, -4
 101              		.loc 1 46 0
 102 0002 0D4A     		ldr	r2, .L7
 103 0004 1423     		movs	r3, #20
 104 0006 0121     		movs	r1, #1
 105              		.loc 1 45 0
 106 0008 0546     		mov	r5, r0
 107              		.loc 1 46 0
 108 000a FFF7FEFF 		bl	usbPrepareTransmit
 109              	.LVL5:
 110              	.LBB4:
 111              		.loc 1 47 0
 112 000e 2023     		movs	r3, #32
 113              		.syntax unified
 114              	@ 47 "usb_hid.c" 1
ARM GAS  /tmp/ccy7WDFc.s 			page 3


 115 0010 83F31188 		msr     BASEPRI, r3
 116              	@ 0 "" 2
 117              		.thumb
 118              		.syntax unified
 119              	.LBE4:
 120              		.loc 1 49 0
 121 0014 094C     		ldr	r4, .L7+4
 122              		.loc 1 48 0
 123 0016 2846     		mov	r0, r5
 124 0018 0121     		movs	r1, #1
 125 001a FFF7FEFF 		bl	usbStartTransmitI
 126              	.LVL6:
 127              		.loc 1 49 0
 128 001e 2046     		mov	r0, r4
 129 0020 0122     		movs	r2, #1
 130 0022 4FF48041 		mov	r1, #16384
 131 0026 FFF7FEFF 		bl	_pal_lld_setgroupmode
 132              	.LVL7:
 133              		.loc 1 50 0
 134 002a 4FF48043 		mov	r3, #16384
 135 002e 6383     		strh	r3, [r4, #26]	@ movhi
 136              	.LBB5:
 137              		.loc 1 51 0
 138 0030 0023     		movs	r3, #0
 139              		.syntax unified
 140              	@ 51 "usb_hid.c" 1
 141 0032 83F31188 		msr     BASEPRI, r3
 142              	@ 0 "" 2
 143              		.thumb
 144              		.syntax unified
 145 0036 38BD     		pop	{r3, r4, r5, pc}
 146              	.LVL8:
 147              	.L8:
 148              		.align	2
 149              	.L7:
 150 0038 00000000 		.word	.LANCHOR1
 151 003c 000C0240 		.word	1073875968
 152              	.LBE5:
 153              		.cfi_endproc
 154              	.LFE119:
 155              		.size	hid_transmit, .-hid_transmit
 156              		.section	.text.usb_request_hook_cb,"ax",%progbits
 157              		.align	2
 158              		.p2align 4,,15
 159              		.global	usb_request_hook_cb
 160              		.thumb
 161              		.thumb_func
 162              		.type	usb_request_hook_cb, %function
 163              	usb_request_hook_cb:
 164              	.LFB120:
 165              		.loc 1 56 0
 166              		.cfi_startproc
 167              		@ args = 0, pretend = 0, frame = 0
 168              		@ frame_needed = 0, uses_anonymous_args = 0
 169              	.LVL9:
 170 0000 F8B5     		push	{r3, r4, r5, r6, r7, lr}
 171              		.cfi_def_cfa_offset 24
ARM GAS  /tmp/ccy7WDFc.s 			page 4


 172              		.cfi_offset 3, -24
 173              		.cfi_offset 4, -20
 174              		.cfi_offset 5, -16
 175              		.cfi_offset 6, -12
 176              		.cfi_offset 7, -8
 177              		.cfi_offset 14, -4
 178 0002 90F84440 		ldrb	r4, [r0, #68]	@ zero_extendqisi2
 179 0006 04F07F04 		and	r4, r4, #127
 180              		.loc 1 59 0
 181 000a 012C     		cmp	r4, #1
 182              		.loc 1 56 0
 183 000c 0346     		mov	r3, r0
 184              		.loc 1 59 0
 185 000e 21D0     		beq	.L26
 186              		.loc 1 75 0
 187 0010 212C     		cmp	r4, #33
 188 0012 01D0     		beq	.L27
 189              	.LVL10:
 190              	.L23:
 191              		.loc 1 71 0
 192 0014 0020     		movs	r0, #0
 193 0016 F8BD     		pop	{r3, r4, r5, r6, r7, pc}
 194              	.LVL11:
 195              	.L27:
 196              		.loc 1 77 0
 197 0018 90F84520 		ldrb	r2, [r0, #69]	@ zero_extendqisi2
 198 001c 013A     		subs	r2, r2, #1
 199 001e 0A2A     		cmp	r2, #10
 200 0020 F8D8     		bhi	.L23
 201 0022 01A1     		adr	r1, .L17
 202 0024 51F822F0 		ldr	pc, [r1, r2, lsl #2]
 203              		.p2align 2
 204              	.L17:
 205 0028 9D000000 		.word	.L16+1
 206 002c 8D000000 		.word	.L20+1
 207 0030 99000000 		.word	.L22+1
 208 0034 15000000 		.word	.L23+1
 209 0038 15000000 		.word	.L23+1
 210 003c 15000000 		.word	.L23+1
 211 0040 15000000 		.word	.L23+1
 212 0044 15000000 		.word	.L23+1
 213 0048 8D000000 		.word	.L20+1
 214 004c 8D000000 		.word	.L20+1
 215 0050 99000000 		.word	.L22+1
 216              		.p2align 1
 217              	.L26:
 218              		.loc 1 61 0
 219 0054 90F84520 		ldrb	r2, [r0, #69]	@ zero_extendqisi2
 220 0058 062A     		cmp	r2, #6
 221 005a DBD1     		bne	.L23
 222              		.loc 1 63 0
 223 005c 4168     		ldr	r1, [r0, #4]
 224 005e 90F84970 		ldrb	r7, [r0, #73]	@ zero_extendqisi2
 225 0062 90F84830 		ldrb	r3, [r0, #72]	@ zero_extendqisi2
 226 0066 4E68     		ldr	r6, [r1, #4]
 227 0068 90F84620 		ldrb	r2, [r0, #70]	@ zero_extendqisi2
 228 006c 90F84710 		ldrb	r1, [r0, #71]	@ zero_extendqisi2
ARM GAS  /tmp/ccy7WDFc.s 			page 5


 229 0070 43EA0723 		orr	r3, r3, r7, lsl #8
 230 0074 0546     		mov	r5, r0
 231 0076 B047     		blx	r6
 232              	.LVL12:
 233              		.loc 1 66 0
 234 0078 0028     		cmp	r0, #0
 235 007a CBD0     		beq	.L23
 236              		.loc 1 68 0
 237 007c 90E80C00 		ldmia	r0, {r2, r3}
 238 0080 AB63     		str	r3, [r5, #56]
 239 0082 0023     		movs	r3, #0
 240              		.loc 1 69 0
 241 0084 2046     		mov	r0, r4
 242              	.LVL13:
 243              		.loc 1 68 0
 244 0086 EA63     		str	r2, [r5, #60]
 245 0088 2B64     		str	r3, [r5, #64]
 246              		.loc 1 69 0
 247 008a F8BD     		pop	{r3, r4, r5, r6, r7, pc}
 248              	.LVL14:
 249              	.L20:
 250              		.loc 1 97 0
 251 008c 0022     		movs	r2, #0
 252 008e 8263     		str	r2, [r0, #56]
 253 0090 C263     		str	r2, [r0, #60]
 254 0092 0264     		str	r2, [r0, #64]
 255              		.loc 1 98 0
 256 0094 0120     		movs	r0, #1
 257              	.LVL15:
 258 0096 F8BD     		pop	{r3, r4, r5, r6, r7, pc}
 259              	.LVL16:
 260              	.L22:
 261              		.loc 1 92 0
 262 0098 0120     		movs	r0, #1
 263              	.LVL17:
 264              		.loc 1 106 0
 265 009a F8BD     		pop	{r3, r4, r5, r6, r7, pc}
 266              	.LVL18:
 267              	.L16:
 268              		.loc 1 86 0
 269 009c 044C     		ldr	r4, .L28
 270              		.loc 1 85 0
 271 009e 054A     		ldr	r2, .L28+4
 272 00a0 8263     		str	r2, [r0, #56]
 273              		.loc 1 86 0
 274 00a2 0120     		movs	r0, #1
 275              	.LVL19:
 276              		.loc 1 85 0
 277 00a4 1421     		movs	r1, #20
 278 00a6 0022     		movs	r2, #0
 279              		.loc 1 86 0
 280 00a8 2070     		strb	r0, [r4]
 281              		.loc 1 85 0
 282 00aa D963     		str	r1, [r3, #60]
 283 00ac 1A64     		str	r2, [r3, #64]
 284              		.loc 1 87 0
 285 00ae F8BD     		pop	{r3, r4, r5, r6, r7, pc}
ARM GAS  /tmp/ccy7WDFc.s 			page 6


 286              	.LVL20:
 287              	.L29:
 288              		.align	2
 289              	.L28:
 290 00b0 00000000 		.word	.LANCHOR2
 291 00b4 00000000 		.word	.LANCHOR1
 292              		.cfi_endproc
 293              	.LFE120:
 294              		.size	usb_request_hook_cb, .-usb_request_hook_cb
 295              		.section	.text.hidDataTransmitted,"ax",%progbits
 296              		.align	2
 297              		.p2align 4,,15
 298              		.global	hidDataTransmitted
 299              		.thumb
 300              		.thumb_func
 301              		.type	hidDataTransmitted, %function
 302              	hidDataTransmitted:
 303              	.LFB121:
 304              		.loc 1 111 0
 305              		.cfi_startproc
 306              		@ args = 0, pretend = 0, frame = 0
 307              		@ frame_needed = 0, uses_anonymous_args = 0
 308              	.LVL21:
 309 0000 10B5     		push	{r4, lr}
 310              		.cfi_def_cfa_offset 8
 311              		.cfi_offset 4, -8
 312              		.cfi_offset 14, -4
 313              		.loc 1 114 0
 314 0002 054C     		ldr	r4, .L32
 315 0004 0122     		movs	r2, #1
 316 0006 2046     		mov	r0, r4
 317              	.LVL22:
 318 0008 4FF48041 		mov	r1, #16384
 319              	.LVL23:
 320 000c FFF7FEFF 		bl	_pal_lld_setgroupmode
 321              	.LVL24:
 322              		.loc 1 115 0
 323 0010 4FF48043 		mov	r3, #16384
 324 0014 2383     		strh	r3, [r4, #24]	@ movhi
 325 0016 10BD     		pop	{r4, pc}
 326              	.L33:
 327              		.align	2
 328              	.L32:
 329 0018 000C0240 		.word	1073875968
 330              		.cfi_endproc
 331              	.LFE121:
 332              		.size	hidDataTransmitted, .-hidDataTransmitted
 333              		.section	.text.hidDataReceived,"ax",%progbits
 334              		.align	2
 335              		.p2align 4,,15
 336              		.global	hidDataReceived
 337              		.thumb
 338              		.thumb_func
 339              		.type	hidDataReceived, %function
 340              	hidDataReceived:
 341              	.LFB122:
 342              		.loc 1 121 0
ARM GAS  /tmp/ccy7WDFc.s 			page 7


 343              		.cfi_startproc
 344              		@ args = 0, pretend = 0, frame = 0
 345              		@ frame_needed = 0, uses_anonymous_args = 0
 346              	.LVL25:
 347 0000 10B5     		push	{r4, lr}
 348              		.cfi_def_cfa_offset 8
 349              		.cfi_offset 4, -8
 350              		.cfi_offset 14, -4
 351              		.loc 1 124 0
 352 0002 054C     		ldr	r4, .L36
 353 0004 0122     		movs	r2, #1
 354 0006 2046     		mov	r0, r4
 355              	.LVL26:
 356 0008 4FF40041 		mov	r1, #32768
 357              	.LVL27:
 358 000c FFF7FEFF 		bl	_pal_lld_setgroupmode
 359              	.LVL28:
 360              		.loc 1 125 0
 361 0010 4FF40043 		mov	r3, #32768
 362 0014 2383     		strh	r3, [r4, #24]	@ movhi
 363 0016 10BD     		pop	{r4, pc}
 364              	.L37:
 365              		.align	2
 366              	.L36:
 367 0018 000C0240 		.word	1073875968
 368              		.cfi_endproc
 369              	.LFE122:
 370              		.size	hidDataReceived, .-hidDataReceived
 371              		.global	usbInitState
 372              		.global	hid_out_data
 373              		.global	hid_in_data
 374              		.section	.bss.usbInitState,"aw",%nobits
 375              		.set	.LANCHOR2,. + 0
 376              		.type	usbInitState, %object
 377              		.size	usbInitState, 1
 378              	usbInitState:
 379 0000 00       		.space	1
 380              		.section	.bss.hid_out_data,"aw",%nobits
 381              		.align	2
 382              		.set	.LANCHOR0,. + 0
 383              		.type	hid_out_data, %object
 384              		.size	hid_out_data, 1
 385              	hid_out_data:
 386 0000 00       		.space	1
 387              		.section	.data.hid_in_data,"aw",%progbits
 388              		.align	2
 389              		.set	.LANCHOR1,. + 0
 390              		.type	hid_in_data, %object
 391              		.size	hid_in_data, 20
 392              	hid_in_data:
 393 0000 00       		.byte	0
 394 0001 14       		.byte	20
 395 0002 00       		.byte	0
 396 0003 00       		.byte	0
 397 0004 00       		.byte	0
 398 0005 00       		.byte	0
 399 0006 0000     		.short	0
ARM GAS  /tmp/ccy7WDFc.s 			page 8


 400 0008 0000     		.short	0
 401 000a 0000     		.short	0
 402 000c 0000     		.short	0
 403 000e 00       		.byte	0
 404 000f 00       		.byte	0
 405 0010 00       		.byte	0
 406 0011 00       		.byte	0
 407 0012 00       		.byte	0
 408 0013 00       		.byte	0
 409              		.text
 410              	.Letext0:
 411              		.file 2 "/usr/local/gcc-arm-none-eabi-5_4-2016q3/lib/gcc/arm-none-eabi/5.4.1/include/stddef.h"
 412              		.file 3 "/usr/local/gcc-arm-none-eabi-5_4-2016q3/arm-none-eabi/include/machine/_default_types.h"
 413              		.file 4 "/usr/local/gcc-arm-none-eabi-5_4-2016q3/arm-none-eabi/include/sys/_stdint.h"
 414              		.file 5 "../ChibiOS_2.6.9/os/ports/GCC/ARMCMx/chtypes.h"
 415              		.file 6 "../ChibiOS_2.6.9/os/kernel/include/chlists.h"
 416              		.file 7 "../ChibiOS_2.6.9/os/kernel/include/chthreads.h"
 417              		.file 8 "../ChibiOS_2.6.9/os/ports/GCC/ARMCMx/chcore_v7m.h"
 418              		.file 9 "../ChibiOS_2.6.9/os/kernel/include/chmtx.h"
 419              		.file 10 "../ChibiOS_2.6.9/os/kernel/include/chqueues.h"
 420              		.file 11 "../ChibiOS_2.6.9/os/hal/platforms/STM32/GPIOv2/pal_lld.h"
 421              		.file 12 "../ChibiOS_2.6.9/os/hal/include/usb.h"
 422              		.file 13 "../ChibiOS_2.6.9/os/hal/platforms/STM32/OTGv1/usb_lld.h"
 423              		.file 14 "../ChibiOS_2.6.9/os/hal/platforms/STM32/OTGv1/stm32_otg.h"
 424              		.file 15 "usb_hid.h"
 425              		.file 16 "../ChibiOS_2.6.9/os/ports/common/ARMCMx/CMSIS/include/core_cm4.h"