ARM GAS  /tmp/ccVu9HYc.s 			page 1


   1              		.syntax unified
   2              		.cpu cortex-m4
   3              		.fpu softvfp
   4              		.eabi_attribute 20, 1
   5              		.eabi_attribute 21, 1
   6              		.eabi_attribute 23, 3
   7              		.eabi_attribute 24, 1
   8              		.eabi_attribute 25, 1
   9              		.eabi_attribute 26, 1
  10              		.eabi_attribute 30, 2
  11              		.eabi_attribute 34, 1
  12              		.eabi_attribute 18, 4
  13              		.thumb
  14              		.syntax unified
  15              		.file	"usbcfg.c"
  16              		.text
  17              	.Ltext0:
  18              		.cfi_sections	.debug_frame
  19              		.section	.text.usb_get_descriptor_cb,"ax",%progbits
  20              		.align	2
  21              		.p2align 4,,15
  22              		.thumb
  23              		.thumb_func
  24              		.type	usb_get_descriptor_cb, %function
  25              	usb_get_descriptor_cb:
  26              	.LFB118:
  27              		.file 1 "usbcfg.c"
  28              		.loc 1 301 0
  29              		.cfi_startproc
  30              		@ args = 0, pretend = 0, frame = 0
  31              		@ frame_needed = 0, uses_anonymous_args = 0
  32              		@ link register save eliminated.
  33              	.LVL0:
  34              		.loc 1 305 0
  35 0000 0139     		subs	r1, r1, #1
  36              	.LVL1:
  37 0002 2129     		cmp	r1, #33
  38 0004 1ED8     		bhi	.L9
  39 0006 DFE801F0 		tbb	[pc, r1]
  40              	.LVL2:
  41              	.L4:
  42 000a 11       		.byte	(.L8-.L4)/2
  43 000b 1B       		.byte	(.L5-.L4)/2
  44 000c 15       		.byte	(.L6-.L4)/2
  45 000d 1D       		.byte	(.L9-.L4)/2
  46 000e 1D       		.byte	(.L9-.L4)/2
  47 000f 1D       		.byte	(.L9-.L4)/2
  48 0010 1D       		.byte	(.L9-.L4)/2
  49 0011 1D       		.byte	(.L9-.L4)/2
  50 0012 1D       		.byte	(.L9-.L4)/2
  51 0013 1D       		.byte	(.L9-.L4)/2
  52 0014 1D       		.byte	(.L9-.L4)/2
  53 0015 1D       		.byte	(.L9-.L4)/2
  54 0016 1D       		.byte	(.L9-.L4)/2
  55 0017 1D       		.byte	(.L9-.L4)/2
  56 0018 1D       		.byte	(.L9-.L4)/2
  57 0019 1D       		.byte	(.L9-.L4)/2
ARM GAS  /tmp/ccVu9HYc.s 			page 2


  58 001a 1D       		.byte	(.L9-.L4)/2
  59 001b 1D       		.byte	(.L9-.L4)/2
  60 001c 1D       		.byte	(.L9-.L4)/2
  61 001d 1D       		.byte	(.L9-.L4)/2
  62 001e 1D       		.byte	(.L9-.L4)/2
  63 001f 1D       		.byte	(.L9-.L4)/2
  64 0020 1D       		.byte	(.L9-.L4)/2
  65 0021 1D       		.byte	(.L9-.L4)/2
  66 0022 1D       		.byte	(.L9-.L4)/2
  67 0023 1D       		.byte	(.L9-.L4)/2
  68 0024 1D       		.byte	(.L9-.L4)/2
  69 0025 1D       		.byte	(.L9-.L4)/2
  70 0026 1D       		.byte	(.L9-.L4)/2
  71 0027 1D       		.byte	(.L9-.L4)/2
  72 0028 1D       		.byte	(.L9-.L4)/2
  73 0029 1D       		.byte	(.L9-.L4)/2
  74 002a 1D       		.byte	(.L9-.L4)/2
  75 002b 13       		.byte	(.L7-.L4)/2
  76              		.p2align 1
  77              	.L8:
  78              		.loc 1 307 0
  79 002c 0648     		ldr	r0, .L11
  80              	.LVL3:
  81 002e 7047     		bx	lr
  82              	.LVL4:
  83              	.L7:
  84              		.loc 1 313 0
  85 0030 0648     		ldr	r0, .L11+4
  86              	.LVL5:
  87 0032 7047     		bx	lr
  88              	.LVL6:
  89              	.L6:
  90              		.loc 1 315 0
  91 0034 042A     		cmp	r2, #4
  92 0036 05D8     		bhi	.L9
  93              		.loc 1 316 0
  94 0038 054B     		ldr	r3, .L11+8
  95 003a 03EBC200 		add	r0, r3, r2, lsl #3
  96              	.LVL7:
  97 003e 7047     		bx	lr
  98              	.LVL8:
  99              	.L5:
 100              		.loc 1 309 0
 101 0040 0448     		ldr	r0, .L11+12
 102              	.LVL9:
 103 0042 7047     		bx	lr
 104              	.LVL10:
 105              	.L9:
 106              		.loc 1 318 0
 107 0044 0020     		movs	r0, #0
 108              	.LVL11:
 109              		.loc 1 319 0
 110 0046 7047     		bx	lr
 111              	.L12:
 112              		.align	2
 113              	.L11:
 114 0048 00000000 		.word	.LANCHOR0
ARM GAS  /tmp/ccVu9HYc.s 			page 3


 115 004c 00000000 		.word	.LANCHOR2
 116 0050 00000000 		.word	.LANCHOR3
 117 0054 00000000 		.word	.LANCHOR1
 118              		.cfi_endproc
 119              	.LFE118:
 120              		.size	usb_get_descriptor_cb, .-usb_get_descriptor_cb
 121              		.section	.text.usb_event,"ax",%progbits
 122              		.align	2
 123              		.p2align 4,,15
 124              		.thumb
 125              		.thumb_func
 126              		.type	usb_event, %function
 127              	usb_event:
 128              	.LFB119:
 129              		.loc 1 377 0
 130              		.cfi_startproc
 131              		@ args = 0, pretend = 0, frame = 0
 132              		@ frame_needed = 0, uses_anonymous_args = 0
 133              	.LVL12:
 134              		.loc 1 378 0
 135 0000 0229     		cmp	r1, #2
 136 0002 12D1     		bne	.L17
 137              		.loc 1 377 0
 138 0004 38B5     		push	{r3, r4, r5, lr}
 139              		.cfi_def_cfa_offset 16
 140              		.cfi_offset 3, -16
 141              		.cfi_offset 4, -12
 142              		.cfi_offset 5, -8
 143              		.cfi_offset 14, -4
 144 0006 0546     		mov	r5, r0
 145 0008 0C46     		mov	r4, r1
 146              	.LVL13:
 147              	.LBB8:
 148              	.LBB9:
 149              	.LBB10:
 150              		.loc 1 384 0
 151 000a 2023     		movs	r3, #32
 152              		.syntax unified
 153              	@ 384 "usbcfg.c" 1
 154 000c 83F31188 		msr     BASEPRI, r3
 155              	@ 0 "" 2
 156              		.thumb
 157              		.syntax unified
 158              	.LBE10:
 159              		.loc 1 385 0
 160 0010 064A     		ldr	r2, .L18
 161 0012 0121     		movs	r1, #1
 162              	.LVL14:
 163 0014 FFF7FEFF 		bl	usbInitEndpointI
 164              	.LVL15:
 165              		.loc 1 386 0
 166 0018 2146     		mov	r1, r4
 167 001a 2846     		mov	r0, r5
 168 001c 044A     		ldr	r2, .L18+4
 169 001e FFF7FEFF 		bl	usbInitEndpointI
 170              	.LVL16:
 171              	.LBB11:
ARM GAS  /tmp/ccVu9HYc.s 			page 4


 172              		.loc 1 387 0
 173 0022 0023     		movs	r3, #0
 174              		.syntax unified
 175              	@ 387 "usbcfg.c" 1
 176 0024 83F31188 		msr     BASEPRI, r3
 177              	@ 0 "" 2
 178              		.thumb
 179              		.syntax unified
 180 0028 38BD     		pop	{r3, r4, r5, pc}
 181              	.LVL17:
 182              	.L17:
 183              		.cfi_def_cfa_offset 0
 184              		.cfi_restore 3
 185              		.cfi_restore 4
 186              		.cfi_restore 5
 187              		.cfi_restore 14
 188 002a 7047     		bx	lr
 189              	.L19:
 190              		.align	2
 191              	.L18:
 192 002c 00000000 		.word	.LANCHOR4
 193 0030 00000000 		.word	.LANCHOR5
 194              	.LBE11:
 195              	.LBE9:
 196              	.LBE8:
 197              		.cfi_endproc
 198              	.LFE119:
 199              		.size	usb_event, .-usb_event
 200              		.global	usbcfg
 201              		.section	.rodata.ep1config,"a",%progbits
 202              		.align	2
 203              		.set	.LANCHOR4,. + 0
 204              		.type	ep1config, %object
 205              		.size	ep1config, 36
 206              	ep1config:
 207 0000 03000000 		.word	3
 208 0004 00000000 		.word	0
 209 0008 00000000 		.word	hidDataTransmitted
 210 000c 00000000 		.word	0
 211 0010 1400     		.short	20
 212 0012 0000     		.short	0
 213 0014 00000000 		.word	ep1instate
 214 0018 00000000 		.word	0
 215 001c 0100     		.short	1
 216 001e 0000     		.space	2
 217 0020 00000000 		.word	0
 218              		.section	.rodata.hid_configuration_descriptor_data,"a",%progbits
 219              		.align	2
 220              		.type	hid_configuration_descriptor_data, %object
 221              		.size	hid_configuration_descriptor_data, 153
 222              	hid_configuration_descriptor_data:
 223 0000 09       		.byte	9
 224 0001 02       		.byte	2
 225 0002 99       		.byte	-103
 226 0003 00       		.byte	0
 227 0004 04       		.byte	4
 228 0005 01       		.byte	1
ARM GAS  /tmp/ccVu9HYc.s 			page 5


 229 0006 00       		.byte	0
 230 0007 A0       		.byte	-96
 231 0008 FA       		.byte	-6
 232 0009 09       		.byte	9
 233 000a 04       		.byte	4
 234 000b 00       		.byte	0
 235 000c 00       		.byte	0
 236 000d 02       		.byte	2
 237 000e FF       		.byte	-1
 238 000f 5D       		.byte	93
 239 0010 01       		.byte	1
 240 0011 00       		.byte	0
 241 0012 11       		.byte	17
 242 0013 21       		.byte	33
 243 0014 00       		.byte	0
 244 0015 01       		.byte	1
 245 0016 01       		.byte	1
 246 0017 25       		.byte	37
 247 0018 81       		.byte	-127
 248 0019 14       		.byte	20
 249 001a 00       		.byte	0
 250 001b 00       		.byte	0
 251 001c 00       		.byte	0
 252 001d 00       		.byte	0
 253 001e 13       		.byte	19
 254 001f 01       		.byte	1
 255 0020 08       		.byte	8
 256 0021 00       		.byte	0
 257 0022 00       		.byte	0
 258 0023 07       		.byte	7
 259 0024 05       		.byte	5
 260 0025 81       		.byte	-127
 261 0026 03       		.byte	3
 262 0027 20       		.byte	32
 263 0028 00       		.byte	0
 264 0029 04       		.byte	4
 265 002a 07       		.byte	7
 266 002b 05       		.byte	5
 267 002c 01       		.byte	1
 268 002d 03       		.byte	3
 269 002e 20       		.byte	32
 270 002f 00       		.byte	0
 271 0030 08       		.byte	8
 272 0031 09       		.byte	9
 273 0032 04       		.byte	4
 274 0033 01       		.byte	1
 275 0034 00       		.byte	0
 276 0035 04       		.byte	4
 277 0036 FF       		.byte	-1
 278 0037 5D       		.byte	93
 279 0038 03       		.byte	3
 280 0039 00       		.byte	0
 281 003a 1B       		.byte	27
 282 003b 21       		.byte	33
 283 003c 00       		.byte	0
 284 003d 01       		.byte	1
 285 003e 01       		.byte	1
ARM GAS  /tmp/ccVu9HYc.s 			page 6


 286 003f 01       		.byte	1
 287 0040 82       		.byte	-126
 288 0041 40       		.byte	64
 289 0042 01       		.byte	1
 290 0043 02       		.byte	2
 291 0044 20       		.byte	32
 292 0045 16       		.byte	22
 293 0046 83       		.byte	-125
 294 0047 00       		.byte	0
 295 0048 00       		.byte	0
 296 0049 00       		.byte	0
 297 004a 00       		.byte	0
 298 004b 00       		.byte	0
 299 004c 00       		.byte	0
 300 004d 16       		.byte	22
 301 004e 03       		.byte	3
 302 004f 00       		.byte	0
 303 0050 00       		.byte	0
 304 0051 00       		.byte	0
 305 0052 00       		.byte	0
 306 0053 00       		.byte	0
 307 0054 00       		.byte	0
 308 0055 07       		.byte	7
 309 0056 05       		.byte	5
 310 0057 82       		.byte	-126
 311 0058 03       		.byte	3
 312 0059 20       		.byte	32
 313 005a 00       		.byte	0
 314 005b 02       		.byte	2
 315 005c 07       		.byte	7
 316 005d 05       		.byte	5
 317 005e 02       		.byte	2
 318 005f 03       		.byte	3
 319 0060 20       		.byte	32
 320 0061 00       		.byte	0
 321 0062 04       		.byte	4
 322 0063 07       		.byte	7
 323 0064 05       		.byte	5
 324 0065 83       		.byte	-125
 325 0066 03       		.byte	3
 326 0067 20       		.byte	32
 327 0068 00       		.byte	0
 328 0069 40       		.byte	64
 329 006a 07       		.byte	7
 330 006b 05       		.byte	5
 331 006c 03       		.byte	3
 332 006d 03       		.byte	3
 333 006e 20       		.byte	32
 334 006f 00       		.byte	0
 335 0070 10       		.byte	16
 336 0071 09       		.byte	9
 337 0072 04       		.byte	4
 338 0073 02       		.byte	2
 339 0074 00       		.byte	0
 340 0075 01       		.byte	1
 341 0076 FF       		.byte	-1
 342 0077 5D       		.byte	93
ARM GAS  /tmp/ccVu9HYc.s 			page 7


 343 0078 02       		.byte	2
 344 0079 00       		.byte	0
 345 007a 09       		.byte	9
 346 007b 21       		.byte	33
 347 007c 11       		.byte	17
 348 007d 01       		.byte	1
 349 007e 00       		.byte	0
 350 007f 01       		.byte	1
 351 0080 22       		.byte	34
 352 0081 2A       		.byte	42
 353 0082 00       		.byte	0
 354 0083 07       		.byte	7
 355 0084 05       		.byte	5
 356 0085 84       		.byte	-124
 357 0086 03       		.byte	3
 358 0087 20       		.byte	32
 359 0088 00       		.byte	0
 360 0089 10       		.byte	16
 361 008a 09       		.byte	9
 362 008b 04       		.byte	4
 363 008c 03       		.byte	3
 364 008d 00       		.byte	0
 365 008e 00       		.byte	0
 366 008f FF       		.byte	-1
 367 0090 FD       		.byte	-3
 368 0091 13       		.byte	19
 369 0092 04       		.byte	4
 370 0093 06       		.byte	6
 371 0094 41       		.byte	65
 372 0095 00       		.byte	0
 373 0096 01       		.byte	1
 374 0097 01       		.byte	1
 375 0098 03       		.byte	3
 376              		.section	.bss.ep1instate,"aw",%nobits
 377              		.align	2
 378              		.type	ep1instate, %object
 379              		.size	ep1instate, 20
 380              	ep1instate:
 381 0000 00000000 		.space	20
 381      00000000 
 381      00000000 
 381      00000000 
 381      00000000 
 382              		.section	.rodata.hid_string0,"a",%progbits
 383              		.align	2
 384              		.type	hid_string0, %object
 385              		.size	hid_string0, 4
 386              	hid_string0:
 387 0000 04       		.byte	4
 388 0001 03       		.byte	3
 389 0002 09       		.byte	9
 390 0003 04       		.byte	4
 391              		.section	.rodata.hid_device_descriptor,"a",%progbits
 392              		.align	2
 393              		.set	.LANCHOR0,. + 0
 394              		.type	hid_device_descriptor, %object
 395              		.size	hid_device_descriptor, 8
ARM GAS  /tmp/ccVu9HYc.s 			page 8


 396              	hid_device_descriptor:
 397 0000 12000000 		.word	18
 398 0004 00000000 		.word	hid_device_descriptor_data
 399              		.section	.rodata.ep2config,"a",%progbits
 400              		.align	2
 401              		.set	.LANCHOR5,. + 0
 402              		.type	ep2config, %object
 403              		.size	ep2config, 36
 404              	ep2config:
 405 0000 03000000 		.word	3
 406 0004 00000000 		.word	0
 407 0008 00000000 		.word	0
 408 000c 00000000 		.word	hidDataReceived
 409 0010 0000     		.short	0
 410 0012 0000     		.short	0
 411 0014 00000000 		.word	0
 412 0018 00000000 		.word	ep2outstate
 413 001c 0100     		.short	1
 414 001e 0000     		.space	2
 415 0020 00000000 		.word	0
 416              		.section	.rodata.hid_string3,"a",%progbits
 417              		.align	2
 418              		.type	hid_string3, %object
 419              		.size	hid_string3, 16
 420              	hid_string3:
 421 0000 10       		.byte	16
 422 0001 03       		.byte	3
 423 0002 31       		.byte	49
 424 0003 00       		.byte	0
 425 0004 31       		.byte	49
 426 0005 00       		.byte	0
 427 0006 37       		.byte	55
 428 0007 00       		.byte	0
 429 0008 42       		.byte	66
 430 0009 00       		.byte	0
 431 000a 38       		.byte	56
 432 000b 00       		.byte	0
 433 000c 35       		.byte	53
 434 000d 00       		.byte	0
 435 000e 34       		.byte	52
 436 000f 00       		.byte	0
 437              		.section	.rodata.hid_string4,"a",%progbits
 438              		.align	2
 439              		.type	hid_string4, %object
 440              		.size	hid_string4, 16
 441              	hid_string4:
 442 0000 10       		.byte	16
 443 0001 03       		.byte	3
 444 0002 55       		.byte	85
 445 0003 00       		.byte	0
 446 0004 53       		.byte	83
 447 0005 00       		.byte	0
 448 0006 42       		.byte	66
 449 0007 00       		.byte	0
 450 0008 20       		.byte	32
 451 0009 00       		.byte	0
 452 000a 48       		.byte	72
ARM GAS  /tmp/ccVu9HYc.s 			page 9


 453 000b 00       		.byte	0
 454 000c 49       		.byte	73
 455 000d 00       		.byte	0
 456 000e 44       		.byte	68
 457 000f 00       		.byte	0
 458              		.section	.rodata.hid_strings,"a",%progbits
 459              		.align	2
 460              		.set	.LANCHOR3,. + 0
 461              		.type	hid_strings, %object
 462              		.size	hid_strings, 40
 463              	hid_strings:
 464 0000 04000000 		.word	4
 465 0004 00000000 		.word	hid_string0
 466 0008 2E000000 		.word	46
 467 000c 00000000 		.word	hid_string1
 468 0010 16000000 		.word	22
 469 0014 00000000 		.word	hid_string2
 470 0018 10000000 		.word	16
 471 001c 00000000 		.word	hid_string3
 472 0020 10000000 		.word	16
 473 0024 00000000 		.word	hid_string4
 474              		.section	.rodata.hid_string2,"a",%progbits
 475              		.align	2
 476              		.type	hid_string2, %object
 477              		.size	hid_string2, 22
 478              	hid_string2:
 479 0000 16       		.byte	22
 480 0001 03       		.byte	3
 481 0002 43       		.byte	67
 482 0003 00       		.byte	0
 483 0004 6F       		.byte	111
 484 0005 00       		.byte	0
 485 0006 6E       		.byte	110
 486 0007 00       		.byte	0
 487 0008 74       		.byte	116
 488 0009 00       		.byte	0
 489 000a 72       		.byte	114
 490 000b 00       		.byte	0
 491 000c 6F       		.byte	111
 492 000d 00       		.byte	0
 493 000e 6C       		.byte	108
 494 000f 00       		.byte	0
 495 0010 6C       		.byte	108
 496 0011 00       		.byte	0
 497 0012 65       		.byte	101
 498 0013 00       		.byte	0
 499 0014 72       		.byte	114
 500 0015 00       		.byte	0
 501              		.section	.rodata.usbcfg,"a",%progbits
 502              		.align	2
 503              		.type	usbcfg, %object
 504              		.size	usbcfg, 16
 505              	usbcfg:
 506 0000 00000000 		.word	usb_event
 507 0004 00000000 		.word	usb_get_descriptor_cb
 508 0008 00000000 		.word	usb_request_hook_cb
 509 000c 00000000 		.word	0
ARM GAS  /tmp/ccVu9HYc.s 			page 10


 510              		.section	.rodata.hid_string1,"a",%progbits
 511              		.align	2
 512              		.type	hid_string1, %object
 513              		.size	hid_string1, 46
 514              	hid_string1:
 515 0000 2E       		.byte	46
 516 0001 03       		.byte	3
 517 0002 A9       		.byte	-87
 518 0003 00       		.byte	0
 519 0004 4D       		.byte	77
 520 0005 00       		.byte	0
 521 0006 69       		.byte	105
 522 0007 00       		.byte	0
 523 0008 63       		.byte	99
 524 0009 00       		.byte	0
 525 000a 72       		.byte	114
 526 000b 00       		.byte	0
 527 000c 6F       		.byte	111
 528 000d 00       		.byte	0
 529 000e 73       		.byte	115
 530 000f 00       		.byte	0
 531 0010 6F       		.byte	111
 532 0011 00       		.byte	0
 533 0012 66       		.byte	102
 534 0013 00       		.byte	0
 535 0014 74       		.byte	116
 536 0015 00       		.byte	0
 537 0016 20       		.byte	32
 538 0017 00       		.byte	0
 539 0018 43       		.byte	67
 540 0019 00       		.byte	0
 541 001a 6F       		.byte	111
 542 001b 00       		.byte	0
 543 001c 72       		.byte	114
 544 001d 00       		.byte	0
 545 001e 70       		.byte	112
 546 001f 00       		.byte	0
 547 0020 6F       		.byte	111
 548 0021 00       		.byte	0
 549 0022 72       		.byte	114
 550 0023 00       		.byte	0
 551 0024 61       		.byte	97
 552 0025 00       		.byte	0
 553 0026 74       		.byte	116
 554 0027 00       		.byte	0
 555 0028 69       		.byte	105
 556 0029 00       		.byte	0
 557 002a 6F       		.byte	111
 558 002b 00       		.byte	0
 559 002c 6E       		.byte	110
 560 002d 00       		.byte	0
 561              		.section	.rodata.hid_generic_joystick_reporter_data,"a",%progbits
 562              		.align	2
 563              		.type	hid_generic_joystick_reporter_data, %object
 564              		.size	hid_generic_joystick_reporter_data, 42
 565              	hid_generic_joystick_reporter_data:
 566 0000 05       		.byte	5
ARM GAS  /tmp/ccVu9HYc.s 			page 11


 567 0001 01       		.byte	1
 568 0002 09       		.byte	9
 569 0003 05       		.byte	5
 570 0004 A1       		.byte	-95
 571 0005 01       		.byte	1
 572 0006 A1       		.byte	-95
 573 0007 00       		.byte	0
 574 0008 05       		.byte	5
 575 0009 01       		.byte	1
 576 000a 09       		.byte	9
 577 000b 30       		.byte	48
 578 000c 09       		.byte	9
 579 000d 31       		.byte	49
 580 000e 15       		.byte	21
 581 000f 81       		.byte	-127
 582 0010 25       		.byte	37
 583 0011 7F       		.byte	127
 584 0012 75       		.byte	117
 585 0013 08       		.byte	8
 586 0014 95       		.byte	-107
 587 0015 02       		.byte	2
 588 0016 81       		.byte	-127
 589 0017 02       		.byte	2
 590 0018 05       		.byte	5
 591 0019 09       		.byte	9
 592 001a 19       		.byte	25
 593 001b 01       		.byte	1
 594 001c 29       		.byte	41
 595 001d 08       		.byte	8
 596 001e 15       		.byte	21
 597 001f 00       		.byte	0
 598 0020 25       		.byte	37
 599 0021 01       		.byte	1
 600 0022 75       		.byte	117
 601 0023 01       		.byte	1
 602 0024 95       		.byte	-107
 603 0025 08       		.byte	8
 604 0026 81       		.byte	-127
 605 0027 02       		.byte	2
 606 0028 C0       		.byte	-64
 607 0029 C0       		.byte	-64
 608              		.section	.rodata.hid_device_descriptor_data,"a",%progbits
 609              		.align	2
 610              		.type	hid_device_descriptor_data, %object
 611              		.size	hid_device_descriptor_data, 18
 612              	hid_device_descriptor_data:
 613 0000 12       		.byte	18
 614 0001 01       		.byte	1
 615 0002 00       		.byte	0
 616 0003 02       		.byte	2
 617 0004 FF       		.byte	-1
 618 0005 FF       		.byte	-1
 619 0006 FF       		.byte	-1
 620 0007 40       		.byte	64
 621 0008 5E       		.byte	94
 622 0009 04       		.byte	4
 623 000a 8E       		.byte	-114
ARM GAS  /tmp/ccVu9HYc.s 			page 12


 624 000b 02       		.byte	2
 625 000c 14       		.byte	20
 626 000d 01       		.byte	1
 627 000e 01       		.byte	1
 628 000f 02       		.byte	2
 629 0010 03       		.byte	3
 630 0011 01       		.byte	1
 631              		.section	.bss.ep2outstate,"aw",%nobits
 632              		.align	2
 633              		.type	ep2outstate, %object
 634              		.size	ep2outstate, 20
 635              	ep2outstate:
 636 0000 00000000 		.space	20
 636      00000000 
 636      00000000 
 636      00000000 
 636      00000000 
 637              		.section	.rodata.hid_configuration_descriptor,"a",%progbits
 638              		.align	2
 639              		.set	.LANCHOR1,. + 0
 640              		.type	hid_configuration_descriptor, %object
 641              		.size	hid_configuration_descriptor, 8
 642              	hid_configuration_descriptor:
 643 0000 99000000 		.word	153
 644 0004 00000000 		.word	hid_configuration_descriptor_data
 645              		.section	.rodata.hid_generic_joystick_reporter,"a",%progbits
 646              		.align	2
 647              		.set	.LANCHOR2,. + 0
 648              		.type	hid_generic_joystick_reporter, %object
 649              		.size	hid_generic_joystick_reporter, 8
 650              	hid_generic_joystick_reporter:
 651 0000 2A000000 		.word	42
 652 0004 00000000 		.word	hid_generic_joystick_reporter_data
 653              		.text
 654              	.Letext0:
 655              		.file 2 "/usr/local/gcc-arm-none-eabi-5_4-2016q3/lib/gcc/arm-none-eabi/5.4.1/include/stddef.h"
 656              		.file 3 "/usr/local/gcc-arm-none-eabi-5_4-2016q3/arm-none-eabi/include/machine/_default_types.h"
 657              		.file 4 "/usr/local/gcc-arm-none-eabi-5_4-2016q3/arm-none-eabi/include/sys/_stdint.h"
 658              		.file 5 "../ChibiOS_2.6.9/os/ports/GCC/ARMCMx/chtypes.h"
 659              		.file 6 "../ChibiOS_2.6.9/os/kernel/include/chlists.h"
 660              		.file 7 "../ChibiOS_2.6.9/os/kernel/include/chthreads.h"
 661              		.file 8 "../ChibiOS_2.6.9/os/ports/GCC/ARMCMx/chcore_v7m.h"
 662              		.file 9 "../ChibiOS_2.6.9/os/kernel/include/chmtx.h"
 663              		.file 10 "../ChibiOS_2.6.9/os/kernel/include/chqueues.h"
 664              		.file 11 "../ChibiOS_2.6.9/os/hal/include/usb.h"
 665              		.file 12 "../ChibiOS_2.6.9/os/hal/platforms/STM32/OTGv1/usb_lld.h"
 666              		.file 13 "../ChibiOS_2.6.9/os/hal/platforms/STM32/OTGv1/stm32_otg.h"
 667              		.file 14 "../ChibiOS_2.6.9/os/ports/common/ARMCMx/CMSIS/include/core_cm4.h"
 668              		.section	.debug_info,"",%progbits
 669              	.Ldebug_info0:
 670 0000 F0120000 		.4byte	0x12f0
 671 0004 0400     		.2byte	0x4
 672 0006 00000000 		.4byte	.Ldebug_abbrev0
 673 000a 04       		.byte	0x4
 674 000b 01       		.uleb128 0x1
 675 000c 6E050000 		.4byte	.LASF262
 676 0010 0C       		.byte	0xc
ARM GAS  /tmp/ccVu9HYc.s 			page 13


 677 0011 03020000 		.4byte	.LASF263
 678 0015 CA000000 		.4byte	.LASF264
 679 0019 00000000 		.4byte	.Ldebug_ranges0+0
 680 001d 00000000 		.4byte	0
 681 0021 00000000 		.4byte	.Ldebug_line0
 682 0025 02       		.uleb128 0x2
 683 0026 04       		.byte	0x4
 684 0027 05       		.byte	0x5
 685 0028 696E7400 		.ascii	"int\000"
 686 002c 03       		.uleb128 0x3
 687 002d 00000000 		.4byte	.LASF4
 688 0031 02       		.byte	0x2
 689 0032 D8       		.byte	0xd8
 690 0033 37000000 		.4byte	0x37
 691 0037 04       		.uleb128 0x4
 692 0038 04       		.byte	0x4
 693 0039 07       		.byte	0x7
 694 003a FC060000 		.4byte	.LASF0
 695 003e 04       		.uleb128 0x4
 696 003f 08       		.byte	0x8
 697 0040 05       		.byte	0x5
 698 0041 62060000 		.4byte	.LASF1
 699 0045 04       		.uleb128 0x4
 700 0046 08       		.byte	0x8
 701 0047 04       		.byte	0x4
 702 0048 B2070000 		.4byte	.LASF2
 703 004c 04       		.uleb128 0x4
 704 004d 01       		.byte	0x1
 705 004e 06       		.byte	0x6
 706 004f 14020000 		.4byte	.LASF3
 707 0053 03       		.uleb128 0x3
 708 0054 2C010000 		.4byte	.LASF5
 709 0058 03       		.byte	0x3
 710 0059 1D       		.byte	0x1d
 711 005a 5E000000 		.4byte	0x5e
 712 005e 04       		.uleb128 0x4
 713 005f 01       		.byte	0x1
 714 0060 08       		.byte	0x8
 715 0061 67020000 		.4byte	.LASF6
 716 0065 04       		.uleb128 0x4
 717 0066 02       		.byte	0x2
 718 0067 05       		.byte	0x5
 719 0068 9A090000 		.4byte	.LASF7
 720 006c 03       		.uleb128 0x3
 721 006d 06030000 		.4byte	.LASF8
 722 0071 03       		.byte	0x3
 723 0072 2B       		.byte	0x2b
 724 0073 77000000 		.4byte	0x77
 725 0077 04       		.uleb128 0x4
 726 0078 02       		.byte	0x2
 727 0079 07       		.byte	0x7
 728 007a DE0A0000 		.4byte	.LASF9
 729 007e 03       		.uleb128 0x3
 730 007f 280B0000 		.4byte	.LASF10
 731 0083 03       		.byte	0x3
 732 0084 3F       		.byte	0x3f
 733 0085 89000000 		.4byte	0x89
ARM GAS  /tmp/ccVu9HYc.s 			page 14


 734 0089 04       		.uleb128 0x4
 735 008a 04       		.byte	0x4
 736 008b 05       		.byte	0x5
 737 008c 83010000 		.4byte	.LASF11
 738 0090 03       		.uleb128 0x3
 739 0091 48060000 		.4byte	.LASF12
 740 0095 03       		.byte	0x3
 741 0096 41       		.byte	0x41
 742 0097 9B000000 		.4byte	0x9b
 743 009b 04       		.uleb128 0x4
 744 009c 04       		.byte	0x4
 745 009d 07       		.byte	0x7
 746 009e AA040000 		.4byte	.LASF13
 747 00a2 03       		.uleb128 0x3
 748 00a3 97040000 		.4byte	.LASF14
 749 00a7 03       		.byte	0x3
 750 00a8 5B       		.byte	0x5b
 751 00a9 AD000000 		.4byte	0xad
 752 00ad 04       		.uleb128 0x4
 753 00ae 08       		.byte	0x8
 754 00af 07       		.byte	0x7
 755 00b0 1B080000 		.4byte	.LASF15
 756 00b4 03       		.uleb128 0x3
 757 00b5 2A020000 		.4byte	.LASF16
 758 00b9 04       		.byte	0x4
 759 00ba 18       		.byte	0x18
 760 00bb 53000000 		.4byte	0x53
 761 00bf 03       		.uleb128 0x3
 762 00c0 43080000 		.4byte	.LASF17
 763 00c4 04       		.byte	0x4
 764 00c5 24       		.byte	0x24
 765 00c6 6C000000 		.4byte	0x6c
 766 00ca 03       		.uleb128 0x3
 767 00cb 36000000 		.4byte	.LASF18
 768 00cf 04       		.byte	0x4
 769 00d0 2C       		.byte	0x2c
 770 00d1 7E000000 		.4byte	0x7e
 771 00d5 03       		.uleb128 0x3
 772 00d6 910A0000 		.4byte	.LASF19
 773 00da 04       		.byte	0x4
 774 00db 30       		.byte	0x30
 775 00dc 90000000 		.4byte	0x90
 776 00e0 03       		.uleb128 0x3
 777 00e1 AC090000 		.4byte	.LASF20
 778 00e5 04       		.byte	0x4
 779 00e6 3C       		.byte	0x3c
 780 00e7 A2000000 		.4byte	0xa2
 781 00eb 03       		.uleb128 0x3
 782 00ec 0B0A0000 		.4byte	.LASF21
 783 00f0 05       		.byte	0x5
 784 00f1 2B       		.byte	0x2b
 785 00f2 F6000000 		.4byte	0xf6
 786 00f6 04       		.uleb128 0x4
 787 00f7 01       		.byte	0x1
 788 00f8 02       		.byte	0x2
 789 00f9 B8020000 		.4byte	.LASF22
 790 00fd 03       		.uleb128 0x3
ARM GAS  /tmp/ccVu9HYc.s 			page 15


 791 00fe 21090000 		.4byte	.LASF23
 792 0102 05       		.byte	0x5
 793 0103 2C       		.byte	0x2c
 794 0104 B4000000 		.4byte	0xb4
 795 0108 03       		.uleb128 0x3
 796 0109 A8010000 		.4byte	.LASF24
 797 010d 05       		.byte	0x5
 798 010e 2D       		.byte	0x2d
 799 010f B4000000 		.4byte	0xb4
 800 0113 03       		.uleb128 0x3
 801 0114 600A0000 		.4byte	.LASF25
 802 0118 05       		.byte	0x5
 803 0119 2E       		.byte	0x2e
 804 011a B4000000 		.4byte	0xb4
 805 011e 03       		.uleb128 0x3
 806 011f 8F080000 		.4byte	.LASF26
 807 0123 05       		.byte	0x5
 808 0124 2F       		.byte	0x2f
 809 0125 B4000000 		.4byte	0xb4
 810 0129 03       		.uleb128 0x3
 811 012a 16000000 		.4byte	.LASF27
 812 012e 05       		.byte	0x5
 813 012f 30       		.byte	0x30
 814 0130 D5000000 		.4byte	0xd5
 815 0134 03       		.uleb128 0x3
 816 0135 59080000 		.4byte	.LASF28
 817 0139 05       		.byte	0x5
 818 013a 31       		.byte	0x31
 819 013b CA000000 		.4byte	0xca
 820 013f 03       		.uleb128 0x3
 821 0140 4C020000 		.4byte	.LASF29
 822 0144 05       		.byte	0x5
 823 0145 33       		.byte	0x33
 824 0146 D5000000 		.4byte	0xd5
 825 014a 03       		.uleb128 0x3
 826 014b 400A0000 		.4byte	.LASF30
 827 014f 06       		.byte	0x6
 828 0150 2A       		.byte	0x2a
 829 0151 55010000 		.4byte	0x155
 830 0155 05       		.uleb128 0x5
 831 0156 400A0000 		.4byte	.LASF30
 832 015a 44       		.byte	0x44
 833 015b 07       		.byte	0x7
 834 015c 5E       		.byte	0x5e
 835 015d 46020000 		.4byte	0x246
 836 0161 06       		.uleb128 0x6
 837 0162 8C010000 		.4byte	.LASF31
 838 0166 07       		.byte	0x7
 839 0167 5F       		.byte	0x5f
 840 0168 67020000 		.4byte	0x267
 841 016c 00       		.byte	0
 842 016d 06       		.uleb128 0x6
 843 016e A1010000 		.4byte	.LASF32
 844 0172 07       		.byte	0x7
 845 0173 61       		.byte	0x61
 846 0174 67020000 		.4byte	0x267
 847 0178 04       		.byte	0x4
ARM GAS  /tmp/ccVu9HYc.s 			page 16


 848 0179 06       		.uleb128 0x6
 849 017a F5020000 		.4byte	.LASF33
 850 017e 07       		.byte	0x7
 851 017f 63       		.byte	0x63
 852 0180 29010000 		.4byte	0x129
 853 0184 08       		.byte	0x8
 854 0185 06       		.uleb128 0x6
 855 0186 10000000 		.4byte	.LASF34
 856 018a 07       		.byte	0x7
 857 018b 64       		.byte	0x64
 858 018c 2C030000 		.4byte	0x32c
 859 0190 0C       		.byte	0xc
 860 0191 06       		.uleb128 0x6
 861 0192 7B010000 		.4byte	.LASF35
 862 0196 07       		.byte	0x7
 863 0197 66       		.byte	0x66
 864 0198 67020000 		.4byte	0x267
 865 019c 10       		.byte	0x10
 866 019d 06       		.uleb128 0x6
 867 019e 3B080000 		.4byte	.LASF36
 868 01a2 07       		.byte	0x7
 869 01a3 67       		.byte	0x67
 870 01a4 67020000 		.4byte	0x267
 871 01a8 14       		.byte	0x14
 872 01a9 06       		.uleb128 0x6
 873 01aa 6F0B0000 		.4byte	.LASF37
 874 01ae 07       		.byte	0x7
 875 01af 6E       		.byte	0x6e
 876 01b0 D0030000 		.4byte	0x3d0
 877 01b4 18       		.byte	0x18
 878 01b5 06       		.uleb128 0x6
 879 01b6 AF0B0000 		.4byte	.LASF38
 880 01ba 07       		.byte	0x7
 881 01bb 79       		.byte	0x79
 882 01bc 08010000 		.4byte	0x108
 883 01c0 1C       		.byte	0x1c
 884 01c1 06       		.uleb128 0x6
 885 01c2 E5060000 		.4byte	.LASF39
 886 01c6 07       		.byte	0x7
 887 01c7 7D       		.byte	0x7d
 888 01c8 FD000000 		.4byte	0xfd
 889 01cc 1D       		.byte	0x1d
 890 01cd 06       		.uleb128 0x6
 891 01ce 31070000 		.4byte	.LASF40
 892 01d2 07       		.byte	0x7
 893 01d3 82       		.byte	0x82
 894 01d4 13010000 		.4byte	0x113
 895 01d8 1E       		.byte	0x1e
 896 01d9 06       		.uleb128 0x6
 897 01da 20020000 		.4byte	.LASF41
 898 01de 07       		.byte	0x7
 899 01df 88       		.byte	0x88
 900 01e0 1E010000 		.4byte	0x11e
 901 01e4 1F       		.byte	0x1f
 902 01e5 07       		.uleb128 0x7
 903 01e6 705F7500 		.ascii	"p_u\000"
 904 01ea 07       		.byte	0x7
ARM GAS  /tmp/ccVu9HYc.s 			page 17


 905 01eb B4       		.byte	0xb4
 906 01ec 9B030000 		.4byte	0x39b
 907 01f0 20       		.byte	0x20
 908 01f1 06       		.uleb128 0x6
 909 01f2 D5060000 		.4byte	.LASF42
 910 01f6 07       		.byte	0x7
 911 01f7 B9       		.byte	0xb9
 912 01f8 8D020000 		.4byte	0x28d
 913 01fc 24       		.byte	0x24
 914 01fd 06       		.uleb128 0x6
 915 01fe 1E000000 		.4byte	.LASF43
 916 0202 07       		.byte	0x7
 917 0203 BF       		.byte	0xbf
 918 0204 6D020000 		.4byte	0x26d
 919 0208 28       		.byte	0x28
 920 0209 06       		.uleb128 0x6
 921 020a A90B0000 		.4byte	.LASF44
 922 020e 07       		.byte	0x7
 923 020f C3       		.byte	0xc3
 924 0210 34010000 		.4byte	0x134
 925 0214 30       		.byte	0x30
 926 0215 06       		.uleb128 0x6
 927 0216 32040000 		.4byte	.LASF45
 928 021a 07       		.byte	0x7
 929 021b C9       		.byte	0xc9
 930 021c 3F010000 		.4byte	0x13f
 931 0220 34       		.byte	0x34
 932 0221 06       		.uleb128 0x6
 933 0222 BD010000 		.4byte	.LASF46
 934 0226 07       		.byte	0x7
 935 0227 D0       		.byte	0xd0
 936 0228 E2030000 		.4byte	0x3e2
 937 022c 38       		.byte	0x38
 938 022d 06       		.uleb128 0x6
 939 022e BE070000 		.4byte	.LASF47
 940 0232 07       		.byte	0x7
 941 0233 D4       		.byte	0xd4
 942 0234 29010000 		.4byte	0x129
 943 0238 3C       		.byte	0x3c
 944 0239 06       		.uleb128 0x6
 945 023a 1D070000 		.4byte	.LASF48
 946 023e 07       		.byte	0x7
 947 023f DA       		.byte	0xda
 948 0240 A3020000 		.4byte	0x2a3
 949 0244 40       		.byte	0x40
 950 0245 00       		.byte	0
 951 0246 08       		.uleb128 0x8
 952 0247 08       		.byte	0x8
 953 0248 06       		.byte	0x6
 954 0249 61       		.byte	0x61
 955 024a 67020000 		.4byte	0x267
 956 024e 06       		.uleb128 0x6
 957 024f 8C010000 		.4byte	.LASF31
 958 0253 06       		.byte	0x6
 959 0254 62       		.byte	0x62
 960 0255 67020000 		.4byte	0x267
 961 0259 00       		.byte	0
ARM GAS  /tmp/ccVu9HYc.s 			page 18


 962 025a 06       		.uleb128 0x6
 963 025b A1010000 		.4byte	.LASF32
 964 025f 06       		.byte	0x6
 965 0260 64       		.byte	0x64
 966 0261 67020000 		.4byte	0x267
 967 0265 04       		.byte	0x4
 968 0266 00       		.byte	0
 969 0267 09       		.uleb128 0x9
 970 0268 04       		.byte	0x4
 971 0269 4A010000 		.4byte	0x14a
 972 026d 03       		.uleb128 0x3
 973 026e B80A0000 		.4byte	.LASF49
 974 0272 06       		.byte	0x6
 975 0273 66       		.byte	0x66
 976 0274 46020000 		.4byte	0x246
 977 0278 08       		.uleb128 0x8
 978 0279 04       		.byte	0x4
 979 027a 06       		.byte	0x6
 980 027b 6B       		.byte	0x6b
 981 027c 8D020000 		.4byte	0x28d
 982 0280 06       		.uleb128 0x6
 983 0281 8C010000 		.4byte	.LASF31
 984 0285 06       		.byte	0x6
 985 0286 6D       		.byte	0x6d
 986 0287 67020000 		.4byte	0x267
 987 028b 00       		.byte	0
 988 028c 00       		.byte	0
 989 028d 03       		.uleb128 0x3
 990 028e 42070000 		.4byte	.LASF50
 991 0292 06       		.byte	0x6
 992 0293 70       		.byte	0x70
 993 0294 78020000 		.4byte	0x278
 994 0298 03       		.uleb128 0x3
 995 0299 D6010000 		.4byte	.LASF51
 996 029d 08       		.byte	0x8
 997 029e E5       		.byte	0xe5
 998 029f A3020000 		.4byte	0x2a3
 999 02a3 0A       		.uleb128 0xa
 1000 02a4 04       		.byte	0x4
 1001 02a5 03       		.uleb128 0x3
 1002 02a6 4F030000 		.4byte	.LASF52
 1003 02aa 08       		.byte	0x8
 1004 02ab EB       		.byte	0xeb
 1005 02ac E0000000 		.4byte	0xe0
 1006 02b0 0B       		.uleb128 0xb
 1007 02b1 2B040000 		.4byte	.LASF53
 1008 02b5 24       		.byte	0x24
 1009 02b6 08       		.byte	0x8
 1010 02b7 0C01     		.2byte	0x10c
 1011 02b9 2C030000 		.4byte	0x32c
 1012 02bd 0C       		.uleb128 0xc
 1013 02be 723400   		.ascii	"r4\000"
 1014 02c1 08       		.byte	0x8
 1015 02c2 1F01     		.2byte	0x11f
 1016 02c4 98020000 		.4byte	0x298
 1017 02c8 00       		.byte	0
 1018 02c9 0C       		.uleb128 0xc
ARM GAS  /tmp/ccVu9HYc.s 			page 19


 1019 02ca 723500   		.ascii	"r5\000"
 1020 02cd 08       		.byte	0x8
 1021 02ce 2001     		.2byte	0x120
 1022 02d0 98020000 		.4byte	0x298
 1023 02d4 04       		.byte	0x4
 1024 02d5 0C       		.uleb128 0xc
 1025 02d6 723600   		.ascii	"r6\000"
 1026 02d9 08       		.byte	0x8
 1027 02da 2101     		.2byte	0x121
 1028 02dc 98020000 		.4byte	0x298
 1029 02e0 08       		.byte	0x8
 1030 02e1 0C       		.uleb128 0xc
 1031 02e2 723700   		.ascii	"r7\000"
 1032 02e5 08       		.byte	0x8
 1033 02e6 2201     		.2byte	0x122
 1034 02e8 98020000 		.4byte	0x298
 1035 02ec 0C       		.byte	0xc
 1036 02ed 0C       		.uleb128 0xc
 1037 02ee 723800   		.ascii	"r8\000"
 1038 02f1 08       		.byte	0x8
 1039 02f2 2301     		.2byte	0x123
 1040 02f4 98020000 		.4byte	0x298
 1041 02f8 10       		.byte	0x10
 1042 02f9 0C       		.uleb128 0xc
 1043 02fa 723900   		.ascii	"r9\000"
 1044 02fd 08       		.byte	0x8
 1045 02fe 2401     		.2byte	0x124
 1046 0300 98020000 		.4byte	0x298
 1047 0304 14       		.byte	0x14
 1048 0305 0C       		.uleb128 0xc
 1049 0306 72313000 		.ascii	"r10\000"
 1050 030a 08       		.byte	0x8
 1051 030b 2501     		.2byte	0x125
 1052 030d 98020000 		.4byte	0x298
 1053 0311 18       		.byte	0x18
 1054 0312 0C       		.uleb128 0xc
 1055 0313 72313100 		.ascii	"r11\000"
 1056 0317 08       		.byte	0x8
 1057 0318 2601     		.2byte	0x126
 1058 031a 98020000 		.4byte	0x298
 1059 031e 1C       		.byte	0x1c
 1060 031f 0C       		.uleb128 0xc
 1061 0320 6C7200   		.ascii	"lr\000"
 1062 0323 08       		.byte	0x8
 1063 0324 2701     		.2byte	0x127
 1064 0326 98020000 		.4byte	0x298
 1065 032a 20       		.byte	0x20
 1066 032b 00       		.byte	0
 1067 032c 0B       		.uleb128 0xb
 1068 032d 58020000 		.4byte	.LASF54
 1069 0331 04       		.byte	0x4
 1070 0332 08       		.byte	0x8
 1071 0333 3101     		.2byte	0x131
 1072 0335 47030000 		.4byte	0x347
 1073 0339 0C       		.uleb128 0xc
 1074 033a 72313300 		.ascii	"r13\000"
 1075 033e 08       		.byte	0x8
ARM GAS  /tmp/ccVu9HYc.s 			page 20


 1076 033f 3201     		.2byte	0x132
 1077 0341 47030000 		.4byte	0x347
 1078 0345 00       		.byte	0
 1079 0346 00       		.byte	0
 1080 0347 09       		.uleb128 0x9
 1081 0348 04       		.byte	0x4
 1082 0349 B0020000 		.4byte	0x2b0
 1083 034d 0D       		.uleb128 0xd
 1084 034e D5000000 		.4byte	0xd5
 1085 0352 04       		.uleb128 0x4
 1086 0353 04       		.byte	0x4
 1087 0354 07       		.byte	0x7
 1088 0355 07000000 		.4byte	.LASF55
 1089 0359 05       		.uleb128 0x5
 1090 035a 5C060000 		.4byte	.LASF56
 1091 035e 10       		.byte	0x10
 1092 035f 09       		.byte	0x9
 1093 0360 2C       		.byte	0x2c
 1094 0361 8A030000 		.4byte	0x38a
 1095 0365 06       		.uleb128 0x6
 1096 0366 7A060000 		.4byte	.LASF57
 1097 036a 09       		.byte	0x9
 1098 036b 2D       		.byte	0x2d
 1099 036c 6D020000 		.4byte	0x26d
 1100 0370 00       		.byte	0
 1101 0371 06       		.uleb128 0x6
 1102 0372 0D010000 		.4byte	.LASF58
 1103 0376 09       		.byte	0x9
 1104 0377 2F       		.byte	0x2f
 1105 0378 67020000 		.4byte	0x267
 1106 037c 08       		.byte	0x8
 1107 037d 06       		.uleb128 0x6
 1108 037e 760B0000 		.4byte	.LASF59
 1109 0382 09       		.byte	0x9
 1110 0383 31       		.byte	0x31
 1111 0384 8A030000 		.4byte	0x38a
 1112 0388 0C       		.byte	0xc
 1113 0389 00       		.byte	0
 1114 038a 09       		.uleb128 0x9
 1115 038b 04       		.byte	0x4
 1116 038c 59030000 		.4byte	0x359
 1117 0390 03       		.uleb128 0x3
 1118 0391 5C060000 		.4byte	.LASF56
 1119 0395 09       		.byte	0x9
 1120 0396 33       		.byte	0x33
 1121 0397 59030000 		.4byte	0x359
 1122 039b 0E       		.uleb128 0xe
 1123 039c 04       		.byte	0x4
 1124 039d 07       		.byte	0x7
 1125 039e 96       		.byte	0x96
 1126 039f D0030000 		.4byte	0x3d0
 1127 03a3 0F       		.uleb128 0xf
 1128 03a4 D70A0000 		.4byte	.LASF60
 1129 03a8 07       		.byte	0x7
 1130 03a9 9D       		.byte	0x9d
 1131 03aa 34010000 		.4byte	0x134
 1132 03ae 0F       		.uleb128 0xf
ARM GAS  /tmp/ccVu9HYc.s 			page 21


 1133 03af 15010000 		.4byte	.LASF61
 1134 03b3 07       		.byte	0x7
 1135 03b4 A4       		.byte	0xa4
 1136 03b5 34010000 		.4byte	0x134
 1137 03b9 0F       		.uleb128 0xf
 1138 03ba 1E030000 		.4byte	.LASF62
 1139 03be 07       		.byte	0x7
 1140 03bf AB       		.byte	0xab
 1141 03c0 A3020000 		.4byte	0x2a3
 1142 03c4 0F       		.uleb128 0xf
 1143 03c5 3C010000 		.4byte	.LASF63
 1144 03c9 07       		.byte	0x7
 1145 03ca B2       		.byte	0xb2
 1146 03cb 3F010000 		.4byte	0x13f
 1147 03cf 00       		.byte	0
 1148 03d0 09       		.uleb128 0x9
 1149 03d1 04       		.byte	0x4
 1150 03d2 DD030000 		.4byte	0x3dd
 1151 03d6 04       		.uleb128 0x4
 1152 03d7 01       		.byte	0x1
 1153 03d8 08       		.byte	0x8
 1154 03d9 DD020000 		.4byte	.LASF64
 1155 03dd 10       		.uleb128 0x10
 1156 03de D6030000 		.4byte	0x3d6
 1157 03e2 09       		.uleb128 0x9
 1158 03e3 04       		.byte	0x4
 1159 03e4 90030000 		.4byte	0x390
 1160 03e8 03       		.uleb128 0x3
 1161 03e9 11030000 		.4byte	.LASF65
 1162 03ed 0A       		.byte	0xa
 1163 03ee 37       		.byte	0x37
 1164 03ef F3030000 		.4byte	0x3f3
 1165 03f3 05       		.uleb128 0x5
 1166 03f4 11030000 		.4byte	.LASF65
 1167 03f8 24       		.byte	0x24
 1168 03f9 0A       		.byte	0xa
 1169 03fa 45       		.byte	0x45
 1170 03fb 60040000 		.4byte	0x460
 1171 03ff 06       		.uleb128 0x6
 1172 0400 17090000 		.4byte	.LASF66
 1173 0404 0A       		.byte	0xa
 1174 0405 46       		.byte	0x46
 1175 0406 6D020000 		.4byte	0x26d
 1176 040a 00       		.byte	0
 1177 040b 06       		.uleb128 0x6
 1178 040c 84040000 		.4byte	.LASF67
 1179 0410 0A       		.byte	0xa
 1180 0411 47       		.byte	0x47
 1181 0412 2C000000 		.4byte	0x2c
 1182 0416 08       		.byte	0x8
 1183 0417 06       		.uleb128 0x6
 1184 0418 4E010000 		.4byte	.LASF68
 1185 041c 0A       		.byte	0xa
 1186 041d 48       		.byte	0x48
 1187 041e 82040000 		.4byte	0x482
 1188 0422 0C       		.byte	0xc
 1189 0423 06       		.uleb128 0x6
ARM GAS  /tmp/ccVu9HYc.s 			page 22


 1190 0424 36010000 		.4byte	.LASF69
 1191 0428 0A       		.byte	0xa
 1192 0429 49       		.byte	0x49
 1193 042a 82040000 		.4byte	0x482
 1194 042e 10       		.byte	0x10
 1195 042f 06       		.uleb128 0x6
 1196 0430 FD040000 		.4byte	.LASF70
 1197 0434 0A       		.byte	0xa
 1198 0435 4B       		.byte	0x4b
 1199 0436 82040000 		.4byte	0x482
 1200 043a 14       		.byte	0x14
 1201 043b 06       		.uleb128 0x6
 1202 043c 93010000 		.4byte	.LASF71
 1203 0440 0A       		.byte	0xa
 1204 0441 4C       		.byte	0x4c
 1205 0442 82040000 		.4byte	0x482
 1206 0446 18       		.byte	0x18
 1207 0447 06       		.uleb128 0x6
 1208 0448 72010000 		.4byte	.LASF72
 1209 044c 0A       		.byte	0xa
 1210 044d 4D       		.byte	0x4d
 1211 044e 60040000 		.4byte	0x460
 1212 0452 1C       		.byte	0x1c
 1213 0453 06       		.uleb128 0x6
 1214 0454 83020000 		.4byte	.LASF73
 1215 0458 0A       		.byte	0xa
 1216 0459 4E       		.byte	0x4e
 1217 045a A3020000 		.4byte	0x2a3
 1218 045e 20       		.byte	0x20
 1219 045f 00       		.byte	0
 1220 0460 03       		.uleb128 0x3
 1221 0461 CB060000 		.4byte	.LASF74
 1222 0465 0A       		.byte	0xa
 1223 0466 3A       		.byte	0x3a
 1224 0467 6B040000 		.4byte	0x46b
 1225 046b 09       		.uleb128 0x9
 1226 046c 04       		.byte	0x4
 1227 046d 71040000 		.4byte	0x471
 1228 0471 11       		.uleb128 0x11
 1229 0472 7C040000 		.4byte	0x47c
 1230 0476 12       		.uleb128 0x12
 1231 0477 7C040000 		.4byte	0x47c
 1232 047b 00       		.byte	0
 1233 047c 09       		.uleb128 0x9
 1234 047d 04       		.byte	0x4
 1235 047e E8030000 		.4byte	0x3e8
 1236 0482 09       		.uleb128 0x9
 1237 0483 04       		.byte	0x4
 1238 0484 B4000000 		.4byte	0xb4
 1239 0488 03       		.uleb128 0x3
 1240 0489 120B0000 		.4byte	.LASF75
 1241 048d 0A       		.byte	0xa
 1242 048e 82       		.byte	0x82
 1243 048f E8030000 		.4byte	0x3e8
 1244 0493 03       		.uleb128 0x3
 1245 0494 5A030000 		.4byte	.LASF76
 1246 0498 0A       		.byte	0xa
ARM GAS  /tmp/ccVu9HYc.s 			page 23


 1247 0499 F5       		.byte	0xf5
 1248 049a E8030000 		.4byte	0x3e8
 1249 049e 09       		.uleb128 0x9
 1250 049f 04       		.byte	0x4
 1251 04a0 A4040000 		.4byte	0x4a4
 1252 04a4 10       		.uleb128 0x10
 1253 04a5 B4000000 		.4byte	0xb4
 1254 04a9 0D       		.uleb128 0xd
 1255 04aa CA000000 		.4byte	0xca
 1256 04ae 03       		.uleb128 0x3
 1257 04af 5E070000 		.4byte	.LASF77
 1258 04b3 0B       		.byte	0xb
 1259 04b4 E9       		.byte	0xe9
 1260 04b5 B9040000 		.4byte	0x4b9
 1261 04b9 13       		.uleb128 0x13
 1262 04ba 5E070000 		.4byte	.LASF77
 1263 04be B001     		.2byte	0x1b0
 1264 04c0 0C       		.byte	0xc
 1265 04c1 7701     		.2byte	0x177
 1266 04c3 E6050000 		.4byte	0x5e6
 1267 04c7 14       		.uleb128 0x14
 1268 04c8 ED000000 		.4byte	.LASF78
 1269 04cc 0C       		.byte	0xc
 1270 04cd 7B01     		.2byte	0x17b
 1271 04cf 1C060000 		.4byte	0x61c
 1272 04d3 00       		.byte	0
 1273 04d4 14       		.uleb128 0x14
 1274 04d5 25030000 		.4byte	.LASF79
 1275 04d9 0C       		.byte	0xc
 1276 04da 7F01     		.2byte	0x17f
 1277 04dc 510F0000 		.4byte	0xf51
 1278 04e0 04       		.byte	0x4
 1279 04e1 14       		.uleb128 0x14
 1280 04e2 8E030000 		.4byte	.LASF80
 1281 04e6 0C       		.byte	0xc
 1282 04e7 8301     		.2byte	0x183
 1283 04e9 BF000000 		.4byte	0xbf
 1284 04ed 08       		.byte	0x8
 1285 04ee 14       		.uleb128 0x14
 1286 04ef FC020000 		.4byte	.LASF81
 1287 04f3 0C       		.byte	0xc
 1288 04f4 8701     		.2byte	0x187
 1289 04f6 BF000000 		.4byte	0xbf
 1290 04fa 0A       		.byte	0xa
 1291 04fb 0C       		.uleb128 0xc
 1292 04fc 65706300 		.ascii	"epc\000"
 1293 0500 0C       		.byte	0xc
 1294 0501 8B01     		.2byte	0x18b
 1295 0503 5C0F0000 		.4byte	0xf5c
 1296 0507 0C       		.byte	0xc
 1297 0508 14       		.uleb128 0x14
 1298 0509 62090000 		.4byte	.LASF82
 1299 050d 0C       		.byte	0xc
 1300 050e 9201     		.2byte	0x192
 1301 0510 770F0000 		.4byte	0xf77
 1302 0514 1C       		.byte	0x1c
 1303 0515 14       		.uleb128 0x14
ARM GAS  /tmp/ccVu9HYc.s 			page 24


 1304 0516 1D0B0000 		.4byte	.LASF83
 1305 051a 0C       		.byte	0xc
 1306 051b 9901     		.2byte	0x199
 1307 051d 770F0000 		.4byte	0xf77
 1308 0521 28       		.byte	0x28
 1309 0522 14       		.uleb128 0x14
 1310 0523 95020000 		.4byte	.LASF84
 1311 0527 0C       		.byte	0xc
 1312 0528 9D01     		.2byte	0x19d
 1313 052a 5F060000 		.4byte	0x65f
 1314 052e 34       		.byte	0x34
 1315 052f 14       		.uleb128 0x14
 1316 0530 8B060000 		.4byte	.LASF85
 1317 0534 0C       		.byte	0xc
 1318 0535 A101     		.2byte	0x1a1
 1319 0537 82040000 		.4byte	0x482
 1320 053b 38       		.byte	0x38
 1321 053c 14       		.uleb128 0x14
 1322 053d E2020000 		.4byte	.LASF86
 1323 0541 0C       		.byte	0xc
 1324 0542 A501     		.2byte	0x1a5
 1325 0544 2C000000 		.4byte	0x2c
 1326 0548 3C       		.byte	0x3c
 1327 0549 14       		.uleb128 0x14
 1328 054a CB040000 		.4byte	.LASF87
 1329 054e 0C       		.byte	0xc
 1330 054f A901     		.2byte	0x1a9
 1331 0551 D9060000 		.4byte	0x6d9
 1332 0555 40       		.byte	0x40
 1333 0556 14       		.uleb128 0x14
 1334 0557 25040000 		.4byte	.LASF88
 1335 055b 0C       		.byte	0xc
 1336 055c AD01     		.2byte	0x1ad
 1337 055e 870F0000 		.4byte	0xf87
 1338 0562 44       		.byte	0x44
 1339 0563 14       		.uleb128 0x14
 1340 0564 BC040000 		.4byte	.LASF89
 1341 0568 0C       		.byte	0xc
 1342 0569 B101     		.2byte	0x1b1
 1343 056b BF000000 		.4byte	0xbf
 1344 056f 4C       		.byte	0x4c
 1345 0570 14       		.uleb128 0x14
 1346 0571 C3040000 		.4byte	.LASF90
 1347 0575 0C       		.byte	0xc
 1348 0576 B501     		.2byte	0x1b5
 1349 0578 B4000000 		.4byte	0xb4
 1350 057c 4E       		.byte	0x4e
 1351 057d 14       		.uleb128 0x14
 1352 057e 6E040000 		.4byte	.LASF91
 1353 0582 0C       		.byte	0xc
 1354 0583 B901     		.2byte	0x1b9
 1355 0585 B4000000 		.4byte	0xb4
 1356 0589 4F       		.byte	0x4f
 1357 058a 0C       		.uleb128 0xc
 1358 058b 6F746700 		.ascii	"otg\000"
 1359 058f 0C       		.byte	0xc
 1360 0590 C101     		.2byte	0x1c1
ARM GAS  /tmp/ccVu9HYc.s 			page 25


 1361 0592 970F0000 		.4byte	0xf97
 1362 0596 50       		.byte	0x50
 1363 0597 14       		.uleb128 0x14
 1364 0598 DD070000 		.4byte	.LASF92
 1365 059c 0C       		.byte	0xc
 1366 059d C501     		.2byte	0x1c5
 1367 059f 9D0F0000 		.4byte	0xf9d
 1368 05a3 54       		.byte	0x54
 1369 05a4 14       		.uleb128 0x14
 1370 05a5 7D0B0000 		.4byte	.LASF93
 1371 05a9 0C       		.byte	0xc
 1372 05aa C901     		.2byte	0x1c9
 1373 05ac D5000000 		.4byte	0xd5
 1374 05b0 58       		.byte	0x58
 1375 05b1 14       		.uleb128 0x14
 1376 05b2 13070000 		.4byte	.LASF94
 1377 05b6 0C       		.byte	0xc
 1378 05b7 CD01     		.2byte	0x1cd
 1379 05b9 D5000000 		.4byte	0xd5
 1380 05bd 5C       		.byte	0x5c
 1381 05be 14       		.uleb128 0x14
 1382 05bf 0C050000 		.4byte	.LASF95
 1383 05c3 0C       		.byte	0xc
 1384 05c4 D101     		.2byte	0x1d1
 1385 05c6 67020000 		.4byte	0x267
 1386 05ca 60       		.byte	0x60
 1387 05cb 14       		.uleb128 0x14
 1388 05cc C7010000 		.4byte	.LASF96
 1389 05d0 0C       		.byte	0xc
 1390 05d1 D501     		.2byte	0x1d5
 1391 05d3 67020000 		.4byte	0x267
 1392 05d7 64       		.byte	0x64
 1393 05d8 14       		.uleb128 0x14
 1394 05d9 42090000 		.4byte	.LASF97
 1395 05dd 0C       		.byte	0xc
 1396 05de D901     		.2byte	0x1d9
 1397 05e0 A80F0000 		.4byte	0xfa8
 1398 05e4 68       		.byte	0x68
 1399 05e5 00       		.byte	0
 1400 05e6 03       		.uleb128 0x3
 1401 05e7 9A0A0000 		.4byte	.LASF98
 1402 05eb 0B       		.byte	0xb
 1403 05ec EE       		.byte	0xee
 1404 05ed B4000000 		.4byte	0xb4
 1405 05f1 15       		.uleb128 0x15
 1406 05f2 01       		.byte	0x1
 1407 05f3 5E000000 		.4byte	0x5e
 1408 05f7 0B       		.byte	0xb
 1409 05f8 F3       		.byte	0xf3
 1410 05f9 1C060000 		.4byte	0x61c
 1411 05fd 16       		.uleb128 0x16
 1412 05fe F3070000 		.4byte	.LASF99
 1413 0602 00       		.byte	0
 1414 0603 16       		.uleb128 0x16
 1415 0604 71070000 		.4byte	.LASF100
 1416 0608 01       		.byte	0x1
 1417 0609 16       		.uleb128 0x16
ARM GAS  /tmp/ccVu9HYc.s 			page 26


 1418 060a 70060000 		.4byte	.LASF101
 1419 060e 02       		.byte	0x2
 1420 060f 16       		.uleb128 0x16
 1421 0610 61040000 		.4byte	.LASF102
 1422 0614 03       		.byte	0x3
 1423 0615 16       		.uleb128 0x16
 1424 0616 FB000000 		.4byte	.LASF103
 1425 061a 04       		.byte	0x4
 1426 061b 00       		.byte	0
 1427 061c 03       		.uleb128 0x3
 1428 061d 1A050000 		.4byte	.LASF104
 1429 0621 0B       		.byte	0xb
 1430 0622 F9       		.byte	0xf9
 1431 0623 F1050000 		.4byte	0x5f1
 1432 0627 17       		.uleb128 0x17
 1433 0628 01       		.byte	0x1
 1434 0629 5E000000 		.4byte	0x5e
 1435 062d 0B       		.byte	0xb
 1436 062e 0701     		.2byte	0x107
 1437 0630 5F060000 		.4byte	0x65f
 1438 0634 16       		.uleb128 0x16
 1439 0635 E5010000 		.4byte	.LASF105
 1440 0639 00       		.byte	0
 1441 063a 16       		.uleb128 0x16
 1442 063b 98000000 		.4byte	.LASF106
 1443 063f 01       		.byte	0x1
 1444 0640 16       		.uleb128 0x16
 1445 0641 C9070000 		.4byte	.LASF107
 1446 0645 02       		.byte	0x2
 1447 0646 16       		.uleb128 0x16
 1448 0647 5B0B0000 		.4byte	.LASF108
 1449 064b 03       		.byte	0x3
 1450 064c 16       		.uleb128 0x16
 1451 064d 950B0000 		.4byte	.LASF109
 1452 0651 04       		.byte	0x4
 1453 0652 16       		.uleb128 0x16
 1454 0653 420B0000 		.4byte	.LASF110
 1455 0657 05       		.byte	0x5
 1456 0658 16       		.uleb128 0x16
 1457 0659 75020000 		.4byte	.LASF111
 1458 065d 06       		.byte	0x6
 1459 065e 00       		.byte	0
 1460 065f 18       		.uleb128 0x18
 1461 0660 1E010000 		.4byte	.LASF112
 1462 0664 0B       		.byte	0xb
 1463 0665 0F01     		.2byte	0x10f
 1464 0667 27060000 		.4byte	0x627
 1465 066b 17       		.uleb128 0x17
 1466 066c 01       		.byte	0x1
 1467 066d 5E000000 		.4byte	0x5e
 1468 0671 0B       		.byte	0xb
 1469 0672 1401     		.2byte	0x114
 1470 0674 9D060000 		.4byte	0x69d
 1471 0678 16       		.uleb128 0x16
 1472 0679 CB090000 		.4byte	.LASF113
 1473 067d 00       		.byte	0
 1474 067e 16       		.uleb128 0x16
ARM GAS  /tmp/ccVu9HYc.s 			page 27


 1475 067f 57010000 		.4byte	.LASF114
 1476 0683 01       		.byte	0x1
 1477 0684 16       		.uleb128 0x16
 1478 0685 FD080000 		.4byte	.LASF115
 1479 0689 02       		.byte	0x2
 1480 068a 16       		.uleb128 0x16
 1481 068b C50A0000 		.4byte	.LASF116
 1482 068f 03       		.byte	0x3
 1483 0690 16       		.uleb128 0x16
 1484 0691 55050000 		.4byte	.LASF117
 1485 0695 04       		.byte	0x4
 1486 0696 16       		.uleb128 0x16
 1487 0697 32020000 		.4byte	.LASF118
 1488 069b 05       		.byte	0x5
 1489 069c 00       		.byte	0
 1490 069d 18       		.uleb128 0x18
 1491 069e 45040000 		.4byte	.LASF119
 1492 06a2 0B       		.byte	0xb
 1493 06a3 1B01     		.2byte	0x11b
 1494 06a5 6B060000 		.4byte	0x66b
 1495 06a9 19       		.uleb128 0x19
 1496 06aa 08       		.byte	0x8
 1497 06ab 0B       		.byte	0xb
 1498 06ac 2001     		.2byte	0x120
 1499 06ae CD060000 		.4byte	0x6cd
 1500 06b2 14       		.uleb128 0x14
 1501 06b3 59040000 		.4byte	.LASF120
 1502 06b7 0B       		.byte	0xb
 1503 06b8 2401     		.2byte	0x124
 1504 06ba 2C000000 		.4byte	0x2c
 1505 06be 00       		.byte	0
 1506 06bf 14       		.uleb128 0x14
 1507 06c0 3F030000 		.4byte	.LASF121
 1508 06c4 0B       		.byte	0xb
 1509 06c5 2801     		.2byte	0x128
 1510 06c7 9E040000 		.4byte	0x49e
 1511 06cb 04       		.byte	0x4
 1512 06cc 00       		.byte	0
 1513 06cd 18       		.uleb128 0x18
 1514 06ce 04040000 		.4byte	.LASF122
 1515 06d2 0B       		.byte	0xb
 1516 06d3 2901     		.2byte	0x129
 1517 06d5 A9060000 		.4byte	0x6a9
 1518 06d9 18       		.uleb128 0x18
 1519 06da 320A0000 		.4byte	.LASF123
 1520 06de 0B       		.byte	0xb
 1521 06df 3101     		.2byte	0x131
 1522 06e1 E5060000 		.4byte	0x6e5
 1523 06e5 09       		.uleb128 0x9
 1524 06e6 04       		.byte	0x4
 1525 06e7 EB060000 		.4byte	0x6eb
 1526 06eb 11       		.uleb128 0x11
 1527 06ec F6060000 		.4byte	0x6f6
 1528 06f0 12       		.uleb128 0x12
 1529 06f1 F6060000 		.4byte	0x6f6
 1530 06f5 00       		.byte	0
 1531 06f6 09       		.uleb128 0x9
ARM GAS  /tmp/ccVu9HYc.s 			page 28


 1532 06f7 04       		.byte	0x4
 1533 06f8 AE040000 		.4byte	0x4ae
 1534 06fc 18       		.uleb128 0x18
 1535 06fd 9C060000 		.4byte	.LASF124
 1536 0701 0B       		.byte	0xb
 1537 0702 3A01     		.2byte	0x13a
 1538 0704 08070000 		.4byte	0x708
 1539 0708 09       		.uleb128 0x9
 1540 0709 04       		.byte	0x4
 1541 070a 0E070000 		.4byte	0x70e
 1542 070e 11       		.uleb128 0x11
 1543 070f 1E070000 		.4byte	0x71e
 1544 0713 12       		.uleb128 0x12
 1545 0714 F6060000 		.4byte	0x6f6
 1546 0718 12       		.uleb128 0x12
 1547 0719 E6050000 		.4byte	0x5e6
 1548 071d 00       		.byte	0
 1549 071e 18       		.uleb128 0x18
 1550 071f 6C030000 		.4byte	.LASF125
 1551 0723 0B       		.byte	0xb
 1552 0724 4301     		.2byte	0x143
 1553 0726 2A070000 		.4byte	0x72a
 1554 072a 09       		.uleb128 0x9
 1555 072b 04       		.byte	0x4
 1556 072c 30070000 		.4byte	0x730
 1557 0730 11       		.uleb128 0x11
 1558 0731 40070000 		.4byte	0x740
 1559 0735 12       		.uleb128 0x12
 1560 0736 F6060000 		.4byte	0x6f6
 1561 073a 12       		.uleb128 0x12
 1562 073b 9D060000 		.4byte	0x69d
 1563 073f 00       		.byte	0
 1564 0740 18       		.uleb128 0x18
 1565 0741 1A0A0000 		.4byte	.LASF126
 1566 0745 0B       		.byte	0xb
 1567 0746 4F01     		.2byte	0x14f
 1568 0748 4C070000 		.4byte	0x74c
 1569 074c 09       		.uleb128 0x9
 1570 074d 04       		.byte	0x4
 1571 074e 52070000 		.4byte	0x752
 1572 0752 1A       		.uleb128 0x1a
 1573 0753 EB000000 		.4byte	0xeb
 1574 0757 61070000 		.4byte	0x761
 1575 075b 12       		.uleb128 0x12
 1576 075c F6060000 		.4byte	0x6f6
 1577 0760 00       		.byte	0
 1578 0761 18       		.uleb128 0x18
 1579 0762 2F090000 		.4byte	.LASF127
 1580 0766 0B       		.byte	0xb
 1581 0767 5401     		.2byte	0x154
 1582 0769 6D070000 		.4byte	0x76d
 1583 076d 09       		.uleb128 0x9
 1584 076e 04       		.byte	0x4
 1585 076f 73070000 		.4byte	0x773
 1586 0773 1A       		.uleb128 0x1a
 1587 0774 91070000 		.4byte	0x791
 1588 0778 91070000 		.4byte	0x791
ARM GAS  /tmp/ccVu9HYc.s 			page 29


 1589 077c 12       		.uleb128 0x12
 1590 077d F6060000 		.4byte	0x6f6
 1591 0781 12       		.uleb128 0x12
 1592 0782 B4000000 		.4byte	0xb4
 1593 0786 12       		.uleb128 0x12
 1594 0787 B4000000 		.4byte	0xb4
 1595 078b 12       		.uleb128 0x12
 1596 078c BF000000 		.4byte	0xbf
 1597 0790 00       		.byte	0
 1598 0791 09       		.uleb128 0x9
 1599 0792 04       		.byte	0x4
 1600 0793 97070000 		.4byte	0x797
 1601 0797 10       		.uleb128 0x10
 1602 0798 CD060000 		.4byte	0x6cd
 1603 079c 08       		.uleb128 0x8
 1604 079d 20       		.byte	0x20
 1605 079e 0D       		.byte	0xd
 1606 079f 35       		.byte	0x35
 1607 07a0 05080000 		.4byte	0x805
 1608 07a4 06       		.uleb128 0x6
 1609 07a5 C3020000 		.4byte	.LASF128
 1610 07a9 0D       		.byte	0xd
 1611 07aa 36       		.byte	0x36
 1612 07ab 4D030000 		.4byte	0x34d
 1613 07af 00       		.byte	0
 1614 07b0 06       		.uleb128 0x6
 1615 07b1 45000000 		.4byte	.LASF129
 1616 07b5 0D       		.byte	0xd
 1617 07b6 38       		.byte	0x38
 1618 07b7 4D030000 		.4byte	0x34d
 1619 07bb 04       		.byte	0x4
 1620 07bc 06       		.uleb128 0x6
 1621 07bd 4C080000 		.4byte	.LASF130
 1622 07c1 0D       		.byte	0xd
 1623 07c2 39       		.byte	0x39
 1624 07c3 4D030000 		.4byte	0x34d
 1625 07c7 08       		.byte	0x8
 1626 07c8 06       		.uleb128 0x6
 1627 07c9 76080000 		.4byte	.LASF131
 1628 07cd 0D       		.byte	0xd
 1629 07ce 3A       		.byte	0x3a
 1630 07cf 4D030000 		.4byte	0x34d
 1631 07d3 0C       		.byte	0xc
 1632 07d4 06       		.uleb128 0x6
 1633 07d5 9B030000 		.4byte	.LASF132
 1634 07d9 0D       		.byte	0xd
 1635 07da 3C       		.byte	0x3c
 1636 07db 4D030000 		.4byte	0x34d
 1637 07df 10       		.byte	0x10
 1638 07e0 06       		.uleb128 0x6
 1639 07e1 DB090000 		.4byte	.LASF133
 1640 07e5 0D       		.byte	0xd
 1641 07e6 3E       		.byte	0x3e
 1642 07e7 4D030000 		.4byte	0x34d
 1643 07eb 14       		.byte	0x14
 1644 07ec 06       		.uleb128 0x6
 1645 07ed E3090000 		.4byte	.LASF134
ARM GAS  /tmp/ccVu9HYc.s 			page 30


 1646 07f1 0D       		.byte	0xd
 1647 07f2 3F       		.byte	0x3f
 1648 07f3 4D030000 		.4byte	0x34d
 1649 07f7 18       		.byte	0x18
 1650 07f8 06       		.uleb128 0x6
 1651 07f9 120A0000 		.4byte	.LASF135
 1652 07fd 0D       		.byte	0xd
 1653 07fe 40       		.byte	0x40
 1654 07ff 4D030000 		.4byte	0x34d
 1655 0803 1C       		.byte	0x1c
 1656 0804 00       		.byte	0
 1657 0805 03       		.uleb128 0x3
 1658 0806 79030000 		.4byte	.LASF136
 1659 080a 0D       		.byte	0xd
 1660 080b 41       		.byte	0x41
 1661 080c 9C070000 		.4byte	0x79c
 1662 0810 08       		.uleb128 0x8
 1663 0811 20       		.byte	0x20
 1664 0812 0D       		.byte	0xd
 1665 0813 46       		.byte	0x46
 1666 0814 79080000 		.4byte	0x879
 1667 0818 06       		.uleb128 0x6
 1668 0819 2A0A0000 		.4byte	.LASF137
 1669 081d 0D       		.byte	0xd
 1670 081e 47       		.byte	0x47
 1671 081f 4D030000 		.4byte	0x34d
 1672 0823 00       		.byte	0
 1673 0824 06       		.uleb128 0x6
 1674 0825 3E000000 		.4byte	.LASF138
 1675 0829 0D       		.byte	0xd
 1676 082a 49       		.byte	0x49
 1677 082b 4D030000 		.4byte	0x34d
 1678 082f 04       		.byte	0x4
 1679 0830 06       		.uleb128 0x6
 1680 0831 4F0A0000 		.4byte	.LASF139
 1681 0835 0D       		.byte	0xd
 1682 0836 4A       		.byte	0x4a
 1683 0837 4D030000 		.4byte	0x34d
 1684 083b 08       		.byte	0x8
 1685 083c 06       		.uleb128 0x6
 1686 083d 6E000000 		.4byte	.LASF140
 1687 0841 0D       		.byte	0xd
 1688 0842 4C       		.byte	0x4c
 1689 0843 4D030000 		.4byte	0x34d
 1690 0847 0C       		.byte	0xc
 1691 0848 06       		.uleb128 0x6
 1692 0849 9E020000 		.4byte	.LASF141
 1693 084d 0D       		.byte	0xd
 1694 084e 4D       		.byte	0x4d
 1695 084f 4D030000 		.4byte	0x34d
 1696 0853 10       		.byte	0x10
 1697 0854 06       		.uleb128 0x6
 1698 0855 DB090000 		.4byte	.LASF133
 1699 0859 0D       		.byte	0xd
 1700 085a 4F       		.byte	0x4f
 1701 085b 4D030000 		.4byte	0x34d
 1702 085f 14       		.byte	0x14
ARM GAS  /tmp/ccVu9HYc.s 			page 31


 1703 0860 06       		.uleb128 0x6
 1704 0861 EB090000 		.4byte	.LASF142
 1705 0865 0D       		.byte	0xd
 1706 0866 50       		.byte	0x50
 1707 0867 4D030000 		.4byte	0x34d
 1708 086b 18       		.byte	0x18
 1709 086c 06       		.uleb128 0x6
 1710 086d FB090000 		.4byte	.LASF143
 1711 0871 0D       		.byte	0xd
 1712 0872 52       		.byte	0x52
 1713 0873 4D030000 		.4byte	0x34d
 1714 0877 1C       		.byte	0x1c
 1715 0878 00       		.byte	0
 1716 0879 03       		.uleb128 0x3
 1717 087a D2080000 		.4byte	.LASF144
 1718 087e 0D       		.byte	0xd
 1719 087f 53       		.byte	0x53
 1720 0880 10080000 		.4byte	0x810
 1721 0884 08       		.uleb128 0x8
 1722 0885 20       		.byte	0x20
 1723 0886 0D       		.byte	0xd
 1724 0887 58       		.byte	0x58
 1725 0888 ED080000 		.4byte	0x8ed
 1726 088c 06       		.uleb128 0x6
 1727 088d 0C020000 		.4byte	.LASF145
 1728 0891 0D       		.byte	0xd
 1729 0892 59       		.byte	0x59
 1730 0893 4D030000 		.4byte	0x34d
 1731 0897 00       		.byte	0
 1732 0898 06       		.uleb128 0x6
 1733 0899 3E000000 		.4byte	.LASF138
 1734 089d 0D       		.byte	0xd
 1735 089e 5B       		.byte	0x5b
 1736 089f 4D030000 		.4byte	0x34d
 1737 08a3 04       		.byte	0x4
 1738 08a4 06       		.uleb128 0x6
 1739 08a5 44020000 		.4byte	.LASF146
 1740 08a9 0D       		.byte	0xd
 1741 08aa 5C       		.byte	0x5c
 1742 08ab 4D030000 		.4byte	0x34d
 1743 08af 08       		.byte	0x8
 1744 08b0 06       		.uleb128 0x6
 1745 08b1 6E000000 		.4byte	.LASF140
 1746 08b5 0D       		.byte	0xd
 1747 08b6 5E       		.byte	0x5e
 1748 08b7 4D030000 		.4byte	0x34d
 1749 08bb 0C       		.byte	0xc
 1750 08bc 06       		.uleb128 0x6
 1751 08bd ED060000 		.4byte	.LASF147
 1752 08c1 0D       		.byte	0xd
 1753 08c2 5F       		.byte	0x5f
 1754 08c3 4D030000 		.4byte	0x34d
 1755 08c7 10       		.byte	0x10
 1756 08c8 06       		.uleb128 0x6
 1757 08c9 DB090000 		.4byte	.LASF133
 1758 08cd 0D       		.byte	0xd
 1759 08ce 61       		.byte	0x61
ARM GAS  /tmp/ccVu9HYc.s 			page 32


 1760 08cf 4D030000 		.4byte	0x34d
 1761 08d3 14       		.byte	0x14
 1762 08d4 06       		.uleb128 0x6
 1763 08d5 E3090000 		.4byte	.LASF134
 1764 08d9 0D       		.byte	0xd
 1765 08da 62       		.byte	0x62
 1766 08db 4D030000 		.4byte	0x34d
 1767 08df 18       		.byte	0x18
 1768 08e0 06       		.uleb128 0x6
 1769 08e1 FB090000 		.4byte	.LASF143
 1770 08e5 0D       		.byte	0xd
 1771 08e6 63       		.byte	0x63
 1772 08e7 4D030000 		.4byte	0x34d
 1773 08eb 1C       		.byte	0x1c
 1774 08ec 00       		.byte	0
 1775 08ed 03       		.uleb128 0x3
 1776 08ee CA020000 		.4byte	.LASF148
 1777 08f2 0D       		.byte	0xd
 1778 08f3 64       		.byte	0x64
 1779 08f4 84080000 		.4byte	0x884
 1780 08f8 1B       		.uleb128 0x1b
 1781 08f9 00100100 		.4byte	0x11000
 1782 08fd 0D       		.byte	0xd
 1783 08fe 69       		.byte	0x69
 1784 08ff D50B0000 		.4byte	0xbd5
 1785 0903 06       		.uleb128 0x6
 1786 0904 2E050000 		.4byte	.LASF149
 1787 0908 0D       		.byte	0xd
 1788 0909 6A       		.byte	0x6a
 1789 090a 4D030000 		.4byte	0x34d
 1790 090e 00       		.byte	0
 1791 090f 06       		.uleb128 0x6
 1792 0910 99080000 		.4byte	.LASF150
 1793 0914 0D       		.byte	0xd
 1794 0915 6B       		.byte	0x6b
 1795 0916 4D030000 		.4byte	0x34d
 1796 091a 04       		.byte	0x4
 1797 091b 06       		.uleb128 0x6
 1798 091c D4040000 		.4byte	.LASF151
 1799 0920 0D       		.byte	0xd
 1800 0921 6C       		.byte	0x6c
 1801 0922 4D030000 		.4byte	0x34d
 1802 0926 08       		.byte	0x8
 1803 0927 06       		.uleb128 0x6
 1804 0928 8D0B0000 		.4byte	.LASF152
 1805 092c 0D       		.byte	0xd
 1806 092d 6D       		.byte	0x6d
 1807 092e 4D030000 		.4byte	0x34d
 1808 0932 0C       		.byte	0xc
 1809 0933 06       		.uleb128 0x6
 1810 0934 3D040000 		.4byte	.LASF153
 1811 0938 0D       		.byte	0xd
 1812 0939 6E       		.byte	0x6e
 1813 093a 4D030000 		.4byte	0x34d
 1814 093e 10       		.byte	0x10
 1815 093f 06       		.uleb128 0x6
 1816 0940 470A0000 		.4byte	.LASF154
ARM GAS  /tmp/ccVu9HYc.s 			page 33


 1817 0944 0D       		.byte	0xd
 1818 0945 6F       		.byte	0x6f
 1819 0946 4D030000 		.4byte	0x34d
 1820 094a 14       		.byte	0x14
 1821 094b 06       		.uleb128 0x6
 1822 094c 85070000 		.4byte	.LASF155
 1823 0950 0D       		.byte	0xd
 1824 0951 70       		.byte	0x70
 1825 0952 4D030000 		.4byte	0x34d
 1826 0956 18       		.byte	0x18
 1827 0957 06       		.uleb128 0x6
 1828 0958 4D050000 		.4byte	.LASF156
 1829 095c 0D       		.byte	0xd
 1830 095d 71       		.byte	0x71
 1831 095e 4D030000 		.4byte	0x34d
 1832 0962 1C       		.byte	0x1c
 1833 0963 06       		.uleb128 0x6
 1834 0964 3C050000 		.4byte	.LASF157
 1835 0968 0D       		.byte	0xd
 1836 0969 73       		.byte	0x73
 1837 096a 4D030000 		.4byte	0x34d
 1838 096e 20       		.byte	0x20
 1839 096f 06       		.uleb128 0x6
 1840 0970 7C040000 		.4byte	.LASF158
 1841 0974 0D       		.byte	0xd
 1842 0975 75       		.byte	0x75
 1843 0976 4D030000 		.4byte	0x34d
 1844 097a 24       		.byte	0x24
 1845 097b 06       		.uleb128 0x6
 1846 097c 69010000 		.4byte	.LASF159
 1847 0980 0D       		.byte	0xd
 1848 0981 76       		.byte	0x76
 1849 0982 4D030000 		.4byte	0x34d
 1850 0986 28       		.byte	0x28
 1851 0987 06       		.uleb128 0x6
 1852 0988 570A0000 		.4byte	.LASF160
 1853 098c 0D       		.byte	0xd
 1854 098d 78       		.byte	0x78
 1855 098e 4D030000 		.4byte	0x34d
 1856 0992 2C       		.byte	0x2c
 1857 0993 06       		.uleb128 0x6
 1858 0994 780A0000 		.4byte	.LASF161
 1859 0998 0D       		.byte	0xd
 1860 0999 7A       		.byte	0x7a
 1861 099a 4D030000 		.4byte	0x34d
 1862 099e 30       		.byte	0x30
 1863 099f 06       		.uleb128 0x6
 1864 09a0 890A0000 		.4byte	.LASF162
 1865 09a4 0D       		.byte	0xd
 1866 09a5 7B       		.byte	0x7b
 1867 09a6 4D030000 		.4byte	0x34d
 1868 09aa 34       		.byte	0x34
 1869 09ab 06       		.uleb128 0x6
 1870 09ac 8F020000 		.4byte	.LASF163
 1871 09b0 0D       		.byte	0xd
 1872 09b1 7C       		.byte	0x7c
 1873 09b2 4D030000 		.4byte	0x34d
ARM GAS  /tmp/ccVu9HYc.s 			page 34


 1874 09b6 38       		.byte	0x38
 1875 09b7 07       		.uleb128 0x7
 1876 09b8 43494400 		.ascii	"CID\000"
 1877 09bc 0D       		.byte	0xd
 1878 09bd 7D       		.byte	0x7d
 1879 09be 4D030000 		.4byte	0x34d
 1880 09c2 3C       		.byte	0x3c
 1881 09c3 06       		.uleb128 0x6
 1882 09c4 3A0B0000 		.4byte	.LASF164
 1883 09c8 0D       		.byte	0xd
 1884 09c9 7E       		.byte	0x7e
 1885 09ca E50B0000 		.4byte	0xbe5
 1886 09ce 40       		.byte	0x40
 1887 09cf 1C       		.uleb128 0x1c
 1888 09d0 32080000 		.4byte	.LASF165
 1889 09d4 0D       		.byte	0xd
 1890 09d5 7F       		.byte	0x7f
 1891 09d6 4D030000 		.4byte	0x34d
 1892 09da 0001     		.2byte	0x100
 1893 09dc 1C       		.uleb128 0x1c
 1894 09dd A2040000 		.4byte	.LASF166
 1895 09e1 0D       		.byte	0xd
 1896 09e2 81       		.byte	0x81
 1897 09e3 FA0B0000 		.4byte	0xbfa
 1898 09e7 0401     		.2byte	0x104
 1899 09e9 1C       		.uleb128 0x1c
 1900 09ea A00B0000 		.4byte	.LASF167
 1901 09ee 0D       		.byte	0xd
 1902 09ef 83       		.byte	0x83
 1903 09f0 0F0C0000 		.4byte	0xc0f
 1904 09f4 4001     		.2byte	0x140
 1905 09f6 1C       		.uleb128 0x1c
 1906 09f7 BE020000 		.4byte	.LASF168
 1907 09fb 0D       		.byte	0xd
 1908 09fc 84       		.byte	0x84
 1909 09fd 4D030000 		.4byte	0x34d
 1910 0a01 0004     		.2byte	0x400
 1911 0a03 1C       		.uleb128 0x1c
 1912 0a04 560B0000 		.4byte	.LASF169
 1913 0a08 0D       		.byte	0xd
 1914 0a09 85       		.byte	0x85
 1915 0a0a 4D030000 		.4byte	0x34d
 1916 0a0e 0404     		.2byte	0x404
 1917 0a10 1C       		.uleb128 0x1c
 1918 0a11 66030000 		.4byte	.LASF170
 1919 0a15 0D       		.byte	0xd
 1920 0a16 86       		.byte	0x86
 1921 0a17 4D030000 		.4byte	0x34d
 1922 0a1b 0804     		.2byte	0x408
 1923 0a1d 1C       		.uleb128 0x1c
 1924 0a1e 25050000 		.4byte	.LASF171
 1925 0a22 0D       		.byte	0xd
 1926 0a23 88       		.byte	0x88
 1927 0a24 4D030000 		.4byte	0x34d
 1928 0a28 0C04     		.2byte	0x40c
 1929 0a2a 1C       		.uleb128 0x1c
 1930 0a2b 320B0000 		.4byte	.LASF172
ARM GAS  /tmp/ccVu9HYc.s 			page 35


 1931 0a2f 0D       		.byte	0xd
 1932 0a30 89       		.byte	0x89
 1933 0a31 4D030000 		.4byte	0x34d
 1934 0a35 1004     		.2byte	0x410
 1935 0a37 1C       		.uleb128 0x1c
 1936 0a38 F6060000 		.4byte	.LASF173
 1937 0a3c 0D       		.byte	0xd
 1938 0a3d 8B       		.byte	0x8b
 1939 0a3e 4D030000 		.4byte	0x34d
 1940 0a42 1404     		.2byte	0x414
 1941 0a44 1C       		.uleb128 0x1c
 1942 0a45 68070000 		.4byte	.LASF174
 1943 0a49 0D       		.byte	0xd
 1944 0a4a 8D       		.byte	0x8d
 1945 0a4b 4D030000 		.4byte	0x34d
 1946 0a4f 1804     		.2byte	0x418
 1947 0a51 1C       		.uleb128 0x1c
 1948 0a52 82060000 		.4byte	.LASF175
 1949 0a56 0D       		.byte	0xd
 1950 0a57 8F       		.byte	0x8f
 1951 0a58 240C0000 		.4byte	0xc24
 1952 0a5c 1C04     		.2byte	0x41c
 1953 0a5e 1C       		.uleb128 0x1c
 1954 0a5f F0020000 		.4byte	.LASF176
 1955 0a63 0D       		.byte	0xd
 1956 0a64 90       		.byte	0x90
 1957 0a65 4D030000 		.4byte	0x34d
 1958 0a69 4004     		.2byte	0x440
 1959 0a6b 1C       		.uleb128 0x1c
 1960 0a6c 4E070000 		.4byte	.LASF177
 1961 0a70 0D       		.byte	0xd
 1962 0a71 92       		.byte	0x92
 1963 0a72 390C0000 		.4byte	0xc39
 1964 0a76 4404     		.2byte	0x444
 1965 0a78 1D       		.uleb128 0x1d
 1966 0a79 686300   		.ascii	"hc\000"
 1967 0a7c 0D       		.byte	0xd
 1968 0a7d 93       		.byte	0x93
 1969 0a7e 3E0C0000 		.4byte	0xc3e
 1970 0a82 0005     		.2byte	0x500
 1971 0a84 1C       		.uleb128 0x1c
 1972 0a85 C1000000 		.4byte	.LASF178
 1973 0a89 0D       		.byte	0xd
 1974 0a8a 94       		.byte	0x94
 1975 0a8b 5E0C0000 		.4byte	0xc5e
 1976 0a8f 0007     		.2byte	0x700
 1977 0a91 1C       		.uleb128 0x1c
 1978 0a92 8A020000 		.4byte	.LASF179
 1979 0a96 0D       		.byte	0xd
 1980 0a97 95       		.byte	0x95
 1981 0a98 4D030000 		.4byte	0x34d
 1982 0a9c 0008     		.2byte	0x800
 1983 0a9e 1C       		.uleb128 0x1c
 1984 0a9f 5F080000 		.4byte	.LASF180
 1985 0aa3 0D       		.byte	0xd
 1986 0aa4 96       		.byte	0x96
 1987 0aa5 4D030000 		.4byte	0x34d
ARM GAS  /tmp/ccVu9HYc.s 			page 36


 1988 0aa9 0408     		.2byte	0x804
 1989 0aab 1C       		.uleb128 0x1c
 1990 0aac FB0A0000 		.4byte	.LASF181
 1991 0ab0 0D       		.byte	0xd
 1992 0ab1 97       		.byte	0x97
 1993 0ab2 4D030000 		.4byte	0x34d
 1994 0ab6 0808     		.2byte	0x808
 1995 0ab8 1C       		.uleb128 0x1c
 1996 0ab9 E7020000 		.4byte	.LASF182
 1997 0abd 0D       		.byte	0xd
 1998 0abe 98       		.byte	0x98
 1999 0abf 4D030000 		.4byte	0x34d
 2000 0ac3 0C08     		.2byte	0x80c
 2001 0ac5 1C       		.uleb128 0x1c
 2002 0ac6 030A0000 		.4byte	.LASF183
 2003 0aca 0D       		.byte	0xd
 2004 0acb 99       		.byte	0x99
 2005 0acc 4D030000 		.4byte	0x34d
 2006 0ad0 1008     		.2byte	0x810
 2007 0ad2 1C       		.uleb128 0x1c
 2008 0ad3 FB010000 		.4byte	.LASF184
 2009 0ad7 0D       		.byte	0xd
 2010 0ad8 9B       		.byte	0x9b
 2011 0ad9 4D030000 		.4byte	0x34d
 2012 0add 1408     		.2byte	0x814
 2013 0adf 1C       		.uleb128 0x1c
 2014 0ae0 DF010000 		.4byte	.LASF185
 2015 0ae4 0D       		.byte	0xd
 2016 0ae5 9D       		.byte	0x9d
 2017 0ae6 4D030000 		.4byte	0x34d
 2018 0aea 1808     		.2byte	0x818
 2019 0aec 1C       		.uleb128 0x1c
 2020 0aed C0080000 		.4byte	.LASF186
 2021 0af1 0D       		.byte	0xd
 2022 0af2 9F       		.byte	0x9f
 2023 0af3 4D030000 		.4byte	0x34d
 2024 0af7 1C08     		.2byte	0x81c
 2025 0af9 1C       		.uleb128 0x1c
 2026 0afa B5030000 		.4byte	.LASF187
 2027 0afe 0D       		.byte	0xd
 2028 0aff A1       		.byte	0xa1
 2029 0b00 4D030000 		.4byte	0x34d
 2030 0b04 2008     		.2byte	0x820
 2031 0b06 1C       		.uleb128 0x1c
 2032 0b07 BE030000 		.4byte	.LASF188
 2033 0b0b 0D       		.byte	0xd
 2034 0b0c A2       		.byte	0xa2
 2035 0b0d 4D030000 		.4byte	0x34d
 2036 0b11 2408     		.2byte	0x824
 2037 0b13 1C       		.uleb128 0x1c
 2038 0b14 C9080000 		.4byte	.LASF189
 2039 0b18 0D       		.byte	0xd
 2040 0b19 A3       		.byte	0xa3
 2041 0b1a 4D030000 		.4byte	0x34d
 2042 0b1e 2808     		.2byte	0x828
 2043 0b20 1C       		.uleb128 0x1c
 2044 0b21 E4030000 		.4byte	.LASF190
ARM GAS  /tmp/ccVu9HYc.s 			page 37


 2045 0b25 0D       		.byte	0xd
 2046 0b26 A5       		.byte	0xa5
 2047 0b27 4D030000 		.4byte	0x34d
 2048 0b2b 2C08     		.2byte	0x82c
 2049 0b2d 1C       		.uleb128 0x1c
 2050 0b2e 93060000 		.4byte	.LASF191
 2051 0b32 0D       		.byte	0xd
 2052 0b33 A7       		.byte	0xa7
 2053 0b34 4D030000 		.4byte	0x34d
 2054 0b38 3008     		.2byte	0x830
 2055 0b3a 1C       		.uleb128 0x1c
 2056 0b3b F9030000 		.4byte	.LASF192
 2057 0b3f 0D       		.byte	0xd
 2058 0b40 A8       		.byte	0xa8
 2059 0b41 4D030000 		.4byte	0x34d
 2060 0b45 3408     		.2byte	0x834
 2061 0b47 1C       		.uleb128 0x1c
 2062 0b48 50040000 		.4byte	.LASF193
 2063 0b4c 0D       		.byte	0xd
 2064 0b4d AA       		.byte	0xaa
 2065 0b4e 4D030000 		.4byte	0x34d
 2066 0b52 3808     		.2byte	0x838
 2067 0b54 1C       		.uleb128 0x1c
 2068 0b55 C2060000 		.4byte	.LASF194
 2069 0b59 0D       		.byte	0xd
 2070 0b5a AB       		.byte	0xab
 2071 0b5b 4D030000 		.4byte	0x34d
 2072 0b5f 3C08     		.2byte	0x83c
 2073 0b61 1C       		.uleb128 0x1c
 2074 0b62 8E040000 		.4byte	.LASF195
 2075 0b66 0D       		.byte	0xd
 2076 0b67 AC       		.byte	0xac
 2077 0b68 730C0000 		.4byte	0xc73
 2078 0b6c 4008     		.2byte	0x840
 2079 0b6e 1C       		.uleb128 0x1c
 2080 0b6f AC060000 		.4byte	.LASF196
 2081 0b73 0D       		.byte	0xd
 2082 0b74 AD       		.byte	0xad
 2083 0b75 780C0000 		.4byte	0xc78
 2084 0b79 8008     		.2byte	0x880
 2085 0b7b 1C       		.uleb128 0x1c
 2086 0b7c 800A0000 		.4byte	.LASF197
 2087 0b80 0D       		.byte	0xd
 2088 0b81 AE       		.byte	0xae
 2089 0b82 7D0C0000 		.4byte	0xc7d
 2090 0b86 C008     		.2byte	0x8c0
 2091 0b88 1D       		.uleb128 0x1d
 2092 0b89 696500   		.ascii	"ie\000"
 2093 0b8c 0D       		.byte	0xd
 2094 0b8d AF       		.byte	0xaf
 2095 0b8e 820C0000 		.4byte	0xc82
 2096 0b92 0009     		.2byte	0x900
 2097 0b94 1D       		.uleb128 0x1d
 2098 0b95 6F6500   		.ascii	"oe\000"
 2099 0b98 0D       		.byte	0xd
 2100 0b99 B0       		.byte	0xb0
 2101 0b9a 920C0000 		.4byte	0xc92
ARM GAS  /tmp/ccVu9HYc.s 			page 38


 2102 0b9e 000B     		.2byte	0xb00
 2103 0ba0 1C       		.uleb128 0x1c
 2104 0ba1 12080000 		.4byte	.LASF198
 2105 0ba5 0D       		.byte	0xd
 2106 0ba6 B1       		.byte	0xb1
 2107 0ba7 A20C0000 		.4byte	0xca2
 2108 0bab 000D     		.2byte	0xd00
 2109 0bad 1C       		.uleb128 0x1c
 2110 0bae 66050000 		.4byte	.LASF199
 2111 0bb2 0D       		.byte	0xd
 2112 0bb3 B2       		.byte	0xb2
 2113 0bb4 4D030000 		.4byte	0x34d
 2114 0bb8 000E     		.2byte	0xe00
 2115 0bba 1C       		.uleb128 0x1c
 2116 0bbb 6F0A0000 		.4byte	.LASF200
 2117 0bbf 0D       		.byte	0xd
 2118 0bc0 B4       		.byte	0xb4
 2119 0bc1 B70C0000 		.4byte	0xcb7
 2120 0bc5 040E     		.2byte	0xe04
 2121 0bc7 1C       		.uleb128 0x1c
 2122 0bc8 12090000 		.4byte	.LASF201
 2123 0bcc 0D       		.byte	0xd
 2124 0bcd B5       		.byte	0xb5
 2125 0bce D30C0000 		.4byte	0xcd3
 2126 0bd2 0010     		.2byte	0x1000
 2127 0bd4 00       		.byte	0
 2128 0bd5 1E       		.uleb128 0x1e
 2129 0bd6 4D030000 		.4byte	0x34d
 2130 0bda E50B0000 		.4byte	0xbe5
 2131 0bde 1F       		.uleb128 0x1f
 2132 0bdf 52030000 		.4byte	0x352
 2133 0be3 2F       		.byte	0x2f
 2134 0be4 00       		.byte	0
 2135 0be5 0D       		.uleb128 0xd
 2136 0be6 D50B0000 		.4byte	0xbd5
 2137 0bea 1E       		.uleb128 0x1e
 2138 0beb 4D030000 		.4byte	0x34d
 2139 0bef FA0B0000 		.4byte	0xbfa
 2140 0bf3 1F       		.uleb128 0x1f
 2141 0bf4 52030000 		.4byte	0x352
 2142 0bf8 0E       		.byte	0xe
 2143 0bf9 00       		.byte	0
 2144 0bfa 0D       		.uleb128 0xd
 2145 0bfb EA0B0000 		.4byte	0xbea
 2146 0bff 1E       		.uleb128 0x1e
 2147 0c00 4D030000 		.4byte	0x34d
 2148 0c04 0F0C0000 		.4byte	0xc0f
 2149 0c08 1F       		.uleb128 0x1f
 2150 0c09 52030000 		.4byte	0x352
 2151 0c0d AF       		.byte	0xaf
 2152 0c0e 00       		.byte	0
 2153 0c0f 0D       		.uleb128 0xd
 2154 0c10 FF0B0000 		.4byte	0xbff
 2155 0c14 1E       		.uleb128 0x1e
 2156 0c15 4D030000 		.4byte	0x34d
 2157 0c19 240C0000 		.4byte	0xc24
 2158 0c1d 1F       		.uleb128 0x1f
ARM GAS  /tmp/ccVu9HYc.s 			page 39


 2159 0c1e 52030000 		.4byte	0x352
 2160 0c22 08       		.byte	0x8
 2161 0c23 00       		.byte	0
 2162 0c24 0D       		.uleb128 0xd
 2163 0c25 140C0000 		.4byte	0xc14
 2164 0c29 1E       		.uleb128 0x1e
 2165 0c2a 4D030000 		.4byte	0x34d
 2166 0c2e 390C0000 		.4byte	0xc39
 2167 0c32 1F       		.uleb128 0x1f
 2168 0c33 52030000 		.4byte	0x352
 2169 0c37 2E       		.byte	0x2e
 2170 0c38 00       		.byte	0
 2171 0c39 0D       		.uleb128 0xd
 2172 0c3a 290C0000 		.4byte	0xc29
 2173 0c3e 1E       		.uleb128 0x1e
 2174 0c3f 05080000 		.4byte	0x805
 2175 0c43 4E0C0000 		.4byte	0xc4e
 2176 0c47 1F       		.uleb128 0x1f
 2177 0c48 52030000 		.4byte	0x352
 2178 0c4c 0F       		.byte	0xf
 2179 0c4d 00       		.byte	0
 2180 0c4e 1E       		.uleb128 0x1e
 2181 0c4f 4D030000 		.4byte	0x34d
 2182 0c53 5E0C0000 		.4byte	0xc5e
 2183 0c57 1F       		.uleb128 0x1f
 2184 0c58 52030000 		.4byte	0x352
 2185 0c5c 3F       		.byte	0x3f
 2186 0c5d 00       		.byte	0
 2187 0c5e 0D       		.uleb128 0xd
 2188 0c5f 4E0C0000 		.4byte	0xc4e
 2189 0c63 1E       		.uleb128 0x1e
 2190 0c64 4D030000 		.4byte	0x34d
 2191 0c68 730C0000 		.4byte	0xc73
 2192 0c6c 1F       		.uleb128 0x1f
 2193 0c6d 52030000 		.4byte	0x352
 2194 0c71 0F       		.byte	0xf
 2195 0c72 00       		.byte	0
 2196 0c73 0D       		.uleb128 0xd
 2197 0c74 630C0000 		.4byte	0xc63
 2198 0c78 0D       		.uleb128 0xd
 2199 0c79 630C0000 		.4byte	0xc63
 2200 0c7d 0D       		.uleb128 0xd
 2201 0c7e 630C0000 		.4byte	0xc63
 2202 0c82 1E       		.uleb128 0x1e
 2203 0c83 79080000 		.4byte	0x879
 2204 0c87 920C0000 		.4byte	0xc92
 2205 0c8b 1F       		.uleb128 0x1f
 2206 0c8c 52030000 		.4byte	0x352
 2207 0c90 0F       		.byte	0xf
 2208 0c91 00       		.byte	0
 2209 0c92 1E       		.uleb128 0x1e
 2210 0c93 ED080000 		.4byte	0x8ed
 2211 0c97 A20C0000 		.4byte	0xca2
 2212 0c9b 1F       		.uleb128 0x1f
 2213 0c9c 52030000 		.4byte	0x352
 2214 0ca0 0F       		.byte	0xf
 2215 0ca1 00       		.byte	0
ARM GAS  /tmp/ccVu9HYc.s 			page 40


 2216 0ca2 0D       		.uleb128 0xd
 2217 0ca3 4E0C0000 		.4byte	0xc4e
 2218 0ca7 1E       		.uleb128 0x1e
 2219 0ca8 4D030000 		.4byte	0x34d
 2220 0cac B70C0000 		.4byte	0xcb7
 2221 0cb0 1F       		.uleb128 0x1f
 2222 0cb1 52030000 		.4byte	0x352
 2223 0cb5 7E       		.byte	0x7e
 2224 0cb6 00       		.byte	0
 2225 0cb7 0D       		.uleb128 0xd
 2226 0cb8 A70C0000 		.4byte	0xca7
 2227 0cbc 1E       		.uleb128 0x1e
 2228 0cbd 4D030000 		.4byte	0x34d
 2229 0cc1 D30C0000 		.4byte	0xcd3
 2230 0cc5 1F       		.uleb128 0x1f
 2231 0cc6 52030000 		.4byte	0x352
 2232 0cca 0F       		.byte	0xf
 2233 0ccb 20       		.uleb128 0x20
 2234 0ccc 52030000 		.4byte	0x352
 2235 0cd0 FF03     		.2byte	0x3ff
 2236 0cd2 00       		.byte	0
 2237 0cd3 0D       		.uleb128 0xd
 2238 0cd4 BC0C0000 		.4byte	0xcbc
 2239 0cd8 03       		.uleb128 0x3
 2240 0cd9 25070000 		.4byte	.LASF202
 2241 0cdd 0D       		.byte	0xd
 2242 0cde B6       		.byte	0xb6
 2243 0cdf F8080000 		.4byte	0x8f8
 2244 0ce3 08       		.uleb128 0x8
 2245 0ce4 0C       		.byte	0xc
 2246 0ce5 0C       		.byte	0xc
 2247 0ce6 C6       		.byte	0xc6
 2248 0ce7 100D0000 		.4byte	0xd10
 2249 0ceb 06       		.uleb128 0x6
 2250 0cec 29000000 		.4byte	.LASF203
 2251 0cf0 0C       		.byte	0xc
 2252 0cf1 C7       		.byte	0xc7
 2253 0cf2 D5000000 		.4byte	0xd5
 2254 0cf6 00       		.byte	0
 2255 0cf7 06       		.uleb128 0x6
 2256 0cf8 E4080000 		.4byte	.LASF204
 2257 0cfc 0C       		.byte	0xc
 2258 0cfd C8       		.byte	0xc8
 2259 0cfe D5000000 		.4byte	0xd5
 2260 0d02 04       		.byte	0x4
 2261 0d03 06       		.uleb128 0x6
 2262 0d04 EF040000 		.4byte	.LASF205
 2263 0d08 0C       		.byte	0xc
 2264 0d09 C9       		.byte	0xc9
 2265 0d0a D5000000 		.4byte	0xd5
 2266 0d0e 08       		.byte	0x8
 2267 0d0f 00       		.byte	0
 2268 0d10 03       		.uleb128 0x3
 2269 0d11 12040000 		.4byte	.LASF206
 2270 0d15 0C       		.byte	0xc
 2271 0d16 CA       		.byte	0xca
 2272 0d17 E30C0000 		.4byte	0xce3
ARM GAS  /tmp/ccVu9HYc.s 			page 41


 2273 0d1b 08       		.uleb128 0x8
 2274 0d1c 04       		.byte	0x4
 2275 0d1d 0C       		.byte	0xc
 2276 0d1e DD       		.byte	0xdd
 2277 0d1f 300D0000 		.4byte	0xd30
 2278 0d23 06       		.uleb128 0x6
 2279 0d24 D0010000 		.4byte	.LASF207
 2280 0d28 0C       		.byte	0xc
 2281 0d29 E1       		.byte	0xe1
 2282 0d2a 9E040000 		.4byte	0x49e
 2283 0d2e 00       		.byte	0
 2284 0d2f 00       		.byte	0
 2285 0d30 08       		.uleb128 0x8
 2286 0d31 04       		.byte	0x4
 2287 0d32 0C       		.byte	0xc
 2288 0d33 E3       		.byte	0xe3
 2289 0d34 450D0000 		.4byte	0xd45
 2290 0d38 06       		.uleb128 0x6
 2291 0d39 F3090000 		.4byte	.LASF208
 2292 0d3d 0C       		.byte	0xc
 2293 0d3e E7       		.byte	0xe7
 2294 0d3f 450D0000 		.4byte	0xd45
 2295 0d43 00       		.byte	0
 2296 0d44 00       		.byte	0
 2297 0d45 09       		.uleb128 0x9
 2298 0d46 04       		.byte	0x4
 2299 0d47 93040000 		.4byte	0x493
 2300 0d4b 0E       		.uleb128 0xe
 2301 0d4c 04       		.byte	0x4
 2302 0d4d 0C       		.byte	0xc
 2303 0d4e DC       		.byte	0xdc
 2304 0d4f 6A0D0000 		.4byte	0xd6a
 2305 0d53 0F       		.uleb128 0xf
 2306 0d54 52080000 		.4byte	.LASF209
 2307 0d58 0C       		.byte	0xc
 2308 0d59 E2       		.byte	0xe2
 2309 0d5a 1B0D0000 		.4byte	0xd1b
 2310 0d5e 0F       		.uleb128 0xf
 2311 0d5f B2080000 		.4byte	.LASF210
 2312 0d63 0C       		.byte	0xc
 2313 0d64 E8       		.byte	0xe8
 2314 0d65 300D0000 		.4byte	0xd30
 2315 0d69 00       		.byte	0
 2316 0d6a 08       		.uleb128 0x8
 2317 0d6b 14       		.byte	0x14
 2318 0d6c 0C       		.byte	0xc
 2319 0d6d CF       		.byte	0xcf
 2320 0d6e AF0D0000 		.4byte	0xdaf
 2321 0d72 06       		.uleb128 0x6
 2322 0d73 840B0000 		.4byte	.LASF211
 2323 0d77 0C       		.byte	0xc
 2324 0d78 D3       		.byte	0xd3
 2325 0d79 EB000000 		.4byte	0xeb
 2326 0d7d 00       		.byte	0
 2327 0d7e 06       		.uleb128 0x6
 2328 0d7f 05050000 		.4byte	.LASF212
 2329 0d83 0C       		.byte	0xc
ARM GAS  /tmp/ccVu9HYc.s 			page 42


 2330 0d84 D7       		.byte	0xd7
 2331 0d85 2C000000 		.4byte	0x2c
 2332 0d89 04       		.byte	0x4
 2333 0d8a 06       		.uleb128 0x6
 2334 0d8b 9B010000 		.4byte	.LASF213
 2335 0d8f 0C       		.byte	0xc
 2336 0d90 DB       		.byte	0xdb
 2337 0d91 2C000000 		.4byte	0x2c
 2338 0d95 08       		.byte	0x8
 2339 0d96 06       		.uleb128 0x6
 2340 0d97 B5090000 		.4byte	.LASF214
 2341 0d9b 0C       		.byte	0xc
 2342 0d9c E9       		.byte	0xe9
 2343 0d9d 4B0D0000 		.4byte	0xd4b
 2344 0da1 0C       		.byte	0xc
 2345 0da2 06       		.uleb128 0x6
 2346 0da3 A4090000 		.4byte	.LASF215
 2347 0da7 0C       		.byte	0xc
 2348 0da8 ED       		.byte	0xed
 2349 0da9 2C000000 		.4byte	0x2c
 2350 0dad 10       		.byte	0x10
 2351 0dae 00       		.byte	0
 2352 0daf 03       		.uleb128 0x3
 2353 0db0 A2030000 		.4byte	.LASF216
 2354 0db4 0C       		.byte	0xc
 2355 0db5 EE       		.byte	0xee
 2356 0db6 6A0D0000 		.4byte	0xd6a
 2357 0dba 19       		.uleb128 0x19
 2358 0dbb 04       		.byte	0x4
 2359 0dbc 0C       		.byte	0xc
 2360 0dbd 0101     		.2byte	0x101
 2361 0dbf D10D0000 		.4byte	0xdd1
 2362 0dc3 14       		.uleb128 0x14
 2363 0dc4 36050000 		.4byte	.LASF217
 2364 0dc8 0C       		.byte	0xc
 2365 0dc9 0501     		.2byte	0x105
 2366 0dcb 82040000 		.4byte	0x482
 2367 0dcf 00       		.byte	0
 2368 0dd0 00       		.byte	0
 2369 0dd1 19       		.uleb128 0x19
 2370 0dd2 04       		.byte	0x4
 2371 0dd3 0C       		.byte	0xc
 2372 0dd4 0701     		.2byte	0x107
 2373 0dd6 E80D0000 		.4byte	0xde8
 2374 0dda 14       		.uleb128 0x14
 2375 0ddb B8080000 		.4byte	.LASF218
 2376 0ddf 0C       		.byte	0xc
 2377 0de0 0B01     		.2byte	0x10b
 2378 0de2 E80D0000 		.4byte	0xde8
 2379 0de6 00       		.byte	0
 2380 0de7 00       		.byte	0
 2381 0de8 09       		.uleb128 0x9
 2382 0de9 04       		.byte	0x4
 2383 0dea 88040000 		.4byte	0x488
 2384 0dee 21       		.uleb128 0x21
 2385 0def 04       		.byte	0x4
 2386 0df0 0C       		.byte	0xc
ARM GAS  /tmp/ccVu9HYc.s 			page 43


 2387 0df1 0001     		.2byte	0x100
 2388 0df3 100E0000 		.4byte	0xe10
 2389 0df7 22       		.uleb128 0x22
 2390 0df8 52080000 		.4byte	.LASF209
 2391 0dfc 0C       		.byte	0xc
 2392 0dfd 0601     		.2byte	0x106
 2393 0dff BA0D0000 		.4byte	0xdba
 2394 0e03 22       		.uleb128 0x22
 2395 0e04 B2080000 		.4byte	.LASF210
 2396 0e08 0C       		.byte	0xc
 2397 0e09 0C01     		.2byte	0x10c
 2398 0e0b D10D0000 		.4byte	0xdd1
 2399 0e0f 00       		.byte	0
 2400 0e10 08       		.uleb128 0x8
 2401 0e11 14       		.byte	0x14
 2402 0e12 0C       		.byte	0xc
 2403 0e13 F3       		.byte	0xf3
 2404 0e14 570E0000 		.4byte	0xe57
 2405 0e18 06       		.uleb128 0x6
 2406 0e19 7F080000 		.4byte	.LASF219
 2407 0e1d 0C       		.byte	0xc
 2408 0e1e F7       		.byte	0xf7
 2409 0e1f EB000000 		.4byte	0xeb
 2410 0e23 00       		.byte	0
 2411 0e24 06       		.uleb128 0x6
 2412 0e25 60020000 		.4byte	.LASF220
 2413 0e29 0C       		.byte	0xc
 2414 0e2a FB       		.byte	0xfb
 2415 0e2b 2C000000 		.4byte	0x2c
 2416 0e2f 04       		.byte	0x4
 2417 0e30 06       		.uleb128 0x6
 2418 0e31 14050000 		.4byte	.LASF221
 2419 0e35 0C       		.byte	0xc
 2420 0e36 FF       		.byte	0xff
 2421 0e37 2C000000 		.4byte	0x2c
 2422 0e3b 08       		.byte	0x8
 2423 0e3c 14       		.uleb128 0x14
 2424 0e3d B5090000 		.4byte	.LASF214
 2425 0e41 0C       		.byte	0xc
 2426 0e42 0D01     		.2byte	0x10d
 2427 0e44 EE0D0000 		.4byte	0xdee
 2428 0e48 0C       		.byte	0xc
 2429 0e49 14       		.uleb128 0x14
 2430 0e4a A4090000 		.4byte	.LASF215
 2431 0e4e 0C       		.byte	0xc
 2432 0e4f 1101     		.2byte	0x111
 2433 0e51 2C000000 		.4byte	0x2c
 2434 0e55 10       		.byte	0x10
 2435 0e56 00       		.byte	0
 2436 0e57 18       		.uleb128 0x18
 2437 0e58 FE070000 		.4byte	.LASF222
 2438 0e5c 0C       		.byte	0xc
 2439 0e5d 1201     		.2byte	0x112
 2440 0e5f 100E0000 		.4byte	0xe10
 2441 0e63 19       		.uleb128 0x19
 2442 0e64 24       		.byte	0x24
 2443 0e65 0C       		.byte	0xc
ARM GAS  /tmp/ccVu9HYc.s 			page 44


 2444 0e66 1801     		.2byte	0x118
 2445 0e68 EF0E0000 		.4byte	0xeef
 2446 0e6c 14       		.uleb128 0x14
 2447 0e6d F3000000 		.4byte	.LASF223
 2448 0e71 0C       		.byte	0xc
 2449 0e72 1C01     		.2byte	0x11c
 2450 0e74 D5000000 		.4byte	0xd5
 2451 0e78 00       		.byte	0
 2452 0e79 14       		.uleb128 0x14
 2453 0e7a 36030000 		.4byte	.LASF224
 2454 0e7e 0C       		.byte	0xc
 2455 0e7f 2701     		.2byte	0x127
 2456 0e81 FC060000 		.4byte	0x6fc
 2457 0e85 04       		.byte	0x4
 2458 0e86 14       		.uleb128 0x14
 2459 0e87 49030000 		.4byte	.LASF225
 2460 0e8b 0C       		.byte	0xc
 2461 0e8c 2D01     		.2byte	0x12d
 2462 0e8e FC060000 		.4byte	0x6fc
 2463 0e92 08       		.byte	0x8
 2464 0e93 14       		.uleb128 0x14
 2465 0e94 57070000 		.4byte	.LASF226
 2466 0e98 0C       		.byte	0xc
 2467 0e99 3301     		.2byte	0x133
 2468 0e9b FC060000 		.4byte	0x6fc
 2469 0e9f 0C       		.byte	0xc
 2470 0ea0 14       		.uleb128 0x14
 2471 0ea1 7A070000 		.4byte	.LASF227
 2472 0ea5 0C       		.byte	0xc
 2473 0ea6 3901     		.2byte	0x139
 2474 0ea8 BF000000 		.4byte	0xbf
 2475 0eac 10       		.byte	0x10
 2476 0ead 14       		.uleb128 0x14
 2477 0eae B1010000 		.4byte	.LASF228
 2478 0eb2 0C       		.byte	0xc
 2479 0eb3 3F01     		.2byte	0x13f
 2480 0eb5 BF000000 		.4byte	0xbf
 2481 0eb9 12       		.byte	0x12
 2482 0eba 14       		.uleb128 0x14
 2483 0ebb 44050000 		.4byte	.LASF229
 2484 0ebf 0C       		.byte	0xc
 2485 0ec0 4401     		.2byte	0x144
 2486 0ec2 EF0E0000 		.4byte	0xeef
 2487 0ec6 14       		.byte	0x14
 2488 0ec7 14       		.uleb128 0x14
 2489 0ec8 8D070000 		.4byte	.LASF230
 2490 0ecc 0C       		.byte	0xc
 2491 0ecd 4901     		.2byte	0x149
 2492 0ecf F50E0000 		.4byte	0xef5
 2493 0ed3 18       		.byte	0x18
 2494 0ed4 14       		.uleb128 0x14
 2495 0ed5 DC040000 		.4byte	.LASF231
 2496 0ed9 0C       		.byte	0xc
 2497 0eda 5001     		.2byte	0x150
 2498 0edc BF000000 		.4byte	0xbf
 2499 0ee0 1C       		.byte	0x1c
 2500 0ee1 14       		.uleb128 0x14
ARM GAS  /tmp/ccVu9HYc.s 			page 45


 2501 0ee2 38070000 		.4byte	.LASF232
 2502 0ee6 0C       		.byte	0xc
 2503 0ee7 5601     		.2byte	0x156
 2504 0ee9 82040000 		.4byte	0x482
 2505 0eed 20       		.byte	0x20
 2506 0eee 00       		.byte	0
 2507 0eef 09       		.uleb128 0x9
 2508 0ef0 04       		.byte	0x4
 2509 0ef1 AF0D0000 		.4byte	0xdaf
 2510 0ef5 09       		.uleb128 0x9
 2511 0ef6 04       		.byte	0x4
 2512 0ef7 570E0000 		.4byte	0xe57
 2513 0efb 18       		.uleb128 0x18
 2514 0efc 64080000 		.4byte	.LASF233
 2515 0f00 0C       		.byte	0xc
 2516 0f01 5701     		.2byte	0x157
 2517 0f03 630E0000 		.4byte	0xe63
 2518 0f07 19       		.uleb128 0x19
 2519 0f08 10       		.byte	0x10
 2520 0f09 0C       		.byte	0xc
 2521 0f0a 5C01     		.2byte	0x15c
 2522 0f0c 450F0000 		.4byte	0xf45
 2523 0f10 14       		.uleb128 0x14
 2524 0f11 53060000 		.4byte	.LASF234
 2525 0f15 0C       		.byte	0xc
 2526 0f16 6101     		.2byte	0x161
 2527 0f18 1E070000 		.4byte	0x71e
 2528 0f1c 00       		.byte	0
 2529 0f1d 14       		.uleb128 0x14
 2530 0f1e 000B0000 		.4byte	.LASF235
 2531 0f22 0C       		.byte	0xc
 2532 0f23 6601     		.2byte	0x166
 2533 0f25 61070000 		.4byte	0x761
 2534 0f29 04       		.byte	0x4
 2535 0f2a 14       		.uleb128 0x14
 2536 0f2b A7020000 		.4byte	.LASF236
 2537 0f2f 0C       		.byte	0xc
 2538 0f30 6C01     		.2byte	0x16c
 2539 0f32 40070000 		.4byte	0x740
 2540 0f36 08       		.byte	0x8
 2541 0f37 14       		.uleb128 0x14
 2542 0f38 680A0000 		.4byte	.LASF237
 2543 0f3c 0C       		.byte	0xc
 2544 0f3d 7001     		.2byte	0x170
 2545 0f3f D9060000 		.4byte	0x6d9
 2546 0f43 0C       		.byte	0xc
 2547 0f44 00       		.byte	0
 2548 0f45 18       		.uleb128 0x18
 2549 0f46 09070000 		.4byte	.LASF238
 2550 0f4a 0C       		.byte	0xc
 2551 0f4b 7201     		.2byte	0x172
 2552 0f4d 070F0000 		.4byte	0xf07
 2553 0f51 09       		.uleb128 0x9
 2554 0f52 04       		.byte	0x4
 2555 0f53 570F0000 		.4byte	0xf57
 2556 0f57 10       		.uleb128 0x10
 2557 0f58 450F0000 		.4byte	0xf45
ARM GAS  /tmp/ccVu9HYc.s 			page 46


 2558 0f5c 1E       		.uleb128 0x1e
 2559 0f5d 6C0F0000 		.4byte	0xf6c
 2560 0f61 6C0F0000 		.4byte	0xf6c
 2561 0f65 1F       		.uleb128 0x1f
 2562 0f66 52030000 		.4byte	0x352
 2563 0f6a 03       		.byte	0x3
 2564 0f6b 00       		.byte	0
 2565 0f6c 09       		.uleb128 0x9
 2566 0f6d 04       		.byte	0x4
 2567 0f6e 720F0000 		.4byte	0xf72
 2568 0f72 10       		.uleb128 0x10
 2569 0f73 FB0E0000 		.4byte	0xefb
 2570 0f77 1E       		.uleb128 0x1e
 2571 0f78 A3020000 		.4byte	0x2a3
 2572 0f7c 870F0000 		.4byte	0xf87
 2573 0f80 1F       		.uleb128 0x1f
 2574 0f81 52030000 		.4byte	0x352
 2575 0f85 02       		.byte	0x2
 2576 0f86 00       		.byte	0
 2577 0f87 1E       		.uleb128 0x1e
 2578 0f88 B4000000 		.4byte	0xb4
 2579 0f8c 970F0000 		.4byte	0xf97
 2580 0f90 1F       		.uleb128 0x1f
 2581 0f91 52030000 		.4byte	0x352
 2582 0f95 07       		.byte	0x7
 2583 0f96 00       		.byte	0
 2584 0f97 09       		.uleb128 0x9
 2585 0f98 04       		.byte	0x4
 2586 0f99 D80C0000 		.4byte	0xcd8
 2587 0f9d 09       		.uleb128 0x9
 2588 0f9e 04       		.byte	0x4
 2589 0f9f A30F0000 		.4byte	0xfa3
 2590 0fa3 10       		.uleb128 0x10
 2591 0fa4 100D0000 		.4byte	0xd10
 2592 0fa8 1E       		.uleb128 0x1e
 2593 0fa9 A5020000 		.4byte	0x2a5
 2594 0fad B80F0000 		.4byte	0xfb8
 2595 0fb1 1F       		.uleb128 0x1f
 2596 0fb2 52030000 		.4byte	0x352
 2597 0fb6 28       		.byte	0x28
 2598 0fb7 00       		.byte	0
 2599 0fb8 23       		.uleb128 0x23
 2600 0fb9 F10A0000 		.4byte	.LASF265
 2601 0fbd 01       		.byte	0x1
 2602 0fbe 7901     		.2byte	0x179
 2603 0fc0 01       		.byte	0x1
 2604 0fc1 FE0F0000 		.4byte	0xffe
 2605 0fc5 24       		.uleb128 0x24
 2606 0fc6 EA040000 		.4byte	.LASF239
 2607 0fca 01       		.byte	0x1
 2608 0fcb 7901     		.2byte	0x179
 2609 0fcd F6060000 		.4byte	0x6f6
 2610 0fd1 24       		.uleb128 0x24
 2611 0fd2 DF060000 		.4byte	.LASF240
 2612 0fd6 01       		.byte	0x1
 2613 0fd7 7901     		.2byte	0x179
 2614 0fd9 9D060000 		.4byte	0x69d
ARM GAS  /tmp/ccVu9HYc.s 			page 47


 2615 0fdd 25       		.uleb128 0x25
 2616 0fde EF0F0000 		.4byte	0xfef
 2617 0fe2 26       		.uleb128 0x26
 2618 0fe3 746D7000 		.ascii	"tmp\000"
 2619 0fe7 01       		.byte	0x1
 2620 0fe8 8001     		.2byte	0x180
 2621 0fea D5000000 		.4byte	0xd5
 2622 0fee 00       		.byte	0
 2623 0fef 27       		.uleb128 0x27
 2624 0ff0 26       		.uleb128 0x26
 2625 0ff1 746D7000 		.ascii	"tmp\000"
 2626 0ff5 01       		.byte	0x1
 2627 0ff6 8301     		.2byte	0x183
 2628 0ff8 D5000000 		.4byte	0xd5
 2629 0ffc 00       		.byte	0
 2630 0ffd 00       		.byte	0
 2631 0ffe 28       		.uleb128 0x28
 2632 0fff 84090000 		.4byte	.LASF266
 2633 1003 01       		.byte	0x1
 2634 1004 2D01     		.2byte	0x12d
 2635 1006 91070000 		.4byte	0x791
 2636 100a 00000000 		.4byte	.LFB118
 2637 100e 58000000 		.4byte	.LFE118-.LFB118
 2638 1012 01       		.uleb128 0x1
 2639 1013 9C       		.byte	0x9c
 2640 1014 57100000 		.4byte	0x1057
 2641 1018 29       		.uleb128 0x29
 2642 1019 EA040000 		.4byte	.LASF239
 2643 101d 01       		.byte	0x1
 2644 101e 2D01     		.2byte	0x12d
 2645 1020 F6060000 		.4byte	0x6f6
 2646 1024 00000000 		.4byte	.LLST0
 2647 1028 29       		.uleb128 0x29
 2648 1029 29090000 		.4byte	.LASF241
 2649 102d 01       		.byte	0x1
 2650 102e 2D01     		.2byte	0x12d
 2651 1030 B4000000 		.4byte	0xb4
 2652 1034 85000000 		.4byte	.LLST1
 2653 1038 2A       		.uleb128 0x2a
 2654 1039 06010000 		.4byte	.LASF242
 2655 103d 01       		.byte	0x1
 2656 103e 2D01     		.2byte	0x12d
 2657 1040 B4000000 		.4byte	0xb4
 2658 1044 01       		.uleb128 0x1
 2659 1045 52       		.byte	0x52
 2660 1046 29       		.uleb128 0x29
 2661 1047 C6090000 		.4byte	.LASF243
 2662 104b 01       		.byte	0x1
 2663 104c 2D01     		.2byte	0x12d
 2664 104e BF000000 		.4byte	0xbf
 2665 1052 A6000000 		.4byte	.LLST2
 2666 1056 00       		.byte	0
 2667 1057 2B       		.uleb128 0x2b
 2668 1058 B80F0000 		.4byte	0xfb8
 2669 105c 00000000 		.4byte	.LFB119
 2670 1060 34000000 		.4byte	.LFE119-.LFB119
 2671 1064 01       		.uleb128 0x1
ARM GAS  /tmp/ccVu9HYc.s 			page 48


 2672 1065 9C       		.byte	0x9c
 2673 1066 04110000 		.4byte	0x1104
 2674 106a 2C       		.uleb128 0x2c
 2675 106b C50F0000 		.4byte	0xfc5
 2676 106f C7000000 		.4byte	.LLST3
 2677 1073 2C       		.uleb128 0x2c
 2678 1074 D10F0000 		.4byte	0xfd1
 2679 1078 F0000000 		.4byte	.LLST4
 2680 107c 2D       		.uleb128 0x2d
 2681 107d 0A000000 		.4byte	.LBB8
 2682 1081 2A000000 		.4byte	.LBE8-.LBB8
 2683 1085 2C       		.uleb128 0x2c
 2684 1086 D10F0000 		.4byte	0xfd1
 2685 108a 1C010000 		.4byte	.LLST5
 2686 108e 2C       		.uleb128 0x2c
 2687 108f C50F0000 		.4byte	0xfc5
 2688 1093 30010000 		.4byte	.LLST6
 2689 1097 2E       		.uleb128 0x2e
 2690 1098 0A000000 		.4byte	.LBB10
 2691 109c 06000000 		.4byte	.LBE10-.LBB10
 2692 10a0 AC100000 		.4byte	0x10ac
 2693 10a4 2F       		.uleb128 0x2f
 2694 10a5 E20F0000 		.4byte	0xfe2
 2695 10a9 01       		.uleb128 0x1
 2696 10aa 53       		.byte	0x53
 2697 10ab 00       		.byte	0
 2698 10ac 2E       		.uleb128 0x2e
 2699 10ad 22000000 		.4byte	.LBB11
 2700 10b1 12000000 		.4byte	.LBE11-.LBB11
 2701 10b5 C1100000 		.4byte	0x10c1
 2702 10b9 2F       		.uleb128 0x2f
 2703 10ba F00F0000 		.4byte	0xff0
 2704 10be 01       		.uleb128 0x1
 2705 10bf 53       		.byte	0x53
 2706 10c0 00       		.byte	0
 2707 10c1 30       		.uleb128 0x30
 2708 10c2 18000000 		.4byte	.LVL15
 2709 10c6 E7120000 		.4byte	0x12e7
 2710 10ca E3100000 		.4byte	0x10e3
 2711 10ce 31       		.uleb128 0x31
 2712 10cf 01       		.uleb128 0x1
 2713 10d0 50       		.byte	0x50
 2714 10d1 02       		.uleb128 0x2
 2715 10d2 75       		.byte	0x75
 2716 10d3 00       		.sleb128 0
 2717 10d4 31       		.uleb128 0x31
 2718 10d5 01       		.uleb128 0x1
 2719 10d6 51       		.byte	0x51
 2720 10d7 01       		.uleb128 0x1
 2721 10d8 31       		.byte	0x31
 2722 10d9 31       		.uleb128 0x31
 2723 10da 01       		.uleb128 0x1
 2724 10db 52       		.byte	0x52
 2725 10dc 05       		.uleb128 0x5
 2726 10dd 03       		.byte	0x3
 2727 10de 00000000 		.4byte	.LANCHOR4
 2728 10e2 00       		.byte	0
ARM GAS  /tmp/ccVu9HYc.s 			page 49


 2729 10e3 32       		.uleb128 0x32
 2730 10e4 22000000 		.4byte	.LVL16
 2731 10e8 E7120000 		.4byte	0x12e7
 2732 10ec 31       		.uleb128 0x31
 2733 10ed 01       		.uleb128 0x1
 2734 10ee 50       		.byte	0x50
 2735 10ef 02       		.uleb128 0x2
 2736 10f0 75       		.byte	0x75
 2737 10f1 00       		.sleb128 0
 2738 10f2 31       		.uleb128 0x31
 2739 10f3 01       		.uleb128 0x1
 2740 10f4 51       		.byte	0x51
 2741 10f5 02       		.uleb128 0x2
 2742 10f6 74       		.byte	0x74
 2743 10f7 00       		.sleb128 0
 2744 10f8 31       		.uleb128 0x31
 2745 10f9 01       		.uleb128 0x1
 2746 10fa 52       		.byte	0x52
 2747 10fb 05       		.uleb128 0x5
 2748 10fc 03       		.byte	0x3
 2749 10fd 00000000 		.4byte	.LANCHOR5
 2750 1101 00       		.byte	0
 2751 1102 00       		.byte	0
 2752 1103 00       		.byte	0
 2753 1104 1E       		.uleb128 0x1e
 2754 1105 A4040000 		.4byte	0x4a4
 2755 1109 14110000 		.4byte	0x1114
 2756 110d 1F       		.uleb128 0x1f
 2757 110e 52030000 		.4byte	0x352
 2758 1112 11       		.byte	0x11
 2759 1113 00       		.byte	0
 2760 1114 33       		.uleb128 0x33
 2761 1115 97070000 		.4byte	.LASF244
 2762 1119 01       		.byte	0x1
 2763 111a 27       		.byte	0x27
 2764 111b 25110000 		.4byte	0x1125
 2765 111f 05       		.uleb128 0x5
 2766 1120 03       		.byte	0x3
 2767 1121 00000000 		.4byte	hid_device_descriptor_data
 2768 1125 10       		.uleb128 0x10
 2769 1126 04110000 		.4byte	0x1104
 2770 112a 33       		.uleb128 0x33
 2771 112b A20A0000 		.4byte	.LASF245
 2772 112f 01       		.byte	0x1
 2773 1130 3A       		.byte	0x3a
 2774 1131 97070000 		.4byte	0x797
 2775 1135 05       		.uleb128 0x5
 2776 1136 03       		.byte	0x3
 2777 1137 00000000 		.4byte	hid_device_descriptor
 2778 113b 1E       		.uleb128 0x1e
 2779 113c A4040000 		.4byte	0x4a4
 2780 1140 4B110000 		.4byte	0x114b
 2781 1144 1F       		.uleb128 0x1f
 2782 1145 52030000 		.4byte	0x352
 2783 1149 29       		.byte	0x29
 2784 114a 00       		.byte	0
 2785 114b 33       		.uleb128 0x33
ARM GAS  /tmp/ccVu9HYc.s 			page 50


 2786 114c 75000000 		.4byte	.LASF246
 2787 1150 01       		.byte	0x1
 2788 1151 43       		.byte	0x43
 2789 1152 5C110000 		.4byte	0x115c
 2790 1156 05       		.uleb128 0x5
 2791 1157 03       		.byte	0x3
 2792 1158 00000000 		.4byte	hid_generic_joystick_reporter_data
 2793 115c 10       		.uleb128 0x10
 2794 115d 3B110000 		.4byte	0x113b
 2795 1161 33       		.uleb128 0x33
 2796 1162 A3000000 		.4byte	.LASF247
 2797 1166 01       		.byte	0x1
 2798 1167 5B       		.byte	0x5b
 2799 1168 97070000 		.4byte	0x797
 2800 116c 05       		.uleb128 0x5
 2801 116d 03       		.byte	0x3
 2802 116e 00000000 		.4byte	hid_generic_joystick_reporter
 2803 1172 1E       		.uleb128 0x1e
 2804 1173 A4040000 		.4byte	0x4a4
 2805 1177 82110000 		.4byte	0x1182
 2806 117b 1F       		.uleb128 0x1f
 2807 117c 52030000 		.4byte	0x352
 2808 1180 98       		.byte	0x98
 2809 1181 00       		.byte	0
 2810 1182 33       		.uleb128 0x33
 2811 1183 4C000000 		.4byte	.LASF248
 2812 1187 01       		.byte	0x1
 2813 1188 60       		.byte	0x60
 2814 1189 93110000 		.4byte	0x1193
 2815 118d 05       		.uleb128 0x5
 2816 118e 03       		.byte	0x3
 2817 118f 00000000 		.4byte	hid_configuration_descriptor_data
 2818 1193 10       		.uleb128 0x10
 2819 1194 72110000 		.4byte	0x1172
 2820 1198 33       		.uleb128 0x33
 2821 1199 C7030000 		.4byte	.LASF249
 2822 119d 01       		.byte	0x1
 2823 119e E3       		.byte	0xe3
 2824 119f 97070000 		.4byte	0x797
 2825 11a3 05       		.uleb128 0x5
 2826 11a4 03       		.byte	0x3
 2827 11a5 00000000 		.4byte	hid_configuration_descriptor
 2828 11a9 1E       		.uleb128 0x1e
 2829 11aa A4040000 		.4byte	0x4a4
 2830 11ae B9110000 		.4byte	0x11b9
 2831 11b2 1F       		.uleb128 0x1f
 2832 11b3 52030000 		.4byte	0x352
 2833 11b7 03       		.byte	0x3
 2834 11b8 00       		.byte	0
 2835 11b9 33       		.uleb128 0x33
 2836 11ba 4A090000 		.4byte	.LASF250
 2837 11be 01       		.byte	0x1
 2838 11bf ED       		.byte	0xed
 2839 11c0 CA110000 		.4byte	0x11ca
 2840 11c4 05       		.uleb128 0x5
 2841 11c5 03       		.byte	0x3
 2842 11c6 00000000 		.4byte	hid_string0
ARM GAS  /tmp/ccVu9HYc.s 			page 51


 2843 11ca 10       		.uleb128 0x10
 2844 11cb A9110000 		.4byte	0x11a9
 2845 11cf 1E       		.uleb128 0x1e
 2846 11d0 A4040000 		.4byte	0x4a4
 2847 11d4 DF110000 		.4byte	0x11df
 2848 11d8 1F       		.uleb128 0x1f
 2849 11d9 52030000 		.4byte	0x352
 2850 11dd 2D       		.byte	0x2d
 2851 11de 00       		.byte	0
 2852 11df 33       		.uleb128 0x33
 2853 11e0 56090000 		.4byte	.LASF251
 2854 11e4 01       		.byte	0x1
 2855 11e5 F6       		.byte	0xf6
 2856 11e6 F0110000 		.4byte	0x11f0
 2857 11ea 05       		.uleb128 0x5
 2858 11eb 03       		.byte	0x3
 2859 11ec 00000000 		.4byte	hid_string1
 2860 11f0 10       		.uleb128 0x10
 2861 11f1 CF110000 		.4byte	0x11cf
 2862 11f5 1E       		.uleb128 0x1e
 2863 11f6 A4040000 		.4byte	0x4a4
 2864 11fa 05120000 		.4byte	0x1205
 2865 11fe 1F       		.uleb128 0x1f
 2866 11ff 52030000 		.4byte	0x352
 2867 1203 15       		.byte	0x15
 2868 1204 00       		.byte	0
 2869 1205 34       		.uleb128 0x34
 2870 1206 F1080000 		.4byte	.LASF252
 2871 120a 01       		.byte	0x1
 2872 120b 0101     		.2byte	0x101
 2873 120d 17120000 		.4byte	0x1217
 2874 1211 05       		.uleb128 0x5
 2875 1212 03       		.byte	0x3
 2876 1213 00000000 		.4byte	hid_string2
 2877 1217 10       		.uleb128 0x10
 2878 1218 F5110000 		.4byte	0x11f5
 2879 121c 1E       		.uleb128 0x1e
 2880 121d A4040000 		.4byte	0x4a4
 2881 1221 2C120000 		.4byte	0x122c
 2882 1225 1F       		.uleb128 0x1f
 2883 1226 52030000 		.4byte	0x352
 2884 122a 0F       		.byte	0xf
 2885 122b 00       		.byte	0
 2886 122c 34       		.uleb128 0x34
 2887 122d 6C090000 		.4byte	.LASF253
 2888 1231 01       		.byte	0x1
 2889 1232 0B01     		.2byte	0x10b
 2890 1234 3E120000 		.4byte	0x123e
 2891 1238 05       		.uleb128 0x5
 2892 1239 03       		.byte	0x3
 2893 123a 00000000 		.4byte	hid_string3
 2894 123e 10       		.uleb128 0x10
 2895 123f 1C120000 		.4byte	0x121c
 2896 1243 34       		.uleb128 0x34
 2897 1244 78090000 		.4byte	.LASF254
 2898 1248 01       		.byte	0x1
 2899 1249 1C01     		.2byte	0x11c
ARM GAS  /tmp/ccVu9HYc.s 			page 52


 2900 124b 55120000 		.4byte	0x1255
 2901 124f 05       		.uleb128 0x5
 2902 1250 03       		.byte	0x3
 2903 1251 00000000 		.4byte	hid_string4
 2904 1255 10       		.uleb128 0x10
 2905 1256 1C120000 		.4byte	0x121c
 2906 125a 1E       		.uleb128 0x1e
 2907 125b 97070000 		.4byte	0x797
 2908 125f 6A120000 		.4byte	0x126a
 2909 1263 1F       		.uleb128 0x1f
 2910 1264 52030000 		.4byte	0x352
 2911 1268 04       		.byte	0x4
 2912 1269 00       		.byte	0
 2913 126a 34       		.uleb128 0x34
 2914 126b BA090000 		.4byte	.LASF255
 2915 126f 01       		.byte	0x1
 2916 1270 2501     		.2byte	0x125
 2917 1272 7C120000 		.4byte	0x127c
 2918 1276 05       		.uleb128 0x5
 2919 1277 03       		.byte	0x3
 2920 1278 00000000 		.4byte	hid_strings
 2921 127c 10       		.uleb128 0x10
 2922 127d 5A120000 		.4byte	0x125a
 2923 1281 34       		.uleb128 0x34
 2924 1282 43010000 		.4byte	.LASF256
 2925 1286 01       		.byte	0x1
 2926 1287 4101     		.2byte	0x141
 2927 1289 AF0D0000 		.4byte	0xdaf
 2928 128d 05       		.uleb128 0x5
 2929 128e 03       		.byte	0x3
 2930 128f 00000000 		.4byte	ep1instate
 2931 1293 34       		.uleb128 0x34
 2932 1294 2C030000 		.4byte	.LASF257
 2933 1298 01       		.byte	0x1
 2934 1299 4401     		.2byte	0x144
 2935 129b 720F0000 		.4byte	0xf72
 2936 129f 05       		.uleb128 0x5
 2937 12a0 03       		.byte	0x3
 2938 12a1 00000000 		.4byte	ep1config
 2939 12a5 34       		.uleb128 0x34
 2940 12a6 E7070000 		.4byte	.LASF258
 2941 12aa 01       		.byte	0x1
 2942 12ab 5D01     		.2byte	0x15d
 2943 12ad 570E0000 		.4byte	0xe57
 2944 12b1 05       		.uleb128 0x5
 2945 12b2 03       		.byte	0x3
 2946 12b3 00000000 		.4byte	ep2outstate
 2947 12b7 34       		.uleb128 0x34
 2948 12b8 EF030000 		.4byte	.LASF259
 2949 12bc 01       		.byte	0x1
 2950 12bd 6001     		.2byte	0x160
 2951 12bf 720F0000 		.4byte	0xf72
 2952 12c3 05       		.uleb128 0x5
 2953 12c4 03       		.byte	0x3
 2954 12c5 00000000 		.4byte	ep2config
 2955 12c9 35       		.uleb128 0x35
 2956 12ca B5060000 		.4byte	.LASF260
ARM GAS  /tmp/ccVu9HYc.s 			page 53


 2957 12ce 0E       		.byte	0xe
 2958 12cf 9806     		.2byte	0x698
 2959 12d1 A9040000 		.4byte	0x4a9
 2960 12d5 36       		.uleb128 0x36
 2961 12d6 88080000 		.4byte	.LASF261
 2962 12da 01       		.byte	0x1
 2963 12db 9001     		.2byte	0x190
 2964 12dd 570F0000 		.4byte	0xf57
 2965 12e1 05       		.uleb128 0x5
 2966 12e2 03       		.byte	0x3
 2967 12e3 00000000 		.4byte	usbcfg
 2968 12e7 37       		.uleb128 0x37
 2969 12e8 A1080000 		.4byte	.LASF267
 2970 12ec A1080000 		.4byte	.LASF267
 2971 12f0 0B       		.byte	0xb
 2972 12f1 2D02     		.2byte	0x22d
 2973 12f3 00       		.byte	0
 2974              		.section	.debug_abbrev,"",%progbits
 2975              	.Ldebug_abbrev0:
 2976 0000 01       		.uleb128 0x1
 2977 0001 11       		.uleb128 0x11
 2978 0002 01       		.byte	0x1
 2979 0003 25       		.uleb128 0x25
 2980 0004 0E       		.uleb128 0xe
 2981 0005 13       		.uleb128 0x13
 2982 0006 0B       		.uleb128 0xb
 2983 0007 03       		.uleb128 0x3
 2984 0008 0E       		.uleb128 0xe
 2985 0009 1B       		.uleb128 0x1b
 2986 000a 0E       		.uleb128 0xe
 2987 000b 55       		.uleb128 0x55
 2988 000c 17       		.uleb128 0x17
 2989 000d 11       		.uleb128 0x11
 2990 000e 01       		.uleb128 0x1
 2991 000f 10       		.uleb128 0x10
 2992 0010 17       		.uleb128 0x17
 2993 0011 00       		.byte	0
 2994 0012 00       		.byte	0
 2995 0013 02       		.uleb128 0x2
 2996 0014 24       		.uleb128 0x24
 2997 0015 00       		.byte	0
 2998 0016 0B       		.uleb128 0xb
 2999 0017 0B       		.uleb128 0xb
 3000 0018 3E       		.uleb128 0x3e
 3001 0019 0B       		.uleb128 0xb
 3002 001a 03       		.uleb128 0x3
 3003 001b 08       		.uleb128 0x8
 3004 001c 00       		.byte	0
 3005 001d 00       		.byte	0
 3006 001e 03       		.uleb128 0x3
 3007 001f 16       		.uleb128 0x16
 3008 0020 00       		.byte	0
 3009 0021 03       		.uleb128 0x3
 3010 0022 0E       		.uleb128 0xe
 3011 0023 3A       		.uleb128 0x3a
 3012 0024 0B       		.uleb128 0xb
 3013 0025 3B       		.uleb128 0x3b
ARM GAS  /tmp/ccVu9HYc.s 			page 54


 3014 0026 0B       		.uleb128 0xb
 3015 0027 49       		.uleb128 0x49
 3016 0028 13       		.uleb128 0x13
 3017 0029 00       		.byte	0
 3018 002a 00       		.byte	0
 3019 002b 04       		.uleb128 0x4
 3020 002c 24       		.uleb128 0x24
 3021 002d 00       		.byte	0
 3022 002e 0B       		.uleb128 0xb
 3023 002f 0B       		.uleb128 0xb
 3024 0030 3E       		.uleb128 0x3e
 3025 0031 0B       		.uleb128 0xb
 3026 0032 03       		.uleb128 0x3
 3027 0033 0E       		.uleb128 0xe
 3028 0034 00       		.byte	0
 3029 0035 00       		.byte	0
 3030 0036 05       		.uleb128 0x5
 3031 0037 13       		.uleb128 0x13
 3032 0038 01       		.byte	0x1
 3033 0039 03       		.uleb128 0x3
 3034 003a 0E       		.uleb128 0xe
 3035 003b 0B       		.uleb128 0xb
 3036 003c 0B       		.uleb128 0xb
 3037 003d 3A       		.uleb128 0x3a
 3038 003e 0B       		.uleb128 0xb
 3039 003f 3B       		.uleb128 0x3b
 3040 0040 0B       		.uleb128 0xb
 3041 0041 01       		.uleb128 0x1
 3042 0042 13       		.uleb128 0x13
 3043 0043 00       		.byte	0
 3044 0044 00       		.byte	0
 3045 0045 06       		.uleb128 0x6
 3046 0046 0D       		.uleb128 0xd
 3047 0047 00       		.byte	0
 3048 0048 03       		.uleb128 0x3
 3049 0049 0E       		.uleb128 0xe
 3050 004a 3A       		.uleb128 0x3a
 3051 004b 0B       		.uleb128 0xb
 3052 004c 3B       		.uleb128 0x3b
 3053 004d 0B       		.uleb128 0xb
 3054 004e 49       		.uleb128 0x49
 3055 004f 13       		.uleb128 0x13
 3056 0050 38       		.uleb128 0x38
 3057 0051 0B       		.uleb128 0xb
 3058 0052 00       		.byte	0
 3059 0053 00       		.byte	0
 3060 0054 07       		.uleb128 0x7
 3061 0055 0D       		.uleb128 0xd
 3062 0056 00       		.byte	0
 3063 0057 03       		.uleb128 0x3
 3064 0058 08       		.uleb128 0x8
 3065 0059 3A       		.uleb128 0x3a
 3066 005a 0B       		.uleb128 0xb
 3067 005b 3B       		.uleb128 0x3b
 3068 005c 0B       		.uleb128 0xb
 3069 005d 49       		.uleb128 0x49
 3070 005e 13       		.uleb128 0x13
ARM GAS  /tmp/ccVu9HYc.s 			page 55


 3071 005f 38       		.uleb128 0x38
 3072 0060 0B       		.uleb128 0xb
 3073 0061 00       		.byte	0
 3074 0062 00       		.byte	0
 3075 0063 08       		.uleb128 0x8
 3076 0064 13       		.uleb128 0x13
 3077 0065 01       		.byte	0x1
 3078 0066 0B       		.uleb128 0xb
 3079 0067 0B       		.uleb128 0xb
 3080 0068 3A       		.uleb128 0x3a
 3081 0069 0B       		.uleb128 0xb
 3082 006a 3B       		.uleb128 0x3b
 3083 006b 0B       		.uleb128 0xb
 3084 006c 01       		.uleb128 0x1
 3085 006d 13       		.uleb128 0x13
 3086 006e 00       		.byte	0
 3087 006f 00       		.byte	0
 3088 0070 09       		.uleb128 0x9
 3089 0071 0F       		.uleb128 0xf
 3090 0072 00       		.byte	0
 3091 0073 0B       		.uleb128 0xb
 3092 0074 0B       		.uleb128 0xb
 3093 0075 49       		.uleb128 0x49
 3094 0076 13       		.uleb128 0x13
 3095 0077 00       		.byte	0
 3096 0078 00       		.byte	0
 3097 0079 0A       		.uleb128 0xa
 3098 007a 0F       		.uleb128 0xf
 3099 007b 00       		.byte	0
 3100 007c 0B       		.uleb128 0xb
 3101 007d 0B       		.uleb128 0xb
 3102 007e 00       		.byte	0
 3103 007f 00       		.byte	0
 3104 0080 0B       		.uleb128 0xb
 3105 0081 13       		.uleb128 0x13
 3106 0082 01       		.byte	0x1
 3107 0083 03       		.uleb128 0x3
 3108 0084 0E       		.uleb128 0xe
 3109 0085 0B       		.uleb128 0xb
 3110 0086 0B       		.uleb128 0xb
 3111 0087 3A       		.uleb128 0x3a
 3112 0088 0B       		.uleb128 0xb
 3113 0089 3B       		.uleb128 0x3b
 3114 008a 05       		.uleb128 0x5
 3115 008b 01       		.uleb128 0x1
 3116 008c 13       		.uleb128 0x13
 3117 008d 00       		.byte	0
 3118 008e 00       		.byte	0
 3119 008f 0C       		.uleb128 0xc
 3120 0090 0D       		.uleb128 0xd
 3121 0091 00       		.byte	0
 3122 0092 03       		.uleb128 0x3
 3123 0093 08       		.uleb128 0x8
 3124 0094 3A       		.uleb128 0x3a
 3125 0095 0B       		.uleb128 0xb
 3126 0096 3B       		.uleb128 0x3b
 3127 0097 05       		.uleb128 0x5
ARM GAS  /tmp/ccVu9HYc.s 			page 56


 3128 0098 49       		.uleb128 0x49
 3129 0099 13       		.uleb128 0x13
 3130 009a 38       		.uleb128 0x38
 3131 009b 0B       		.uleb128 0xb
 3132 009c 00       		.byte	0
 3133 009d 00       		.byte	0
 3134 009e 0D       		.uleb128 0xd
 3135 009f 35       		.uleb128 0x35
 3136 00a0 00       		.byte	0
 3137 00a1 49       		.uleb128 0x49
 3138 00a2 13       		.uleb128 0x13
 3139 00a3 00       		.byte	0
 3140 00a4 00       		.byte	0
 3141 00a5 0E       		.uleb128 0xe
 3142 00a6 17       		.uleb128 0x17
 3143 00a7 01       		.byte	0x1
 3144 00a8 0B       		.uleb128 0xb
 3145 00a9 0B       		.uleb128 0xb
 3146 00aa 3A       		.uleb128 0x3a
 3147 00ab 0B       		.uleb128 0xb
 3148 00ac 3B       		.uleb128 0x3b
 3149 00ad 0B       		.uleb128 0xb
 3150 00ae 01       		.uleb128 0x1
 3151 00af 13       		.uleb128 0x13
 3152 00b0 00       		.byte	0
 3153 00b1 00       		.byte	0
 3154 00b2 0F       		.uleb128 0xf
 3155 00b3 0D       		.uleb128 0xd
 3156 00b4 00       		.byte	0
 3157 00b5 03       		.uleb128 0x3
 3158 00b6 0E       		.uleb128 0xe
 3159 00b7 3A       		.uleb128 0x3a
 3160 00b8 0B       		.uleb128 0xb
 3161 00b9 3B       		.uleb128 0x3b
 3162 00ba 0B       		.uleb128 0xb
 3163 00bb 49       		.uleb128 0x49
 3164 00bc 13       		.uleb128 0x13
 3165 00bd 00       		.byte	0
 3166 00be 00       		.byte	0
 3167 00bf 10       		.uleb128 0x10
 3168 00c0 26       		.uleb128 0x26
 3169 00c1 00       		.byte	0
 3170 00c2 49       		.uleb128 0x49
 3171 00c3 13       		.uleb128 0x13
 3172 00c4 00       		.byte	0
 3173 00c5 00       		.byte	0
 3174 00c6 11       		.uleb128 0x11
 3175 00c7 15       		.uleb128 0x15
 3176 00c8 01       		.byte	0x1
 3177 00c9 27       		.uleb128 0x27
 3178 00ca 19       		.uleb128 0x19
 3179 00cb 01       		.uleb128 0x1
 3180 00cc 13       		.uleb128 0x13
 3181 00cd 00       		.byte	0
 3182 00ce 00       		.byte	0
 3183 00cf 12       		.uleb128 0x12
 3184 00d0 05       		.uleb128 0x5
ARM GAS  /tmp/ccVu9HYc.s 			page 57


 3185 00d1 00       		.byte	0
 3186 00d2 49       		.uleb128 0x49
 3187 00d3 13       		.uleb128 0x13
 3188 00d4 00       		.byte	0
 3189 00d5 00       		.byte	0
 3190 00d6 13       		.uleb128 0x13
 3191 00d7 13       		.uleb128 0x13
 3192 00d8 01       		.byte	0x1
 3193 00d9 03       		.uleb128 0x3
 3194 00da 0E       		.uleb128 0xe
 3195 00db 0B       		.uleb128 0xb
 3196 00dc 05       		.uleb128 0x5
 3197 00dd 3A       		.uleb128 0x3a
 3198 00de 0B       		.uleb128 0xb
 3199 00df 3B       		.uleb128 0x3b
 3200 00e0 05       		.uleb128 0x5
 3201 00e1 01       		.uleb128 0x1
 3202 00e2 13       		.uleb128 0x13
 3203 00e3 00       		.byte	0
 3204 00e4 00       		.byte	0
 3205 00e5 14       		.uleb128 0x14
 3206 00e6 0D       		.uleb128 0xd
 3207 00e7 00       		.byte	0
 3208 00e8 03       		.uleb128 0x3
 3209 00e9 0E       		.uleb128 0xe
 3210 00ea 3A       		.uleb128 0x3a
 3211 00eb 0B       		.uleb128 0xb
 3212 00ec 3B       		.uleb128 0x3b
 3213 00ed 05       		.uleb128 0x5
 3214 00ee 49       		.uleb128 0x49
 3215 00ef 13       		.uleb128 0x13
 3216 00f0 38       		.uleb128 0x38
 3217 00f1 0B       		.uleb128 0xb
 3218 00f2 00       		.byte	0
 3219 00f3 00       		.byte	0
 3220 00f4 15       		.uleb128 0x15
 3221 00f5 04       		.uleb128 0x4
 3222 00f6 01       		.byte	0x1
 3223 00f7 0B       		.uleb128 0xb
 3224 00f8 0B       		.uleb128 0xb
 3225 00f9 49       		.uleb128 0x49
 3226 00fa 13       		.uleb128 0x13
 3227 00fb 3A       		.uleb128 0x3a
 3228 00fc 0B       		.uleb128 0xb
 3229 00fd 3B       		.uleb128 0x3b
 3230 00fe 0B       		.uleb128 0xb
 3231 00ff 01       		.uleb128 0x1
 3232 0100 13       		.uleb128 0x13
 3233 0101 00       		.byte	0
 3234 0102 00       		.byte	0
 3235 0103 16       		.uleb128 0x16
 3236 0104 28       		.uleb128 0x28
 3237 0105 00       		.byte	0
 3238 0106 03       		.uleb128 0x3
 3239 0107 0E       		.uleb128 0xe
 3240 0108 1C       		.uleb128 0x1c
 3241 0109 0B       		.uleb128 0xb
ARM GAS  /tmp/ccVu9HYc.s 			page 58


 3242 010a 00       		.byte	0
 3243 010b 00       		.byte	0
 3244 010c 17       		.uleb128 0x17
 3245 010d 04       		.uleb128 0x4
 3246 010e 01       		.byte	0x1
 3247 010f 0B       		.uleb128 0xb
 3248 0110 0B       		.uleb128 0xb
 3249 0111 49       		.uleb128 0x49
 3250 0112 13       		.uleb128 0x13
 3251 0113 3A       		.uleb128 0x3a
 3252 0114 0B       		.uleb128 0xb
 3253 0115 3B       		.uleb128 0x3b
 3254 0116 05       		.uleb128 0x5
 3255 0117 01       		.uleb128 0x1
 3256 0118 13       		.uleb128 0x13
 3257 0119 00       		.byte	0
 3258 011a 00       		.byte	0
 3259 011b 18       		.uleb128 0x18
 3260 011c 16       		.uleb128 0x16
 3261 011d 00       		.byte	0
 3262 011e 03       		.uleb128 0x3
 3263 011f 0E       		.uleb128 0xe
 3264 0120 3A       		.uleb128 0x3a
 3265 0121 0B       		.uleb128 0xb
 3266 0122 3B       		.uleb128 0x3b
 3267 0123 05       		.uleb128 0x5
 3268 0124 49       		.uleb128 0x49
 3269 0125 13       		.uleb128 0x13
 3270 0126 00       		.byte	0
 3271 0127 00       		.byte	0
 3272 0128 19       		.uleb128 0x19
 3273 0129 13       		.uleb128 0x13
 3274 012a 01       		.byte	0x1
 3275 012b 0B       		.uleb128 0xb
 3276 012c 0B       		.uleb128 0xb
 3277 012d 3A       		.uleb128 0x3a
 3278 012e 0B       		.uleb128 0xb
 3279 012f 3B       		.uleb128 0x3b
 3280 0130 05       		.uleb128 0x5
 3281 0131 01       		.uleb128 0x1
 3282 0132 13       		.uleb128 0x13
 3283 0133 00       		.byte	0
 3284 0134 00       		.byte	0
 3285 0135 1A       		.uleb128 0x1a
 3286 0136 15       		.uleb128 0x15
 3287 0137 01       		.byte	0x1
 3288 0138 27       		.uleb128 0x27
 3289 0139 19       		.uleb128 0x19
 3290 013a 49       		.uleb128 0x49
 3291 013b 13       		.uleb128 0x13
 3292 013c 01       		.uleb128 0x1
 3293 013d 13       		.uleb128 0x13
 3294 013e 00       		.byte	0
 3295 013f 00       		.byte	0
 3296 0140 1B       		.uleb128 0x1b
 3297 0141 13       		.uleb128 0x13
 3298 0142 01       		.byte	0x1
ARM GAS  /tmp/ccVu9HYc.s 			page 59


 3299 0143 0B       		.uleb128 0xb
 3300 0144 06       		.uleb128 0x6
 3301 0145 3A       		.uleb128 0x3a
 3302 0146 0B       		.uleb128 0xb
 3303 0147 3B       		.uleb128 0x3b
 3304 0148 0B       		.uleb128 0xb
 3305 0149 01       		.uleb128 0x1
 3306 014a 13       		.uleb128 0x13
 3307 014b 00       		.byte	0
 3308 014c 00       		.byte	0
 3309 014d 1C       		.uleb128 0x1c
 3310 014e 0D       		.uleb128 0xd
 3311 014f 00       		.byte	0
 3312 0150 03       		.uleb128 0x3
 3313 0151 0E       		.uleb128 0xe
 3314 0152 3A       		.uleb128 0x3a
 3315 0153 0B       		.uleb128 0xb
 3316 0154 3B       		.uleb128 0x3b
 3317 0155 0B       		.uleb128 0xb
 3318 0156 49       		.uleb128 0x49
 3319 0157 13       		.uleb128 0x13
 3320 0158 38       		.uleb128 0x38
 3321 0159 05       		.uleb128 0x5
 3322 015a 00       		.byte	0
 3323 015b 00       		.byte	0
 3324 015c 1D       		.uleb128 0x1d
 3325 015d 0D       		.uleb128 0xd
 3326 015e 00       		.byte	0
 3327 015f 03       		.uleb128 0x3
 3328 0160 08       		.uleb128 0x8
 3329 0161 3A       		.uleb128 0x3a
 3330 0162 0B       		.uleb128 0xb
 3331 0163 3B       		.uleb128 0x3b
 3332 0164 0B       		.uleb128 0xb
 3333 0165 49       		.uleb128 0x49
 3334 0166 13       		.uleb128 0x13
 3335 0167 38       		.uleb128 0x38
 3336 0168 05       		.uleb128 0x5
 3337 0169 00       		.byte	0
 3338 016a 00       		.byte	0
 3339 016b 1E       		.uleb128 0x1e
 3340 016c 01       		.uleb128 0x1
 3341 016d 01       		.byte	0x1
 3342 016e 49       		.uleb128 0x49
 3343 016f 13       		.uleb128 0x13
 3344 0170 01       		.uleb128 0x1
 3345 0171 13       		.uleb128 0x13
 3346 0172 00       		.byte	0
 3347 0173 00       		.byte	0
 3348 0174 1F       		.uleb128 0x1f
 3349 0175 21       		.uleb128 0x21
 3350 0176 00       		.byte	0
 3351 0177 49       		.uleb128 0x49
 3352 0178 13       		.uleb128 0x13
 3353 0179 2F       		.uleb128 0x2f
 3354 017a 0B       		.uleb128 0xb
 3355 017b 00       		.byte	0
ARM GAS  /tmp/ccVu9HYc.s 			page 60


 3356 017c 00       		.byte	0
 3357 017d 20       		.uleb128 0x20
 3358 017e 21       		.uleb128 0x21
 3359 017f 00       		.byte	0
 3360 0180 49       		.uleb128 0x49
 3361 0181 13       		.uleb128 0x13
 3362 0182 2F       		.uleb128 0x2f
 3363 0183 05       		.uleb128 0x5
 3364 0184 00       		.byte	0
 3365 0185 00       		.byte	0
 3366 0186 21       		.uleb128 0x21
 3367 0187 17       		.uleb128 0x17
 3368 0188 01       		.byte	0x1
 3369 0189 0B       		.uleb128 0xb
 3370 018a 0B       		.uleb128 0xb
 3371 018b 3A       		.uleb128 0x3a
 3372 018c 0B       		.uleb128 0xb
 3373 018d 3B       		.uleb128 0x3b
 3374 018e 05       		.uleb128 0x5
 3375 018f 01       		.uleb128 0x1
 3376 0190 13       		.uleb128 0x13
 3377 0191 00       		.byte	0
 3378 0192 00       		.byte	0
 3379 0193 22       		.uleb128 0x22
 3380 0194 0D       		.uleb128 0xd
 3381 0195 00       		.byte	0
 3382 0196 03       		.uleb128 0x3
 3383 0197 0E       		.uleb128 0xe
 3384 0198 3A       		.uleb128 0x3a
 3385 0199 0B       		.uleb128 0xb
 3386 019a 3B       		.uleb128 0x3b
 3387 019b 05       		.uleb128 0x5
 3388 019c 49       		.uleb128 0x49
 3389 019d 13       		.uleb128 0x13
 3390 019e 00       		.byte	0
 3391 019f 00       		.byte	0
 3392 01a0 23       		.uleb128 0x23
 3393 01a1 2E       		.uleb128 0x2e
 3394 01a2 01       		.byte	0x1
 3395 01a3 03       		.uleb128 0x3
 3396 01a4 0E       		.uleb128 0xe
 3397 01a5 3A       		.uleb128 0x3a
 3398 01a6 0B       		.uleb128 0xb
 3399 01a7 3B       		.uleb128 0x3b
 3400 01a8 05       		.uleb128 0x5
 3401 01a9 27       		.uleb128 0x27
 3402 01aa 19       		.uleb128 0x19
 3403 01ab 20       		.uleb128 0x20
 3404 01ac 0B       		.uleb128 0xb
 3405 01ad 01       		.uleb128 0x1
 3406 01ae 13       		.uleb128 0x13
 3407 01af 00       		.byte	0
 3408 01b0 00       		.byte	0
 3409 01b1 24       		.uleb128 0x24
 3410 01b2 05       		.uleb128 0x5
 3411 01b3 00       		.byte	0
 3412 01b4 03       		.uleb128 0x3
ARM GAS  /tmp/ccVu9HYc.s 			page 61


 3413 01b5 0E       		.uleb128 0xe
 3414 01b6 3A       		.uleb128 0x3a
 3415 01b7 0B       		.uleb128 0xb
 3416 01b8 3B       		.uleb128 0x3b
 3417 01b9 05       		.uleb128 0x5
 3418 01ba 49       		.uleb128 0x49
 3419 01bb 13       		.uleb128 0x13
 3420 01bc 00       		.byte	0
 3421 01bd 00       		.byte	0
 3422 01be 25       		.uleb128 0x25
 3423 01bf 0B       		.uleb128 0xb
 3424 01c0 01       		.byte	0x1
 3425 01c1 01       		.uleb128 0x1
 3426 01c2 13       		.uleb128 0x13
 3427 01c3 00       		.byte	0
 3428 01c4 00       		.byte	0
 3429 01c5 26       		.uleb128 0x26
 3430 01c6 34       		.uleb128 0x34
 3431 01c7 00       		.byte	0
 3432 01c8 03       		.uleb128 0x3
 3433 01c9 08       		.uleb128 0x8
 3434 01ca 3A       		.uleb128 0x3a
 3435 01cb 0B       		.uleb128 0xb
 3436 01cc 3B       		.uleb128 0x3b
 3437 01cd 05       		.uleb128 0x5
 3438 01ce 49       		.uleb128 0x49
 3439 01cf 13       		.uleb128 0x13
 3440 01d0 00       		.byte	0
 3441 01d1 00       		.byte	0
 3442 01d2 27       		.uleb128 0x27
 3443 01d3 0B       		.uleb128 0xb
 3444 01d4 01       		.byte	0x1
 3445 01d5 00       		.byte	0
 3446 01d6 00       		.byte	0
 3447 01d7 28       		.uleb128 0x28
 3448 01d8 2E       		.uleb128 0x2e
 3449 01d9 01       		.byte	0x1
 3450 01da 03       		.uleb128 0x3
 3451 01db 0E       		.uleb128 0xe
 3452 01dc 3A       		.uleb128 0x3a
 3453 01dd 0B       		.uleb128 0xb
 3454 01de 3B       		.uleb128 0x3b
 3455 01df 05       		.uleb128 0x5
 3456 01e0 27       		.uleb128 0x27
 3457 01e1 19       		.uleb128 0x19
 3458 01e2 49       		.uleb128 0x49
 3459 01e3 13       		.uleb128 0x13
 3460 01e4 11       		.uleb128 0x11
 3461 01e5 01       		.uleb128 0x1
 3462 01e6 12       		.uleb128 0x12
 3463 01e7 06       		.uleb128 0x6
 3464 01e8 40       		.uleb128 0x40
 3465 01e9 18       		.uleb128 0x18
 3466 01ea 9742     		.uleb128 0x2117
 3467 01ec 19       		.uleb128 0x19
 3468 01ed 01       		.uleb128 0x1
 3469 01ee 13       		.uleb128 0x13
ARM GAS  /tmp/ccVu9HYc.s 			page 62


 3470 01ef 00       		.byte	0
 3471 01f0 00       		.byte	0
 3472 01f1 29       		.uleb128 0x29
 3473 01f2 05       		.uleb128 0x5
 3474 01f3 00       		.byte	0
 3475 01f4 03       		.uleb128 0x3
 3476 01f5 0E       		.uleb128 0xe
 3477 01f6 3A       		.uleb128 0x3a
 3478 01f7 0B       		.uleb128 0xb
 3479 01f8 3B       		.uleb128 0x3b
 3480 01f9 05       		.uleb128 0x5
 3481 01fa 49       		.uleb128 0x49
 3482 01fb 13       		.uleb128 0x13
 3483 01fc 02       		.uleb128 0x2
 3484 01fd 17       		.uleb128 0x17
 3485 01fe 00       		.byte	0
 3486 01ff 00       		.byte	0
 3487 0200 2A       		.uleb128 0x2a
 3488 0201 05       		.uleb128 0x5
 3489 0202 00       		.byte	0
 3490 0203 03       		.uleb128 0x3
 3491 0204 0E       		.uleb128 0xe
 3492 0205 3A       		.uleb128 0x3a
 3493 0206 0B       		.uleb128 0xb
 3494 0207 3B       		.uleb128 0x3b
 3495 0208 05       		.uleb128 0x5
 3496 0209 49       		.uleb128 0x49
 3497 020a 13       		.uleb128 0x13
 3498 020b 02       		.uleb128 0x2
 3499 020c 18       		.uleb128 0x18
 3500 020d 00       		.byte	0
 3501 020e 00       		.byte	0
 3502 020f 2B       		.uleb128 0x2b
 3503 0210 2E       		.uleb128 0x2e
 3504 0211 01       		.byte	0x1
 3505 0212 31       		.uleb128 0x31
 3506 0213 13       		.uleb128 0x13
 3507 0214 11       		.uleb128 0x11
 3508 0215 01       		.uleb128 0x1
 3509 0216 12       		.uleb128 0x12
 3510 0217 06       		.uleb128 0x6
 3511 0218 40       		.uleb128 0x40
 3512 0219 18       		.uleb128 0x18
 3513 021a 9742     		.uleb128 0x2117
 3514 021c 19       		.uleb128 0x19
 3515 021d 01       		.uleb128 0x1
 3516 021e 13       		.uleb128 0x13
 3517 021f 00       		.byte	0
 3518 0220 00       		.byte	0
 3519 0221 2C       		.uleb128 0x2c
 3520 0222 05       		.uleb128 0x5
 3521 0223 00       		.byte	0
 3522 0224 31       		.uleb128 0x31
 3523 0225 13       		.uleb128 0x13
 3524 0226 02       		.uleb128 0x2
 3525 0227 17       		.uleb128 0x17
 3526 0228 00       		.byte	0
ARM GAS  /tmp/ccVu9HYc.s 			page 63


 3527 0229 00       		.byte	0
 3528 022a 2D       		.uleb128 0x2d
 3529 022b 0B       		.uleb128 0xb
 3530 022c 01       		.byte	0x1
 3531 022d 11       		.uleb128 0x11
 3532 022e 01       		.uleb128 0x1
 3533 022f 12       		.uleb128 0x12
 3534 0230 06       		.uleb128 0x6
 3535 0231 00       		.byte	0
 3536 0232 00       		.byte	0
 3537 0233 2E       		.uleb128 0x2e
 3538 0234 0B       		.uleb128 0xb
 3539 0235 01       		.byte	0x1
 3540 0236 11       		.uleb128 0x11
 3541 0237 01       		.uleb128 0x1
 3542 0238 12       		.uleb128 0x12
 3543 0239 06       		.uleb128 0x6
 3544 023a 01       		.uleb128 0x1
 3545 023b 13       		.uleb128 0x13
 3546 023c 00       		.byte	0
 3547 023d 00       		.byte	0
 3548 023e 2F       		.uleb128 0x2f
 3549 023f 34       		.uleb128 0x34
 3550 0240 00       		.byte	0
 3551 0241 31       		.uleb128 0x31
 3552 0242 13       		.uleb128 0x13
 3553 0243 02       		.uleb128 0x2
 3554 0244 18       		.uleb128 0x18
 3555 0245 00       		.byte	0
 3556 0246 00       		.byte	0
 3557 0247 30       		.uleb128 0x30
 3558 0248 898201   		.uleb128 0x4109
 3559 024b 01       		.byte	0x1
 3560 024c 11       		.uleb128 0x11
 3561 024d 01       		.uleb128 0x1
 3562 024e 31       		.uleb128 0x31
 3563 024f 13       		.uleb128 0x13
 3564 0250 01       		.uleb128 0x1
 3565 0251 13       		.uleb128 0x13
 3566 0252 00       		.byte	0
 3567 0253 00       		.byte	0
 3568 0254 31       		.uleb128 0x31
 3569 0255 8A8201   		.uleb128 0x410a
 3570 0258 00       		.byte	0
 3571 0259 02       		.uleb128 0x2
 3572 025a 18       		.uleb128 0x18
 3573 025b 9142     		.uleb128 0x2111
 3574 025d 18       		.uleb128 0x18
 3575 025e 00       		.byte	0
 3576 025f 00       		.byte	0
 3577 0260 32       		.uleb128 0x32
 3578 0261 898201   		.uleb128 0x4109
 3579 0264 01       		.byte	0x1
 3580 0265 11       		.uleb128 0x11
 3581 0266 01       		.uleb128 0x1
 3582 0267 31       		.uleb128 0x31
 3583 0268 13       		.uleb128 0x13
ARM GAS  /tmp/ccVu9HYc.s 			page 64


 3584 0269 00       		.byte	0
 3585 026a 00       		.byte	0
 3586 026b 33       		.uleb128 0x33
 3587 026c 34       		.uleb128 0x34
 3588 026d 00       		.byte	0
 3589 026e 03       		.uleb128 0x3
 3590 026f 0E       		.uleb128 0xe
 3591 0270 3A       		.uleb128 0x3a
 3592 0271 0B       		.uleb128 0xb
 3593 0272 3B       		.uleb128 0x3b
 3594 0273 0B       		.uleb128 0xb
 3595 0274 49       		.uleb128 0x49
 3596 0275 13       		.uleb128 0x13
 3597 0276 02       		.uleb128 0x2
 3598 0277 18       		.uleb128 0x18
 3599 0278 00       		.byte	0
 3600 0279 00       		.byte	0
 3601 027a 34       		.uleb128 0x34
 3602 027b 34       		.uleb128 0x34
 3603 027c 00       		.byte	0
 3604 027d 03       		.uleb128 0x3
 3605 027e 0E       		.uleb128 0xe
 3606 027f 3A       		.uleb128 0x3a
 3607 0280 0B       		.uleb128 0xb
 3608 0281 3B       		.uleb128 0x3b
 3609 0282 05       		.uleb128 0x5
 3610 0283 49       		.uleb128 0x49
 3611 0284 13       		.uleb128 0x13
 3612 0285 02       		.uleb128 0x2
 3613 0286 18       		.uleb128 0x18
 3614 0287 00       		.byte	0
 3615 0288 00       		.byte	0
 3616 0289 35       		.uleb128 0x35
 3617 028a 34       		.uleb128 0x34
 3618 028b 00       		.byte	0
 3619 028c 03       		.uleb128 0x3
 3620 028d 0E       		.uleb128 0xe
 3621 028e 3A       		.uleb128 0x3a
 3622 028f 0B       		.uleb128 0xb
 3623 0290 3B       		.uleb128 0x3b
 3624 0291 05       		.uleb128 0x5
 3625 0292 49       		.uleb128 0x49
 3626 0293 13       		.uleb128 0x13
 3627 0294 3F       		.uleb128 0x3f
 3628 0295 19       		.uleb128 0x19
 3629 0296 3C       		.uleb128 0x3c
 3630 0297 19       		.uleb128 0x19
 3631 0298 00       		.byte	0
 3632 0299 00       		.byte	0
 3633 029a 36       		.uleb128 0x36
 3634 029b 34       		.uleb128 0x34
 3635 029c 00       		.byte	0
 3636 029d 03       		.uleb128 0x3
 3637 029e 0E       		.uleb128 0xe
 3638 029f 3A       		.uleb128 0x3a
 3639 02a0 0B       		.uleb128 0xb
 3640 02a1 3B       		.uleb128 0x3b
ARM GAS  /tmp/ccVu9HYc.s 			page 65


 3641 02a2 05       		.uleb128 0x5
 3642 02a3 49       		.uleb128 0x49
 3643 02a4 13       		.uleb128 0x13
 3644 02a5 3F       		.uleb128 0x3f
 3645 02a6 19       		.uleb128 0x19
 3646 02a7 02       		.uleb128 0x2
 3647 02a8 18       		.uleb128 0x18
 3648 02a9 00       		.byte	0
 3649 02aa 00       		.byte	0
 3650 02ab 37       		.uleb128 0x37
 3651 02ac 2E       		.uleb128 0x2e
 3652 02ad 00       		.byte	0
 3653 02ae 3F       		.uleb128 0x3f
 3654 02af 19       		.uleb128 0x19
 3655 02b0 3C       		.uleb128 0x3c
 3656 02b1 19       		.uleb128 0x19
 3657 02b2 6E       		.uleb128 0x6e
 3658 02b3 0E       		.uleb128 0xe
 3659 02b4 03       		.uleb128 0x3
 3660 02b5 0E       		.uleb128 0xe
 3661 02b6 3A       		.uleb128 0x3a
 3662 02b7 0B       		.uleb128 0xb
 3663 02b8 3B       		.uleb128 0x3b
 3664 02b9 05       		.uleb128 0x5
 3665 02ba 00       		.byte	0
 3666 02bb 00       		.byte	0
 3667 02bc 00       		.byte	0
 3668              		.section	.debug_loc,"",%progbits
 3669              	.Ldebug_loc0:
 3670              	.LLST0:
 3671 0000 00000000 		.4byte	.LVL0
 3672 0004 2E000000 		.4byte	.LVL3
 3673 0008 0100     		.2byte	0x1
 3674 000a 50       		.byte	0x50
 3675 000b 2E000000 		.4byte	.LVL3
 3676 000f 30000000 		.4byte	.LVL4
 3677 0013 0400     		.2byte	0x4
 3678 0015 F3       		.byte	0xf3
 3679 0016 01       		.uleb128 0x1
 3680 0017 50       		.byte	0x50
 3681 0018 9F       		.byte	0x9f
 3682 0019 30000000 		.4byte	.LVL4
 3683 001d 32000000 		.4byte	.LVL5
 3684 0021 0100     		.2byte	0x1
 3685 0023 50       		.byte	0x50
 3686 0024 32000000 		.4byte	.LVL5
 3687 0028 34000000 		.4byte	.LVL6
 3688 002c 0400     		.2byte	0x4
 3689 002e F3       		.byte	0xf3
 3690 002f 01       		.uleb128 0x1
 3691 0030 50       		.byte	0x50
 3692 0031 9F       		.byte	0x9f
 3693 0032 34000000 		.4byte	.LVL6
 3694 0036 3E000000 		.4byte	.LVL7
 3695 003a 0100     		.2byte	0x1
 3696 003c 50       		.byte	0x50
 3697 003d 3E000000 		.4byte	.LVL7
ARM GAS  /tmp/ccVu9HYc.s 			page 66


 3698 0041 40000000 		.4byte	.LVL8
 3699 0045 0400     		.2byte	0x4
 3700 0047 F3       		.byte	0xf3
 3701 0048 01       		.uleb128 0x1
 3702 0049 50       		.byte	0x50
 3703 004a 9F       		.byte	0x9f
 3704 004b 40000000 		.4byte	.LVL8
 3705 004f 42000000 		.4byte	.LVL9
 3706 0053 0100     		.2byte	0x1
 3707 0055 50       		.byte	0x50
 3708 0056 42000000 		.4byte	.LVL9
 3709 005a 44000000 		.4byte	.LVL10
 3710 005e 0400     		.2byte	0x4
 3711 0060 F3       		.byte	0xf3
 3712 0061 01       		.uleb128 0x1
 3713 0062 50       		.byte	0x50
 3714 0063 9F       		.byte	0x9f
 3715 0064 44000000 		.4byte	.LVL10
 3716 0068 46000000 		.4byte	.LVL11
 3717 006c 0100     		.2byte	0x1
 3718 006e 50       		.byte	0x50
 3719 006f 46000000 		.4byte	.LVL11
 3720 0073 58000000 		.4byte	.LFE118
 3721 0077 0400     		.2byte	0x4
 3722 0079 F3       		.byte	0xf3
 3723 007a 01       		.uleb128 0x1
 3724 007b 50       		.byte	0x50
 3725 007c 9F       		.byte	0x9f
 3726 007d 00000000 		.4byte	0
 3727 0081 00000000 		.4byte	0
 3728              	.LLST1:
 3729 0085 00000000 		.4byte	.LVL0
 3730 0089 02000000 		.4byte	.LVL1
 3731 008d 0100     		.2byte	0x1
 3732 008f 51       		.byte	0x51
 3733 0090 02000000 		.4byte	.LVL1
 3734 0094 58000000 		.4byte	.LFE118
 3735 0098 0400     		.2byte	0x4
 3736 009a F3       		.byte	0xf3
 3737 009b 01       		.uleb128 0x1
 3738 009c 51       		.byte	0x51
 3739 009d 9F       		.byte	0x9f
 3740 009e 00000000 		.4byte	0
 3741 00a2 00000000 		.4byte	0
 3742              	.LLST2:
 3743 00a6 00000000 		.4byte	.LVL0
 3744 00aa 0A000000 		.4byte	.LVL2
 3745 00ae 0100     		.2byte	0x1
 3746 00b0 53       		.byte	0x53
 3747 00b1 0A000000 		.4byte	.LVL2
 3748 00b5 58000000 		.4byte	.LFE118
 3749 00b9 0400     		.2byte	0x4
 3750 00bb F3       		.byte	0xf3
 3751 00bc 01       		.uleb128 0x1
 3752 00bd 53       		.byte	0x53
 3753 00be 9F       		.byte	0x9f
 3754 00bf 00000000 		.4byte	0
ARM GAS  /tmp/ccVu9HYc.s 			page 67


 3755 00c3 00000000 		.4byte	0
 3756              	.LLST3:
 3757 00c7 00000000 		.4byte	.LVL12
 3758 00cb 17000000 		.4byte	.LVL15-1
 3759 00cf 0100     		.2byte	0x1
 3760 00d1 50       		.byte	0x50
 3761 00d2 17000000 		.4byte	.LVL15-1
 3762 00d6 2A000000 		.4byte	.LVL17
 3763 00da 0100     		.2byte	0x1
 3764 00dc 55       		.byte	0x55
 3765 00dd 2A000000 		.4byte	.LVL17
 3766 00e1 34000000 		.4byte	.LFE119
 3767 00e5 0100     		.2byte	0x1
 3768 00e7 50       		.byte	0x50
 3769 00e8 00000000 		.4byte	0
 3770 00ec 00000000 		.4byte	0
 3771              	.LLST4:
 3772 00f0 00000000 		.4byte	.LVL12
 3773 00f4 14000000 		.4byte	.LVL14
 3774 00f8 0100     		.2byte	0x1
 3775 00fa 51       		.byte	0x51
 3776 00fb 14000000 		.4byte	.LVL14
 3777 00ff 2A000000 		.4byte	.LVL17
 3778 0103 0400     		.2byte	0x4
 3779 0105 F3       		.byte	0xf3
 3780 0106 01       		.uleb128 0x1
 3781 0107 51       		.byte	0x51
 3782 0108 9F       		.byte	0x9f
 3783 0109 2A000000 		.4byte	.LVL17
 3784 010d 34000000 		.4byte	.LFE119
 3785 0111 0100     		.2byte	0x1
 3786 0113 51       		.byte	0x51
 3787 0114 00000000 		.4byte	0
 3788 0118 00000000 		.4byte	0
 3789              	.LLST5:
 3790 011c 0A000000 		.4byte	.LVL13
 3791 0120 2A000000 		.4byte	.LVL17
 3792 0124 0200     		.2byte	0x2
 3793 0126 32       		.byte	0x32
 3794 0127 9F       		.byte	0x9f
 3795 0128 00000000 		.4byte	0
 3796 012c 00000000 		.4byte	0
 3797              	.LLST6:
 3798 0130 0A000000 		.4byte	.LVL13
 3799 0134 17000000 		.4byte	.LVL15-1
 3800 0138 0100     		.2byte	0x1
 3801 013a 50       		.byte	0x50
 3802 013b 17000000 		.4byte	.LVL15-1
 3803 013f 2A000000 		.4byte	.LVL17
 3804 0143 0100     		.2byte	0x1
 3805 0145 55       		.byte	0x55
 3806 0146 00000000 		.4byte	0
 3807 014a 00000000 		.4byte	0
 3808              		.section	.debug_aranges,"",%progbits
 3809 0000 24000000 		.4byte	0x24
 3810 0004 0200     		.2byte	0x2
 3811 0006 00000000 		.4byte	.Ldebug_info0
ARM GAS  /tmp/ccVu9HYc.s 			page 68


 3812 000a 04       		.byte	0x4
 3813 000b 00       		.byte	0
 3814 000c 0000     		.2byte	0
 3815 000e 0000     		.2byte	0
 3816 0010 00000000 		.4byte	.LFB118
 3817 0014 58000000 		.4byte	.LFE118-.LFB118
 3818 0018 00000000 		.4byte	.LFB119
 3819 001c 34000000 		.4byte	.LFE119-.LFB119
 3820 0020 00000000 		.4byte	0
 3821 0024 00000000 		.4byte	0
 3822              		.section	.debug_ranges,"",%progbits
 3823              	.Ldebug_ranges0:
 3824 0000 00000000 		.4byte	.LFB118
 3825 0004 58000000 		.4byte	.LFE118
 3826 0008 00000000 		.4byte	.LFB119
 3827 000c 34000000 		.4byte	.LFE119
 3828 0010 00000000 		.4byte	0
 3829 0014 00000000 		.4byte	0
 3830              		.section	.debug_line,"",%progbits
 3831              	.Ldebug_line0:
 3832 0000 AA020000 		.section	.debug_str,"MS",%progbits,1
 3832      02007102 
 3832      00000201 
 3832      FB0E0D00 
 3832      01010101 
 3833              	.LASF4:
 3834 0000 73697A65 		.ascii	"size_t\000"
 3834      5F7400
 3835              	.LASF55:
 3836 0007 73697A65 		.ascii	"sizetype\000"
 3836      74797065 
 3836      00
 3837              	.LASF34:
 3838 0010 705F6374 		.ascii	"p_ctx\000"
 3838      7800
 3839              	.LASF27:
 3840 0016 74707269 		.ascii	"tprio_t\000"
 3840      6F5F7400 
 3841              	.LASF43:
 3842 001e 705F6D73 		.ascii	"p_msgqueue\000"
 3842      67717565 
 3842      756500
 3843              	.LASF203:
 3844 0029 72785F66 		.ascii	"rx_fifo_size\000"
 3844      69666F5F 
 3844      73697A65 
 3844      00
 3845              	.LASF18:
 3846 0036 696E7433 		.ascii	"int32_t\000"
 3846      325F7400 
 3847              	.LASF138:
 3848 003e 72657376 		.ascii	"resvd4\000"
 3848      643400
 3849              	.LASF129:
 3850 0045 72657376 		.ascii	"resvd8\000"
 3850      643800
 3851              	.LASF248:
ARM GAS  /tmp/ccVu9HYc.s 			page 69


 3852 004c 6869645F 		.ascii	"hid_configuration_descriptor_data\000"
 3852      636F6E66 
 3852      69677572 
 3852      6174696F 
 3852      6E5F6465 
 3853              	.LASF140:
 3854 006e 72657376 		.ascii	"resvdC\000"
 3854      644300
 3855              	.LASF246:
 3856 0075 6869645F 		.ascii	"hid_generic_joystick_reporter_data\000"
 3856      67656E65 
 3856      7269635F 
 3856      6A6F7973 
 3856      7469636B 
 3857              	.LASF106:
 3858 0098 5553425F 		.ascii	"USB_EP0_TX\000"
 3858      4550305F 
 3858      545800
 3859              	.LASF247:
 3860 00a3 6869645F 		.ascii	"hid_generic_joystick_reporter\000"
 3860      67656E65 
 3860      7269635F 
 3860      6A6F7973 
 3860      7469636B 
 3861              	.LASF178:
 3862 00c1 72657376 		.ascii	"resvd700\000"
 3862      64373030 
 3862      00
 3863              	.LASF264:
 3864 00ca 2F686F6D 		.ascii	"/home/mark/repos/pc_gamecontroller\000"
 3864      652F6D61 
 3864      726B2F72 
 3864      65706F73 
 3864      2F70635F 
 3865              	.LASF78:
 3866 00ed 73746174 		.ascii	"state\000"
 3866      6500
 3867              	.LASF223:
 3868 00f3 65705F6D 		.ascii	"ep_mode\000"
 3868      6F646500 
 3869              	.LASF103:
 3870 00fb 5553425F 		.ascii	"USB_ACTIVE\000"
 3870      41435449 
 3870      564500
 3871              	.LASF242:
 3872 0106 64696E64 		.ascii	"dindex\000"
 3872      657800
 3873              	.LASF58:
 3874 010d 6D5F6F77 		.ascii	"m_owner\000"
 3874      6E657200 
 3875              	.LASF61:
 3876 0115 65786974 		.ascii	"exitcode\000"
 3876      636F6465 
 3876      00
 3877              	.LASF112:
 3878 011e 75736265 		.ascii	"usbep0state_t\000"
 3878      70307374 
ARM GAS  /tmp/ccVu9HYc.s 			page 70


 3878      6174655F 
 3878      7400
 3879              	.LASF5:
 3880 012c 5F5F7569 		.ascii	"__uint8_t\000"
 3880      6E74385F 
 3880      7400
 3881              	.LASF69:
 3882 0136 715F746F 		.ascii	"q_top\000"
 3882      7000
 3883              	.LASF63:
 3884 013c 65776D61 		.ascii	"ewmask\000"
 3884      736B00
 3885              	.LASF256:
 3886 0143 65703169 		.ascii	"ep1instate\000"
 3886      6E737461 
 3886      746500
 3887              	.LASF68:
 3888 014e 715F6275 		.ascii	"q_buffer\000"
 3888      66666572 
 3888      00
 3889              	.LASF114:
 3890 0157 5553425F 		.ascii	"USB_EVENT_ADDRESS\000"
 3890      4556454E 
 3890      545F4144 
 3890      44524553 
 3890      5300
 3891              	.LASF159:
 3892 0169 44494550 		.ascii	"DIEPTXF0\000"
 3892      54584630 
 3892      00
 3893              	.LASF72:
 3894 0172 715F6E6F 		.ascii	"q_notify\000"
 3894      74696679 
 3894      00
 3895              	.LASF35:
 3896 017b 705F6E65 		.ascii	"p_newer\000"
 3896      77657200 
 3897              	.LASF11:
 3898 0183 6C6F6E67 		.ascii	"long int\000"
 3898      20696E74 
 3898      00
 3899              	.LASF31:
 3900 018c 705F6E65 		.ascii	"p_next\000"
 3900      787400
 3901              	.LASF71:
 3902 0193 715F7264 		.ascii	"q_rdptr\000"
 3902      70747200 
 3903              	.LASF213:
 3904 019b 7478636E 		.ascii	"txcnt\000"
 3904      7400
 3905              	.LASF32:
 3906 01a1 705F7072 		.ascii	"p_prev\000"
 3906      657600
 3907              	.LASF24:
 3908 01a8 74737461 		.ascii	"tstate_t\000"
 3908      74655F74 
 3908      00
ARM GAS  /tmp/ccVu9HYc.s 			page 71


 3909              	.LASF228:
 3910 01b1 6F75745F 		.ascii	"out_maxsize\000"
 3910      6D617873 
 3910      697A6500 
 3911              	.LASF46:
 3912 01bd 705F6D74 		.ascii	"p_mtxlist\000"
 3912      786C6973 
 3912      7400
 3913              	.LASF96:
 3914 01c7 7468645F 		.ascii	"thd_wait\000"
 3914      77616974 
 3914      00
 3915              	.LASF207:
 3916 01d0 74786275 		.ascii	"txbuf\000"
 3916      6600
 3917              	.LASF51:
 3918 01d6 72656761 		.ascii	"regarm_t\000"
 3918      726D5F74 
 3918      00
 3919              	.LASF185:
 3920 01df 4441494E 		.ascii	"DAINT\000"
 3920      5400
 3921              	.LASF105:
 3922 01e5 5553425F 		.ascii	"USB_EP0_WAITING_SETUP\000"
 3922      4550305F 
 3922      57414954 
 3922      494E475F 
 3922      53455455 
 3923              	.LASF184:
 3924 01fb 444F4550 		.ascii	"DOEPMSK\000"
 3924      4D534B00 
 3925              	.LASF263:
 3926 0203 75736263 		.ascii	"usbcfg.c\000"
 3926      66672E63 
 3926      00
 3927              	.LASF145:
 3928 020c 444F4550 		.ascii	"DOEPCTL\000"
 3928      43544C00 
 3929              	.LASF3:
 3930 0214 7369676E 		.ascii	"signed char\000"
 3930      65642063 
 3930      68617200 
 3931              	.LASF41:
 3932 0220 705F7072 		.ascii	"p_preempt\000"
 3932      65656D70 
 3932      7400
 3933              	.LASF16:
 3934 022a 75696E74 		.ascii	"uint8_t\000"
 3934      385F7400 
 3935              	.LASF118:
 3936 0232 5553425F 		.ascii	"USB_EVENT_STALLED\000"
 3936      4556454E 
 3936      545F5354 
 3936      414C4C45 
 3936      4400
 3937              	.LASF146:
 3938 0244 444F4550 		.ascii	"DOEPINT\000"
ARM GAS  /tmp/ccVu9HYc.s 			page 72


 3938      494E5400 
 3939              	.LASF29:
 3940 024c 6576656E 		.ascii	"eventmask_t\000"
 3940      746D6173 
 3940      6B5F7400 
 3941              	.LASF54:
 3942 0258 636F6E74 		.ascii	"context\000"
 3942      65787400 
 3943              	.LASF220:
 3944 0260 72787369 		.ascii	"rxsize\000"
 3944      7A6500
 3945              	.LASF6:
 3946 0267 756E7369 		.ascii	"unsigned char\000"
 3946      676E6564 
 3946      20636861 
 3946      7200
 3947              	.LASF111:
 3948 0275 5553425F 		.ascii	"USB_EP0_ERROR\000"
 3948      4550305F 
 3948      4552524F 
 3948      5200
 3949              	.LASF73:
 3950 0283 715F6C69 		.ascii	"q_link\000"
 3950      6E6B00
 3951              	.LASF179:
 3952 028a 44434647 		.ascii	"DCFG\000"
 3952      00
 3953              	.LASF163:
 3954 028f 47434346 		.ascii	"GCCFG\000"
 3954      4700
 3955              	.LASF84:
 3956 0295 65703073 		.ascii	"ep0state\000"
 3956      74617465 
 3956      00
 3957              	.LASF141:
 3958 029e 44494550 		.ascii	"DIEPTSIZ\000"
 3958      5453495A 
 3958      00
 3959              	.LASF236:
 3960 02a7 72657175 		.ascii	"requests_hook_cb\000"
 3960      65737473 
 3960      5F686F6F 
 3960      6B5F6362 
 3960      00
 3961              	.LASF22:
 3962 02b8 5F426F6F 		.ascii	"_Bool\000"
 3962      6C00
 3963              	.LASF168:
 3964 02be 48434647 		.ascii	"HCFG\000"
 3964      00
 3965              	.LASF128:
 3966 02c3 48434348 		.ascii	"HCCHAR\000"
 3966      415200
 3967              	.LASF148:
 3968 02ca 73746D33 		.ascii	"stm32_otg_out_ep_t\000"
 3968      325F6F74 
 3968      675F6F75 
ARM GAS  /tmp/ccVu9HYc.s 			page 73


 3968      745F6570 
 3968      5F7400
 3969              	.LASF64:
 3970 02dd 63686172 		.ascii	"char\000"
 3970      00
 3971              	.LASF86:
 3972 02e2 6570306E 		.ascii	"ep0n\000"
 3972      00
 3973              	.LASF182:
 3974 02e7 72657376 		.ascii	"resvd80C\000"
 3974      64383043 
 3974      00
 3975              	.LASF176:
 3976 02f0 48505254 		.ascii	"HPRT\000"
 3976      00
 3977              	.LASF33:
 3978 02f5 705F7072 		.ascii	"p_prio\000"
 3978      696F00
 3979              	.LASF81:
 3980 02fc 72656365 		.ascii	"receiving\000"
 3980      6976696E 
 3980      6700
 3981              	.LASF8:
 3982 0306 5F5F7569 		.ascii	"__uint16_t\000"
 3982      6E743136 
 3982      5F7400
 3983              	.LASF65:
 3984 0311 47656E65 		.ascii	"GenericQueue\000"
 3984      72696351 
 3984      75657565 
 3984      00
 3985              	.LASF62:
 3986 031e 77746F62 		.ascii	"wtobjp\000"
 3986      6A7000
 3987              	.LASF79:
 3988 0325 636F6E66 		.ascii	"config\000"
 3988      696700
 3989              	.LASF257:
 3990 032c 65703163 		.ascii	"ep1config\000"
 3990      6F6E6669 
 3990      6700
 3991              	.LASF224:
 3992 0336 73657475 		.ascii	"setup_cb\000"
 3992      705F6362 
 3992      00
 3993              	.LASF121:
 3994 033f 75645F73 		.ascii	"ud_string\000"
 3994      7472696E 
 3994      6700
 3995              	.LASF225:
 3996 0349 696E5F63 		.ascii	"in_cb\000"
 3996      6200
 3997              	.LASF52:
 3998 034f 73746B61 		.ascii	"stkalign_t\000"
 3998      6C69676E 
 3998      5F7400
 3999              	.LASF76:
ARM GAS  /tmp/ccVu9HYc.s 			page 74


 4000 035a 4F757470 		.ascii	"OutputQueue\000"
 4000      75745175 
 4000      65756500 
 4001              	.LASF170:
 4002 0366 48464E55 		.ascii	"HFNUM\000"
 4002      4D00
 4003              	.LASF125:
 4004 036c 75736265 		.ascii	"usbeventcb_t\000"
 4004      76656E74 
 4004      63625F74 
 4004      00
 4005              	.LASF136:
 4006 0379 73746D33 		.ascii	"stm32_otg_host_chn_t\000"
 4006      325F6F74 
 4006      675F686F 
 4006      73745F63 
 4006      686E5F74 
 4007              	.LASF80:
 4008 038e 7472616E 		.ascii	"transmitting\000"
 4008      736D6974 
 4008      74696E67 
 4008      00
 4009              	.LASF132:
 4010 039b 48435453 		.ascii	"HCTSIZ\000"
 4010      495A00
 4011              	.LASF216:
 4012 03a2 55534249 		.ascii	"USBInEndpointState\000"
 4012      6E456E64 
 4012      706F696E 
 4012      74537461 
 4012      746500
 4013              	.LASF187:
 4014 03b5 72657376 		.ascii	"resvd820\000"
 4014      64383230 
 4014      00
 4015              	.LASF188:
 4016 03be 72657376 		.ascii	"resvd824\000"
 4016      64383234 
 4016      00
 4017              	.LASF249:
 4018 03c7 6869645F 		.ascii	"hid_configuration_descriptor\000"
 4018      636F6E66 
 4018      69677572 
 4018      6174696F 
 4018      6E5F6465 
 4019              	.LASF190:
 4020 03e4 44564255 		.ascii	"DVBUSPULSE\000"
 4020      5350554C 
 4020      534500
 4021              	.LASF259:
 4022 03ef 65703263 		.ascii	"ep2config\000"
 4022      6F6E6669 
 4022      6700
 4023              	.LASF192:
 4024 03f9 44494550 		.ascii	"DIEPEMPMSK\000"
 4024      454D504D 
 4024      534B00
ARM GAS  /tmp/ccVu9HYc.s 			page 75


 4025              	.LASF122:
 4026 0404 55534244 		.ascii	"USBDescriptor\000"
 4026      65736372 
 4026      6970746F 
 4026      7200
 4027              	.LASF206:
 4028 0412 73746D33 		.ascii	"stm32_otg_params_t\000"
 4028      325F6F74 
 4028      675F7061 
 4028      72616D73 
 4028      5F7400
 4029              	.LASF88:
 4030 0425 73657475 		.ascii	"setup\000"
 4030      7000
 4031              	.LASF53:
 4032 042b 696E7463 		.ascii	"intctx\000"
 4032      747800
 4033              	.LASF45:
 4034 0432 705F6570 		.ascii	"p_epending\000"
 4034      656E6469 
 4034      6E6700
 4035              	.LASF153:
 4036 043d 47525354 		.ascii	"GRSTCTL\000"
 4036      43544C00 
 4037              	.LASF119:
 4038 0445 75736265 		.ascii	"usbevent_t\000"
 4038      76656E74 
 4038      5F7400
 4039              	.LASF193:
 4040 0450 72657376 		.ascii	"resvd838\000"
 4040      64383338 
 4040      00
 4041              	.LASF120:
 4042 0459 75645F73 		.ascii	"ud_size\000"
 4042      697A6500 
 4043              	.LASF102:
 4044 0461 5553425F 		.ascii	"USB_SELECTED\000"
 4044      53454C45 
 4044      43544544 
 4044      00
 4045              	.LASF91:
 4046 046e 636F6E66 		.ascii	"configuration\000"
 4046      69677572 
 4046      6174696F 
 4046      6E00
 4047              	.LASF158:
 4048 047c 47525846 		.ascii	"GRXFSIZ\000"
 4048      53495A00 
 4049              	.LASF67:
 4050 0484 715F636F 		.ascii	"q_counter\000"
 4050      756E7465 
 4050      7200
 4051              	.LASF195:
 4052 048e 72657376 		.ascii	"resvd840\000"
 4052      64383430 
 4052      00
 4053              	.LASF14:
ARM GAS  /tmp/ccVu9HYc.s 			page 76


 4054 0497 5F5F7569 		.ascii	"__uint64_t\000"
 4054      6E743634 
 4054      5F7400
 4055              	.LASF166:
 4056 04a2 44494550 		.ascii	"DIEPTXF\000"
 4056      54584600 
 4057              	.LASF13:
 4058 04aa 6C6F6E67 		.ascii	"long unsigned int\000"
 4058      20756E73 
 4058      69676E65 
 4058      6420696E 
 4058      7400
 4059              	.LASF89:
 4060 04bc 73746174 		.ascii	"status\000"
 4060      757300
 4061              	.LASF90:
 4062 04c3 61646472 		.ascii	"address\000"
 4062      65737300 
 4063              	.LASF87:
 4064 04cb 65703065 		.ascii	"ep0endcb\000"
 4064      6E646362 
 4064      00
 4065              	.LASF151:
 4066 04d4 47414842 		.ascii	"GAHBCFG\000"
 4066      43464700 
 4067              	.LASF231:
 4068 04dc 696E5F6D 		.ascii	"in_multiplier\000"
 4068      756C7469 
 4068      706C6965 
 4068      7200
 4069              	.LASF239:
 4070 04ea 75736270 		.ascii	"usbp\000"
 4070      00
 4071              	.LASF205:
 4072 04ef 6E756D5F 		.ascii	"num_endpoints\000"
 4072      656E6470 
 4072      6F696E74 
 4072      7300
 4073              	.LASF70:
 4074 04fd 715F7772 		.ascii	"q_wrptr\000"
 4074      70747200 
 4075              	.LASF212:
 4076 0505 74787369 		.ascii	"txsize\000"
 4076      7A6500
 4077              	.LASF95:
 4078 050c 7468645F 		.ascii	"thd_ptr\000"
 4078      70747200 
 4079              	.LASF221:
 4080 0514 7278636E 		.ascii	"rxcnt\000"
 4080      7400
 4081              	.LASF104:
 4082 051a 75736273 		.ascii	"usbstate_t\000"
 4082      74617465 
 4082      5F7400
 4083              	.LASF171:
 4084 0525 72657376 		.ascii	"resvd40C\000"
 4084      64343043 
ARM GAS  /tmp/ccVu9HYc.s 			page 77


 4084      00
 4085              	.LASF149:
 4086 052e 474F5447 		.ascii	"GOTGCTL\000"
 4086      43544C00 
 4087              	.LASF217:
 4088 0536 72786275 		.ascii	"rxbuf\000"
 4088      6600
 4089              	.LASF157:
 4090 053c 47525853 		.ascii	"GRXSTSP\000"
 4090      54535000 
 4091              	.LASF229:
 4092 0544 696E5F73 		.ascii	"in_state\000"
 4092      74617465 
 4092      00
 4093              	.LASF156:
 4094 054d 47525853 		.ascii	"GRXSTSR\000"
 4094      54535200 
 4095              	.LASF117:
 4096 0555 5553425F 		.ascii	"USB_EVENT_WAKEUP\000"
 4096      4556454E 
 4096      545F5741 
 4096      4B455550 
 4096      00
 4097              	.LASF199:
 4098 0566 50434743 		.ascii	"PCGCCTL\000"
 4098      43544C00 
 4099              	.LASF262:
 4100 056e 474E5520 		.ascii	"GNU C11 5.4.1 20160919 (release) [ARM/embedded-5-br"
 4100      43313120 
 4100      352E342E 
 4100      31203230 
 4100      31363039 
 4101 05a1 616E6368 		.ascii	"anch revision 240496] -mcpu=cortex-m4 -mno-thumb-in"
 4101      20726576 
 4101      6973696F 
 4101      6E203234 
 4101      30343936 
 4102 05d4 74657277 		.ascii	"terwork -mthumb -ggdb -O2 -fomit-frame-pointer -fal"
 4102      6F726B20 
 4102      2D6D7468 
 4102      756D6220 
 4102      2D676764 
 4103 0607 69676E2D 		.ascii	"ign-functions=16 -ffunction-sections -fdata-section"
 4103      66756E63 
 4103      74696F6E 
 4103      733D3136 
 4103      202D6666 
 4104 063a 73202D66 		.ascii	"s -fno-common\000"
 4104      6E6F2D63 
 4104      6F6D6D6F 
 4104      6E00
 4105              	.LASF12:
 4106 0648 5F5F7569 		.ascii	"__uint32_t\000"
 4106      6E743332 
 4106      5F7400
 4107              	.LASF234:
 4108 0653 6576656E 		.ascii	"event_cb\000"
ARM GAS  /tmp/ccVu9HYc.s 			page 78


 4108      745F6362 
 4108      00
 4109              	.LASF56:
 4110 065c 4D757465 		.ascii	"Mutex\000"
 4110      7800
 4111              	.LASF1:
 4112 0662 6C6F6E67 		.ascii	"long long int\000"
 4112      206C6F6E 
 4112      6720696E 
 4112      7400
 4113              	.LASF101:
 4114 0670 5553425F 		.ascii	"USB_READY\000"
 4114      52454144 
 4114      5900
 4115              	.LASF57:
 4116 067a 6D5F7175 		.ascii	"m_queue\000"
 4116      65756500 
 4117              	.LASF175:
 4118 0682 72657376 		.ascii	"resvd41C\000"
 4118      64343143 
 4118      00
 4119              	.LASF85:
 4120 068b 6570306E 		.ascii	"ep0next\000"
 4120      65787400 
 4121              	.LASF191:
 4122 0693 72657376 		.ascii	"resvd830\000"
 4122      64383330 
 4122      00
 4123              	.LASF124:
 4124 069c 75736265 		.ascii	"usbepcallback_t\000"
 4124      7063616C 
 4124      6C626163 
 4124      6B5F7400 
 4125              	.LASF196:
 4126 06ac 72657376 		.ascii	"resvd880\000"
 4126      64383830 
 4126      00
 4127              	.LASF260:
 4128 06b5 49544D5F 		.ascii	"ITM_RxBuffer\000"
 4128      52784275 
 4128      66666572 
 4128      00
 4129              	.LASF194:
 4130 06c2 72657376 		.ascii	"resvd83C\000"
 4130      64383343 
 4130      00
 4131              	.LASF74:
 4132 06cb 716E6F74 		.ascii	"qnotify_t\000"
 4132      6966795F 
 4132      7400
 4133              	.LASF42:
 4134 06d5 705F7761 		.ascii	"p_waiting\000"
 4134      6974696E 
 4134      6700
 4135              	.LASF240:
 4136 06df 6576656E 		.ascii	"event\000"
 4136      7400
ARM GAS  /tmp/ccVu9HYc.s 			page 79


 4137              	.LASF39:
 4138 06e5 705F666C 		.ascii	"p_flags\000"
 4138      61677300 
 4139              	.LASF147:
 4140 06ed 444F4550 		.ascii	"DOEPTSIZ\000"
 4140      5453495A 
 4140      00
 4141              	.LASF173:
 4142 06f6 4841494E 		.ascii	"HAINT\000"
 4142      5400
 4143              	.LASF0:
 4144 06fc 756E7369 		.ascii	"unsigned int\000"
 4144      676E6564 
 4144      20696E74 
 4144      00
 4145              	.LASF238:
 4146 0709 55534243 		.ascii	"USBConfig\000"
 4146      6F6E6669 
 4146      6700
 4147              	.LASF94:
 4148 0713 74787065 		.ascii	"txpending\000"
 4148      6E64696E 
 4148      6700
 4149              	.LASF48:
 4150 071d 705F6D70 		.ascii	"p_mpool\000"
 4150      6F6F6C00 
 4151              	.LASF202:
 4152 0725 73746D33 		.ascii	"stm32_otg_t\000"
 4152      325F6F74 
 4152      675F7400 
 4153              	.LASF40:
 4154 0731 705F7265 		.ascii	"p_refs\000"
 4154      667300
 4155              	.LASF232:
 4156 0738 73657475 		.ascii	"setup_buf\000"
 4156      705F6275 
 4156      6600
 4157              	.LASF50:
 4158 0742 54687265 		.ascii	"ThreadsList\000"
 4158      6164734C 
 4158      69737400 
 4159              	.LASF177:
 4160 074e 72657376 		.ascii	"resvd444\000"
 4160      64343434 
 4160      00
 4161              	.LASF226:
 4162 0757 6F75745F 		.ascii	"out_cb\000"
 4162      636200
 4163              	.LASF77:
 4164 075e 55534244 		.ascii	"USBDriver\000"
 4164      72697665 
 4164      7200
 4165              	.LASF174:
 4166 0768 4841494E 		.ascii	"HAINTMSK\000"
 4166      544D534B 
 4166      00
 4167              	.LASF100:
ARM GAS  /tmp/ccVu9HYc.s 			page 80


 4168 0771 5553425F 		.ascii	"USB_STOP\000"
 4168      53544F50 
 4168      00
 4169              	.LASF227:
 4170 077a 696E5F6D 		.ascii	"in_maxsize\000"
 4170      61787369 
 4170      7A6500
 4171              	.LASF155:
 4172 0785 47494E54 		.ascii	"GINTMSK\000"
 4172      4D534B00 
 4173              	.LASF230:
 4174 078d 6F75745F 		.ascii	"out_state\000"
 4174      73746174 
 4174      6500
 4175              	.LASF244:
 4176 0797 6869645F 		.ascii	"hid_device_descriptor_data\000"
 4176      64657669 
 4176      63655F64 
 4176      65736372 
 4176      6970746F 
 4177              	.LASF2:
 4178 07b2 6C6F6E67 		.ascii	"long double\000"
 4178      20646F75 
 4178      626C6500 
 4179              	.LASF47:
 4180 07be 705F7265 		.ascii	"p_realprio\000"
 4180      616C7072 
 4180      696F00
 4181              	.LASF107:
 4182 07c9 5553425F 		.ascii	"USB_EP0_WAITING_TX0\000"
 4182      4550305F 
 4182      57414954 
 4182      494E475F 
 4182      54583000 
 4183              	.LASF92:
 4184 07dd 6F746770 		.ascii	"otgparams\000"
 4184      6172616D 
 4184      7300
 4185              	.LASF258:
 4186 07e7 6570326F 		.ascii	"ep2outstate\000"
 4186      75747374 
 4186      61746500 
 4187              	.LASF99:
 4188 07f3 5553425F 		.ascii	"USB_UNINIT\000"
 4188      554E494E 
 4188      495400
 4189              	.LASF222:
 4190 07fe 5553424F 		.ascii	"USBOutEndpointState\000"
 4190      7574456E 
 4190      64706F69 
 4190      6E745374 
 4190      61746500 
 4191              	.LASF198:
 4192 0812 72657376 		.ascii	"resvdD00\000"
 4192      64443030 
 4192      00
 4193              	.LASF15:
ARM GAS  /tmp/ccVu9HYc.s 			page 81


 4194 081b 6C6F6E67 		.ascii	"long long unsigned int\000"
 4194      206C6F6E 
 4194      6720756E 
 4194      7369676E 
 4194      65642069 
 4195              	.LASF165:
 4196 0832 48505458 		.ascii	"HPTXFSIZ\000"
 4196      4653495A 
 4196      00
 4197              	.LASF36:
 4198 083b 705F6F6C 		.ascii	"p_older\000"
 4198      64657200 
 4199              	.LASF17:
 4200 0843 75696E74 		.ascii	"uint16_t\000"
 4200      31365F74 
 4200      00
 4201              	.LASF130:
 4202 084c 4843494E 		.ascii	"HCINT\000"
 4202      5400
 4203              	.LASF209:
 4204 0852 6C696E65 		.ascii	"linear\000"
 4204      617200
 4205              	.LASF28:
 4206 0859 6D73675F 		.ascii	"msg_t\000"
 4206      7400
 4207              	.LASF180:
 4208 085f 4443544C 		.ascii	"DCTL\000"
 4208      00
 4209              	.LASF233:
 4210 0864 55534245 		.ascii	"USBEndpointConfig\000"
 4210      6E64706F 
 4210      696E7443 
 4210      6F6E6669 
 4210      6700
 4211              	.LASF131:
 4212 0876 4843494E 		.ascii	"HCINTMSK\000"
 4212      544D534B 
 4212      00
 4213              	.LASF219:
 4214 087f 72787175 		.ascii	"rxqueued\000"
 4214      65756564 
 4214      00
 4215              	.LASF261:
 4216 0888 75736263 		.ascii	"usbcfg\000"
 4216      666700
 4217              	.LASF26:
 4218 088f 74736C69 		.ascii	"tslices_t\000"
 4218      6365735F 
 4218      7400
 4219              	.LASF150:
 4220 0899 474F5447 		.ascii	"GOTGINT\000"
 4220      494E5400 
 4221              	.LASF267:
 4222 08a1 75736249 		.ascii	"usbInitEndpointI\000"
 4222      6E697445 
 4222      6E64706F 
 4222      696E7449 
ARM GAS  /tmp/ccVu9HYc.s 			page 82


 4222      00
 4223              	.LASF210:
 4224 08b2 71756575 		.ascii	"queue\000"
 4224      6500
 4225              	.LASF218:
 4226 08b8 72787175 		.ascii	"rxqueue\000"
 4226      65756500 
 4227              	.LASF186:
 4228 08c0 4441494E 		.ascii	"DAINTMSK\000"
 4228      544D534B 
 4228      00
 4229              	.LASF189:
 4230 08c9 44564255 		.ascii	"DVBUSDIS\000"
 4230      53444953 
 4230      00
 4231              	.LASF144:
 4232 08d2 73746D33 		.ascii	"stm32_otg_in_ep_t\000"
 4232      325F6F74 
 4232      675F696E 
 4232      5F65705F 
 4232      7400
 4233              	.LASF204:
 4234 08e4 6F74675F 		.ascii	"otg_ram_size\000"
 4234      72616D5F 
 4234      73697A65 
 4234      00
 4235              	.LASF252:
 4236 08f1 6869645F 		.ascii	"hid_string2\000"
 4236      73747269 
 4236      6E673200 
 4237              	.LASF115:
 4238 08fd 5553425F 		.ascii	"USB_EVENT_CONFIGURED\000"
 4238      4556454E 
 4238      545F434F 
 4238      4E464947 
 4238      55524544 
 4239              	.LASF201:
 4240 0912 4649464F 		.ascii	"FIFO\000"
 4240      00
 4241              	.LASF66:
 4242 0917 715F7761 		.ascii	"q_waiting\000"
 4242      6974696E 
 4242      6700
 4243              	.LASF23:
 4244 0921 746D6F64 		.ascii	"tmode_t\000"
 4244      655F7400 
 4245              	.LASF241:
 4246 0929 64747970 		.ascii	"dtype\000"
 4246      6500
 4247              	.LASF127:
 4248 092f 75736267 		.ascii	"usbgetdescriptor_t\000"
 4248      65746465 
 4248      73637269 
 4248      70746F72 
 4248      5F7400
 4249              	.LASF97:
 4250 0942 77615F70 		.ascii	"wa_pump\000"
ARM GAS  /tmp/ccVu9HYc.s 			page 83


 4250      756D7000 
 4251              	.LASF250:
 4252 094a 6869645F 		.ascii	"hid_string0\000"
 4252      73747269 
 4252      6E673000 
 4253              	.LASF251:
 4254 0956 6869645F 		.ascii	"hid_string1\000"
 4254      73747269 
 4254      6E673100 
 4255              	.LASF82:
 4256 0962 696E5F70 		.ascii	"in_params\000"
 4256      6172616D 
 4256      7300
 4257              	.LASF253:
 4258 096c 6869645F 		.ascii	"hid_string3\000"
 4258      73747269 
 4258      6E673300 
 4259              	.LASF254:
 4260 0978 6869645F 		.ascii	"hid_string4\000"
 4260      73747269 
 4260      6E673400 
 4261              	.LASF266:
 4262 0984 7573625F 		.ascii	"usb_get_descriptor_cb\000"
 4262      6765745F 
 4262      64657363 
 4262      72697074 
 4262      6F725F63 
 4263              	.LASF7:
 4264 099a 73686F72 		.ascii	"short int\000"
 4264      7420696E 
 4264      7400
 4265              	.LASF215:
 4266 09a4 746F7473 		.ascii	"totsize\000"
 4266      697A6500 
 4267              	.LASF20:
 4268 09ac 75696E74 		.ascii	"uint64_t\000"
 4268      36345F74 
 4268      00
 4269              	.LASF214:
 4270 09b5 6D6F6465 		.ascii	"mode\000"
 4270      00
 4271              	.LASF255:
 4272 09ba 6869645F 		.ascii	"hid_strings\000"
 4272      73747269 
 4272      6E677300 
 4273              	.LASF243:
 4274 09c6 6C616E67 		.ascii	"lang\000"
 4274      00
 4275              	.LASF113:
 4276 09cb 5553425F 		.ascii	"USB_EVENT_RESET\000"
 4276      4556454E 
 4276      545F5245 
 4276      53455400 
 4277              	.LASF133:
 4278 09db 72657376 		.ascii	"resvd14\000"
 4278      64313400 
 4279              	.LASF134:
ARM GAS  /tmp/ccVu9HYc.s 			page 84


 4280 09e3 72657376 		.ascii	"resvd18\000"
 4280      64313800 
 4281              	.LASF142:
 4282 09eb 44545846 		.ascii	"DTXFSTS\000"
 4282      53545300 
 4283              	.LASF208:
 4284 09f3 74787175 		.ascii	"txqueue\000"
 4284      65756500 
 4285              	.LASF143:
 4286 09fb 72657376 		.ascii	"resvd1C\000"
 4286      64314300 
 4287              	.LASF183:
 4288 0a03 44494550 		.ascii	"DIEPMSK\000"
 4288      4D534B00 
 4289              	.LASF21:
 4290 0a0b 626F6F6C 		.ascii	"bool_t\000"
 4290      5F7400
 4291              	.LASF135:
 4292 0a12 72657376 		.ascii	"resvd1c\000"
 4292      64316300 
 4293              	.LASF126:
 4294 0a1a 75736272 		.ascii	"usbreqhandler_t\000"
 4294      65716861 
 4294      6E646C65 
 4294      725F7400 
 4295              	.LASF137:
 4296 0a2a 44494550 		.ascii	"DIEPCTL\000"
 4296      43544C00 
 4297              	.LASF123:
 4298 0a32 75736263 		.ascii	"usbcallback_t\000"
 4298      616C6C62 
 4298      61636B5F 
 4298      7400
 4299              	.LASF30:
 4300 0a40 54687265 		.ascii	"Thread\000"
 4300      616400
 4301              	.LASF154:
 4302 0a47 47494E54 		.ascii	"GINTSTS\000"
 4302      53545300 
 4303              	.LASF139:
 4304 0a4f 44494550 		.ascii	"DIEPINT\000"
 4304      494E5400 
 4305              	.LASF160:
 4306 0a57 484E5054 		.ascii	"HNPTXSTS\000"
 4306      58535453 
 4306      00
 4307              	.LASF25:
 4308 0a60 74726566 		.ascii	"trefs_t\000"
 4308      735F7400 
 4309              	.LASF237:
 4310 0a68 736F665F 		.ascii	"sof_cb\000"
 4310      636200
 4311              	.LASF200:
 4312 0a6f 72657376 		.ascii	"resvdE04\000"
 4312      64453034 
 4312      00
 4313              	.LASF161:
ARM GAS  /tmp/ccVu9HYc.s 			page 85


 4314 0a78 72657376 		.ascii	"resvd30\000"
 4314      64333000 
 4315              	.LASF197:
 4316 0a80 72657376 		.ascii	"resvd8C0\000"
 4316      64384330 
 4316      00
 4317              	.LASF162:
 4318 0a89 72657376 		.ascii	"resvd34\000"
 4318      64333400 
 4319              	.LASF19:
 4320 0a91 75696E74 		.ascii	"uint32_t\000"
 4320      33325F74 
 4320      00
 4321              	.LASF98:
 4322 0a9a 75736265 		.ascii	"usbep_t\000"
 4322      705F7400 
 4323              	.LASF245:
 4324 0aa2 6869645F 		.ascii	"hid_device_descriptor\000"
 4324      64657669 
 4324      63655F64 
 4324      65736372 
 4324      6970746F 
 4325              	.LASF49:
 4326 0ab8 54687265 		.ascii	"ThreadsQueue\000"
 4326      61647351 
 4326      75657565 
 4326      00
 4327              	.LASF116:
 4328 0ac5 5553425F 		.ascii	"USB_EVENT_SUSPEND\000"
 4328      4556454E 
 4328      545F5355 
 4328      5350454E 
 4328      4400
 4329              	.LASF60:
 4330 0ad7 7264796D 		.ascii	"rdymsg\000"
 4330      736700
 4331              	.LASF9:
 4332 0ade 73686F72 		.ascii	"short unsigned int\000"
 4332      7420756E 
 4332      7369676E 
 4332      65642069 
 4332      6E7400
 4333              	.LASF265:
 4334 0af1 7573625F 		.ascii	"usb_event\000"
 4334      6576656E 
 4334      7400
 4335              	.LASF181:
 4336 0afb 44535453 		.ascii	"DSTS\000"
 4336      00
 4337              	.LASF235:
 4338 0b00 6765745F 		.ascii	"get_descriptor_cb\000"
 4338      64657363 
 4338      72697074 
 4338      6F725F63 
 4338      6200
 4339              	.LASF75:
 4340 0b12 496E7075 		.ascii	"InputQueue\000"
ARM GAS  /tmp/ccVu9HYc.s 			page 86


 4340      74517565 
 4340      756500
 4341              	.LASF83:
 4342 0b1d 6F75745F 		.ascii	"out_params\000"
 4342      70617261 
 4342      6D7300
 4343              	.LASF10:
 4344 0b28 5F5F696E 		.ascii	"__int32_t\000"
 4344      7433325F 
 4344      7400
 4345              	.LASF172:
 4346 0b32 48505458 		.ascii	"HPTXSTS\000"
 4346      53545300 
 4347              	.LASF164:
 4348 0b3a 72657376 		.ascii	"resvd58\000"
 4348      64353800 
 4349              	.LASF110:
 4350 0b42 5553425F 		.ascii	"USB_EP0_SENDING_STS\000"
 4350      4550305F 
 4350      53454E44 
 4350      494E475F 
 4350      53545300 
 4351              	.LASF169:
 4352 0b56 48464952 		.ascii	"HFIR\000"
 4352      00
 4353              	.LASF108:
 4354 0b5b 5553425F 		.ascii	"USB_EP0_WAITING_STS\000"
 4354      4550305F 
 4354      57414954 
 4354      494E475F 
 4354      53545300 
 4355              	.LASF37:
 4356 0b6f 705F6E61 		.ascii	"p_name\000"
 4356      6D6500
 4357              	.LASF59:
 4358 0b76 6D5F6E65 		.ascii	"m_next\000"
 4358      787400
 4359              	.LASF93:
 4360 0b7d 706D6E65 		.ascii	"pmnext\000"
 4360      787400
 4361              	.LASF211:
 4362 0b84 74787175 		.ascii	"txqueued\000"
 4362      65756564 
 4362      00
 4363              	.LASF152:
 4364 0b8d 47555342 		.ascii	"GUSBCFG\000"
 4364      43464700 
 4365              	.LASF109:
 4366 0b95 5553425F 		.ascii	"USB_EP0_RX\000"
 4366      4550305F 
 4366      525800
 4367              	.LASF167:
 4368 0ba0 72657376 		.ascii	"resvd140\000"
 4368      64313430 
 4368      00
 4369              	.LASF44:
 4370 0ba9 705F6D73 		.ascii	"p_msg\000"
ARM GAS  /tmp/ccVu9HYc.s 			page 87


 4370      6700
 4371              	.LASF38:
 4372 0baf 705F7374 		.ascii	"p_state\000"
 4372      61746500 
 4373              		.ident	"GCC: (GNU Tools for ARM Embedded Processors) 5.4.1 20160919 (release) [ARM/embedded-5-bran
ARM GAS  /tmp/ccVu9HYc.s 			page 88


DEFINED SYMBOLS
                            *ABS*:00000000 usbcfg.c
     /tmp/ccVu9HYc.s:20     .text.usb_get_descriptor_cb:00000000 $t
     /tmp/ccVu9HYc.s:25     .text.usb_get_descriptor_cb:00000000 usb_get_descriptor_cb
     /tmp/ccVu9HYc.s:42     .text.usb_get_descriptor_cb:0000000a $d
     /tmp/ccVu9HYc.s:76     .text.usb_get_descriptor_cb:0000002c $t
     /tmp/ccVu9HYc.s:114    .text.usb_get_descriptor_cb:00000048 $d
     /tmp/ccVu9HYc.s:122    .text.usb_event:00000000 $t
     /tmp/ccVu9HYc.s:127    .text.usb_event:00000000 usb_event
     /tmp/ccVu9HYc.s:192    .text.usb_event:0000002c $d
     /tmp/ccVu9HYc.s:505    .rodata.usbcfg:00000000 usbcfg
     /tmp/ccVu9HYc.s:202    .rodata.ep1config:00000000 $d
     /tmp/ccVu9HYc.s:206    .rodata.ep1config:00000000 ep1config
     /tmp/ccVu9HYc.s:380    .bss.ep1instate:00000000 ep1instate
     /tmp/ccVu9HYc.s:219    .rodata.hid_configuration_descriptor_data:00000000 $d
     /tmp/ccVu9HYc.s:222    .rodata.hid_configuration_descriptor_data:00000000 hid_configuration_descriptor_data
     /tmp/ccVu9HYc.s:377    .bss.ep1instate:00000000 $d
     /tmp/ccVu9HYc.s:383    .rodata.hid_string0:00000000 $d
     /tmp/ccVu9HYc.s:386    .rodata.hid_string0:00000000 hid_string0
     /tmp/ccVu9HYc.s:392    .rodata.hid_device_descriptor:00000000 $d
     /tmp/ccVu9HYc.s:396    .rodata.hid_device_descriptor:00000000 hid_device_descriptor
     /tmp/ccVu9HYc.s:612    .rodata.hid_device_descriptor_data:00000000 hid_device_descriptor_data
     /tmp/ccVu9HYc.s:400    .rodata.ep2config:00000000 $d
     /tmp/ccVu9HYc.s:404    .rodata.ep2config:00000000 ep2config
     /tmp/ccVu9HYc.s:635    .bss.ep2outstate:00000000 ep2outstate
     /tmp/ccVu9HYc.s:417    .rodata.hid_string3:00000000 $d
     /tmp/ccVu9HYc.s:420    .rodata.hid_string3:00000000 hid_string3
     /tmp/ccVu9HYc.s:438    .rodata.hid_string4:00000000 $d
     /tmp/ccVu9HYc.s:441    .rodata.hid_string4:00000000 hid_string4
     /tmp/ccVu9HYc.s:459    .rodata.hid_strings:00000000 $d
     /tmp/ccVu9HYc.s:463    .rodata.hid_strings:00000000 hid_strings
     /tmp/ccVu9HYc.s:514    .rodata.hid_string1:00000000 hid_string1
     /tmp/ccVu9HYc.s:478    .rodata.hid_string2:00000000 hid_string2
     /tmp/ccVu9HYc.s:475    .rodata.hid_string2:00000000 $d
     /tmp/ccVu9HYc.s:502    .rodata.usbcfg:00000000 $d
     /tmp/ccVu9HYc.s:511    .rodata.hid_string1:00000000 $d
     /tmp/ccVu9HYc.s:562    .rodata.hid_generic_joystick_reporter_data:00000000 $d
     /tmp/ccVu9HYc.s:565    .rodata.hid_generic_joystick_reporter_data:00000000 hid_generic_joystick_reporter_data
     /tmp/ccVu9HYc.s:609    .rodata.hid_device_descriptor_data:00000000 $d
     /tmp/ccVu9HYc.s:632    .bss.ep2outstate:00000000 $d
     /tmp/ccVu9HYc.s:638    .rodata.hid_configuration_descriptor:00000000 $d
     /tmp/ccVu9HYc.s:642    .rodata.hid_configuration_descriptor:00000000 hid_configuration_descriptor
     /tmp/ccVu9HYc.s:646    .rodata.hid_generic_joystick_reporter:00000000 $d
     /tmp/ccVu9HYc.s:650    .rodata.hid_generic_joystick_reporter:00000000 hid_generic_joystick_reporter
                     .debug_frame:00000010 $d

UNDEFINED SYMBOLS
usbInitEndpointI
hidDataTransmitted
hidDataReceived
usb_request_hook_cb
